(lp0
(lp1
F166.88061800041686
aF166.89343568001823
aF169.4782649997035
aF166.94713633321783
aF166.9605630519287
aF167.75376300770986
aF169.02861202352534
aa(lp2
F179.76936694439354
aF191.66810827417112
aF180.0919096162477
aF180.41819867608405
aF180.2599702946511
aF179.7789812835111
aF180.44426387082962
aa(lp3
F166.64171075228433
aF166.7053182662348
aF168.39849516012956
aF166.63047685434324
aF166.6214764522882
aF166.8119773619169
aF166.36829384639765
aa(lp4
F179.75113610930956
aF179.82572576731832
aF178.59875293878417
aF178.72563975395045
aF190.66310275983614
aF180.09792747874462
aF178.28617830120675
aa(lp5
F180.6197672608726
aF193.41619719474951
aF180.8343951268423
aF176.2464402481405
aF180.75285943761597
aF180.73753362096545
aF180.7859368427295
aa(lp6
F168.56418705733705
aF167.38751443458443
aF170.77646333325026
aF168.44814437034276
aF179.13968508820898
aF168.60871404859506
aF166.9923617699103
aa(lp7
F166.7102058740002
aF166.81145108153092
aF166.68862676624778
aF174.16933887383138
aF166.11151205016276
aF166.70160880788202
aF167.32311245428494
aa(lp8
F178.33413003995486
aF185.16189830070167
aF169.27139008104143
aF174.738659661803
aF170.16636908247116
aF172.40447485104318
aF169.0278384746365
aa(lp9
F122.82244893648412
aF119.91295150972282
aF114.45631193863751
aF140.60588711386515
aF117.1744745892632
aF114.56413658943063
aF168.580577747294
aa(lp10
F183.2241840549065
aF180.18924155873225
aF180.20496561514716
aF180.17023037450724
aF180.97753240217534
aF180.18600065869927
aF180.10404300202273
aa(lp11
F200.39179089200135
aF191.47492401709493
aF188.52453592837787
aF187.31851513754248
aF190.42943892245577
aF191.47923897567463
aF190.9041085104825
aa(lp12
F180.30766672433265
aF174.9453232043306
aF176.76279906404733
aF174.15224752834013
aF177.77603105034072
aF176.39862662947516
aF176.310175640524
aa(lp13
F200.4314962979595
aF191.25066533055147
aF190.36838547994162
aF190.4396591267945
aF191.75426082161593
aF191.19499891800677
aF188.14057671455242
aa(lp14
F201.75934520131966
aF191.53799030203498
aF189.3990437500063
aF187.24743865632271
aF187.5545508717954
aF191.7488852977308
aF191.78177934117355
aa(lp15
F183.4219083798878
aF182.17377276829592
aF181.04254800553647
aF179.97615675097347
aF191.99601939263042
aF183.33060546127012
aF182.2528666596041
aa(lp16
F181.72310494728202
aF178.21696393772575
aF177.03410108586485
aF178.81522840954264
aF171.8885524775137
aF178.80661723794702
aF173.1968833619314
aa(lp17
F193.44428056056404
aF182.40560997823525
aF181.01809689363068
aF181.04875218177256
aF181.1802090268493
aF182.7379186372798
aF178.25528078788977
aa(lp18
F176.59028843135678
aF163.9319664357448
aF166.69429062260184
aF168.3208146955938
aF164.94274519657918
aF166.2901625741995
aF164.63137841374336
aa(lp19
F0.0
aF0.0
aF0.0
aF0.0
aF0.0
aF0.0
aF0.0
aa(lp20
F0.0
aF0.0
aF0.0
aF0.0
aF0.0
aF0.0
aF0.0
aa(lp21
F0.0
aF0.0
aF0.0
aF0.0
aF0.0
aF0.0
aF0.0
aa(lp22
F0.0
aF0.0
aF0.0
aF0.0
aF0.0
aF0.0
aF0.0
aa(lp23
F0.0
aF0.0
aF0.0
aF0.0
aF0.0
aF0.0
aF0.0
aa(lp24
F0.0
aF0.0
aF0.0
aF0.0
aF0.0
aF0.0
aF0.0
aa(lp25
F0.0
aF0.0
aF0.0
aF0.0
aF0.0
aF0.0
aF0.0
aa(lp26
F0.0
aF0.0
aF0.0
aF0.0
aF0.0
aF0.0
aF0.0
aa(lp27
F0.0
aF0.0
aF0.0
aF0.0
aF0.0
aF0.0
aF0.0
aa(lp28
F180.02677664414583
aF178.02086439321621
aF178.20763260489616
aF191.23479534856787
aF177.28756045644545
aF179.82742579719928
aF178.07795272156056
aa(lp29
F180.14457884150747
aF189.890765001438
aF179.25072503005535
aF180.0855130774927
aF178.64983246492903
aF180.11862095233587
aF179.9983184138312
aa(lp30
F178.09921366323627
aF177.27526458292087
aF175.69921129639954
aF184.66237184683433
aF172.9615807983942
aF177.79015230610065
aF180.98577625641798
aa(lp31
F177.04806820630458
aF174.4956532486243
aF175.48180886815922
aF175.79772308120266
aF183.52835711219657
aF172.3607505273031
aF171.16063991146603
aa(lp32
F182.39735151462892
aF183.4824056106454
aF174.8962151653988
aF191.42188158409374
aF183.51606094586668
aF181.65329876227366
aF183.35231692621835
aa(lp33
F172.66772792250256
aF170.7242835364388
aF172.5318040955956
aF186.75873728637328
aF174.74043378790384
aF179.54230123101036
aF171.6653781877142
aa(lp34
F171.75063903470755
aF169.44368287134554
aF174.35759591964748
aF188.04488661611163
aF170.15983226164354
aF172.26207459053674
aF173.67803520420495
aa(lp35
F122.07151710930086
aF190.86751530520607
aF79.88735378811776
aF124.49660578593323
aF79.2370098238263
aF128.93489375333294
aF125.97085452015416
aa(lp36
F138.8683208565206
aF145.56405052498297
aF172.78748570715487
aF149.91123086278867
aF107.1127357486647
aF149.45256946370696
aF140.8651487359061
aa(lp37
F199.83348924853658
aF190.3663771012424
aF190.58225418978992
aF191.61224349770248
aF189.60145006808906
aF191.50068183611572
aF191.51377185557038
aa(lp38
F198.94263736927198
aF187.1267685226872
aF182.5674866712998
aF191.33080987392955
aF186.87667847789572
aF191.43762335871483
aF189.16434977403893
aa(lp39
F194.24516778772053
aF187.79080432002837
aF187.93122021435306
aF185.53679544383877
aF183.7343778638131
aF187.2536801365576
aF185.17585534208692
aa(lp40
F188.85291207635242
aF186.29392154399596
aF183.54029531472224
aF195.54001338634447
aF188.67742523583092
aF190.88712943776125
aF190.78469063943095
aa(lp41
F198.37933493837096
aF187.0859191270427
aF183.95172900848587
aF192.12805657672425
aF191.6468549146337
aF192.63559947097846
aF189.98242862271923
aa(lp42
F194.89079404126116
aF181.87537135792337
aF180.51019866178893
aF182.38396345470886
aF182.0973814926697
aF183.8576613354663
aF181.97045900154896
aa(lp43
F194.57213627205678
aF144.7305762267796
aF162.99737568113747
aF172.56380182737706
aF179.50588635621176
aF177.65409806289387
aF154.5903753529691
aa(lp44
F148.53572031335267
aF155.34768163247935
aF147.45812656008007
aF196.26238735917437
aF142.0107122512832
aF139.7456452680667
aF163.26704269418144
aa(lp45
F181.073030901566
aF82.95909707943066
aF47.88849516456641
aF43.09442609903165
aF36.530416652201865
aF62.048721350115045
aF122.19901921035991
aa(lp46
F0.0
aF0.0
aF0.0
aF0.0
aF0.0
aF0.0
aF0.0
aa(lp47
F0.0
aF0.0
aF0.0
aF0.0
aF0.0
aF0.0
aF0.0
aa(lp48
F0.0
aF0.0
aF0.0
aF0.0
aF0.0
aF0.0
aF0.0
aa(lp49
F0.0
aF0.0
aF0.0
aF0.0
aF0.0
aF0.0
aF0.0
aa(lp50
F0.0
aF0.0
aF0.0
aF0.0
aF0.0
aF0.0
aF0.0
aa(lp51
F0.0
aF0.0
aF0.0
aF0.0
aF0.0
aF0.0
aF0.0
aa(lp52
F0.0
aF0.0
aF0.0
aF0.0
aF0.0
aF0.0
aF0.0
aa(lp53
F0.0
aF0.0
aF0.0
aF0.0
aF0.0
aF0.0
aF0.0
aa(lp54
F0.0
aF0.0
aF0.0
aF0.0
aF0.0
aF0.0
aF0.0
aa(lp55
F166.8107302593213
aF166.90982845366403
aF168.81709434302363
aF166.85086143537114
aF167.5278700616999
aF166.8630729385114
aF166.37437852267664
aa(lp56
F182.7015656141753
aF190.84989863439418
aF174.3649546065241
aF173.22502765784833
aF172.75032803073884
aF168.3917863351935
aF171.78128289262955
aa(lp57
F165.76979381796548
aF163.76453392975355
aF165.58475218653118
aF161.48492914266973
aF170.07511132698772
aF166.11025346671613
aF164.57789597345834
aa(lp58
F174.87373537536905
aF173.18339486965056
aF172.68540972192892
aF176.75189433571654
aF191.11560908349946
aF173.10750202893558
aF169.03816209769712
aa(lp59
F144.38210993973377
aF186.81814184881185
aF165.6514564979504
aF169.17046053032638
aF170.1374140357906
aF170.84514097885798
aF172.4345374189534
aa(lp60
F63.62268024539459
aF13.493403411658043
aF0.0
aF32.24000738746949
aF190.5907997616862
aF18.531324676708135
aF17.851257664763324
aa(lp61
F0.0
aF0.0
aF0.0
aF0.0
aF0.0
aF0.0
aF0.0
aa(lp62
F0.0
aF0.0
aF0.0
aF0.0
aF0.0
aF0.0
aF0.0
aa(lp63
F0.0
aF0.0
aF0.0
aF0.0
aF0.0
aF0.0
aF0.0
aa(lp64
F182.71386628762204
aF179.25006996923793
aF169.07098260924735
aF173.36635761427686
aF174.95868708089336
aF175.77021108603407
aF175.9793344909233
aa(lp65
F197.41738487652924
aF179.39346540483058
aF181.92858143629564
aF180.24034479012747
aF178.88176842515205
aF184.01808293219588
aF181.4363791779851
aa(lp66
F180.8154306334182
aF166.6029682964753
aF169.90155722384077
aF170.97131055134344
aF157.8987636986177
aF161.17378946142307
aF165.01795035488394
aa(lp67
F196.15220493191683
aF175.2676561919139
aF177.42163731385077
aF181.39074017658555
aF182.00233782475675
aF184.4892385192429
aF180.41795687312148
aa(lp68
F198.44681837386557
aF155.3030783280239
aF94.34175541980015
aF157.5595336811699
aF157.31870597600243
aF145.4015483496925
aF107.83070542966816
aa(lp69
F146.65246366524107
aF118.48695802901068
aF158.2969981422899
aF132.01437772068712
aF198.70056226582977
aF151.46858972810963
aF107.15619262810455
aa(lp70
F0.0
aF0.0
aF0.0
aF0.0
aF0.0
aF0.0
aF0.0
aa(lp71
F0.0
aF0.0
aF0.0
aF0.0
aF0.0
aF0.0
aF0.0
aa(lp72
F0.0
aF0.0
aF0.0
aF0.0
aF0.0
aF0.0
aF0.0
aa(lp73
F0.0
aF0.0
aF0.0
aF0.0
aF0.0
aF0.0
aF0.0
aa(lp74
F0.0
aF0.0
aF0.0
aF0.0
aF0.0
aF0.0
aF0.0
aa(lp75
F0.0
aF0.0
aF0.0
aF0.0
aF0.0
aF0.0
aF0.0
aa(lp76
F0.0
aF0.0
aF0.0
aF0.0
aF0.0
aF0.0
aF0.0
aa(lp77
F0.0
aF0.0
aF0.0
aF0.0
aF0.0
aF0.0
aF0.0
aa(lp78
F0.0
aF0.0
aF0.0
aF0.0
aF0.0
aF0.0
aF0.0
aa(lp79
F0.0
aF0.0
aF0.0
aF0.0
aF0.0
aF0.0
aF0.0
aa(lp80
F0.0
aF0.0
aF0.0
aF0.0
aF0.0
aF0.0
aF0.0
aa(lp81
F0.0
aF0.0
aF0.0
aF0.0
aF0.0
aF0.0
aF0.0
aa(lp82
F179.7228537748366
aF177.45465466031553
aF190.77127461550546
aF179.73677453108743
aF179.8112184394255
aF181.1837799307304
aF178.4469431859053
aa(lp83
F180.0341891621126
aF177.1883044154845
aF192.64054724753558
aF175.82192695421116
aF181.38064126525003
aF178.66127201446437
aF180.4437503612383
aa(lp84
F172.71692849000263
aF170.76540730645766
aF189.9449812654029
aF169.04150364178673
aF170.60866305048384
aF172.18076185600782
aF173.84302755881234
aa(lp85
F181.49340599658703
aF181.3021316617701
aF181.33687955843297
aF181.02854143072733
aF194.09259338822775
aF181.453348606374
aF181.14468177877956
aa(lp86
F181.97192008230653
aF182.0550032425088
aF182.07941408492468
aF180.174328423678
aF182.0000661313938
aF176.6906502233498
aF190.8259265380283
aa(lp87
F116.75092401739775
aF93.94745505584912
aF187.26312692729226
aF118.78288043954461
aF84.50653458265106
aF114.89924912270195
aF82.03849213686391
aa(lp88
F173.2313591019009
aF169.54559868309138
aF188.53788642299176
aF174.50733174020115
aF176.45222525951678
aF173.1947797939668
aF175.72371449762778
aa(lp89
F170.45398931113692
aF184.67439628834808
aF169.49422071882145
aF170.96767811317264
aF168.63782607094547
aF168.28928837416402
aF173.23460497050107
aa(lp90
F0.0
aF18.65566203611991
aF184.35112323669873
aF32.59955094508891
aF58.82076629468115
aF0.0
aF32.47973700686049
aa(lp91
F200.1006104048983
aF187.90490571180445
aF192.01118098216972
aF190.49139022002348
aF188.50813277106892
aF190.51785743171612
aF190.738100438838
aa(lp92
F199.04162060621286
aF186.53019489335486
aF184.8447414143935
aF184.91939816074253
aF183.36718536820067
aF182.47365537599444
aF187.70526708807913
aa(lp93
F195.3105365814801
aF177.39606937372992
aF175.15410838780247
aF147.03788372930276
aF162.99178080365664
aF162.9302010368014
aF159.94333135898887
aa(lp94
F200.31750061290225
aF189.6516096603277
aF188.93547859464167
aF188.8106508728848
aF189.66232066856637
aF191.31098480628506
aF191.03414925863905
aa(lp95
F195.42233968870988
aF186.88331510785196
aF184.99313055448232
aF185.79999121114366
aF187.0881918532354
aF186.04685156158203
aF186.8272393465677
aa(lp96
F49.532609233918635
aF34.492433948660306
aF63.077833501184806
aF0.0
aF196.95732176689327
aF9.43698398828142
aF37.55416337559771
aa(lp97
F197.0759868168275
aF181.3690336394916
aF186.216279092767
aF183.06378422645295
aF183.72100188026616
aF185.37183319404465
aF182.19438606508004
aa(lp98
F194.8900779083755
aF153.4940331881649
aF161.04579032325566
aF176.48519468641325
aF162.11375860029366
aF169.227026295812
aF173.16943728983577
aa(lp99
F95.69005319002042
aF85.12938533443405
aF123.37744518960038
aF171.91913512124103
aF58.035715520122544
aF92.53718572235401
aF84.64522120928771
aa(lp100
F0.0
aF0.0
aF0.0
aF0.0
aF0.0
aF0.0
aF0.0
aa(lp101
F0.0
aF0.0
aF0.0
aF0.0
aF0.0
aF0.0
aF0.0
aa(lp102
F0.0
aF0.0
aF0.0
aF0.0
aF0.0
aF0.0
aF0.0
aa(lp103
F0.0
aF0.0
aF0.0
aF0.0
aF0.0
aF0.0
aF0.0
aa(lp104
F0.0
aF0.0
aF0.0
aF0.0
aF0.0
aF0.0
aF0.0
aa(lp105
F0.0
aF0.0
aF0.0
aF0.0
aF0.0
aF0.0
aF0.0
aa(lp106
F0.0
aF0.0
aF0.0
aF0.0
aF0.0
aF0.0
aF0.0
aa(lp107
F0.0
aF0.0
aF0.0
aF0.0
aF0.0
aF0.0
aF0.0
aa(lp108
F0.0
aF0.0
aF0.0
aF0.0
aF0.0
aF0.0
aF0.0
aa(lp109
F180.8859668977086
aF177.7833752754575
aF181.062322610264
aF192.83369523898045
aF179.99598784970362
aF180.9769678249619
aF181.01315584554564
aa(lp110
F177.2657831257311
aF176.46844665756018
aF191.5553213823779
aF177.2869993206246
aF172.9681217909075
aF175.16796399840166
aF177.56384474700974
aa(lp111
F117.91362268789844
aF95.92443403913178
aF183.29862225037027
aF160.7656487385537
aF111.182994392373
aF135.55118736144246
aF101.47125062225074
aa(lp112
F180.78786401035998
aF175.78850749757686
aF181.70579308884254
aF173.62809892851874
aF191.87649095461484
aF181.63307754923045
aF181.38902992403763
aa(lp113
F180.8096092883988
aF169.4268276785801
aF172.4610114783912
aF172.2295638514924
aF179.9115174671423
aF174.79171962095953
aF190.07106803193068
aa(lp114
F94.39411260380321
aF100.40171171004509
aF38.06322758498837
aF90.42922514979058
aF190.47424208052283
aF115.80127784882161
aF95.75742878636463
aa(lp115
F150.87030453350832
aF144.1797551255543
aF189.2530393802993
aF160.80760512813163
aF136.710904961694
aF162.97165614306508
aF157.40779227171686
aa(lp116
F34.526898211600795
aF46.490185538743305
aF72.78101169745885
aF182.06123498420277
aF33.67251376487253
aF36.125767218888214
aF62.61212635501393
aa(lp117
F48.35422198155993
aF73.6075455544305
aF72.8298949435252
aF187.06635626300036
aF82.26851996980628
aF107.5876290380897
aF36.58360469982785
aa(lp118
F198.94266808986202
aF189.1827159289631
aF192.88724451760308
aF186.34843961086256
aF190.6385302778036
aF192.71955454414345
aF191.05023813793287
aa(lp119
F196.9874736110168
aF183.36835324507987
aF183.59651071128013
aF183.2982675450969
aF183.89890657395443
aF183.69363464883227
aF185.65442458681036
aa(lp120
F177.71320075776478
aF175.09137616754055
aF197.19628178807346
aF180.0969039061284
aF159.7723061686822
aF180.38829260996724
aF181.12461021114518
aa(lp121
F199.08671600315114
aF183.6392375839476
aF190.69109903752712
aF190.5267740578136
aF190.7355940345463
aF188.43234218325557
aF186.63171110934485
aa(lp122
F200.1043170346969
aF152.15846290468156
aF147.1650191019564
aF140.37814208876011
aF156.71137861449148
aF160.17211081041168
aF171.80177777862724
aa(lp123
F121.87056289440906
aF69.84017674823446
aF196.5980947632334
aF86.90485401920235
aF115.3062859660876
aF126.34039023561148
aF145.72148584965174
aa(lp124
F200.87760651338303
aF145.4693010903927
aF120.4038281169353
aF143.18445114117185
aF146.4297938777473
aF159.8165967913724
aF151.68654428227921
aa(lp125
F36.46870889356143
aF93.39821163770297
aF195.3160298471213
aF18.717199448213908
aF29.043176700283134
aF49.20835322890059
aF-0.5
aa(lp126
F198.21170773781327
aF18.28706442858002
aF20.172550020094896
aF64.8960516182785
aF64.0317192911091
aF19.002030917239207
aF49.50583810277138
aa(lp127
F0.0
aF0.0
aF0.0
aF0.0
aF0.0
aF0.0
aF0.0
aa(lp128
F0.0
aF0.0
aF0.0
aF0.0
aF0.0
aF0.0
aF0.0
aa(lp129
F0.0
aF0.0
aF0.0
aF0.0
aF0.0
aF0.0
aF0.0
aa(lp130
F0.0
aF0.0
aF0.0
aF0.0
aF0.0
aF0.0
aF0.0
aa(lp131
F0.0
aF0.0
aF0.0
aF0.0
aF0.0
aF0.0
aF0.0
aa(lp132
F0.0
aF0.0
aF0.0
aF0.0
aF0.0
aF0.0
aF0.0
aa(lp133
F0.0
aF0.0
aF0.0
aF0.0
aF0.0
aF0.0
aF0.0
aa(lp134
F0.0
aF0.0
aF0.0
aF0.0
aF0.0
aF0.0
aF0.0
aa(lp135
F0.0
aF0.0
aF0.0
aF0.0
aF0.0
aF0.0
aF0.0
aa(lp136
F175.0562364202003
aF168.0858123721825
aF188.664415103811
aF172.23922904986932
aF168.6210700862822
aF173.8353473789562
aF173.76928650134167
aa(lp137
F170.26527374402644
aF187.44765195122227
aF167.75875155543807
aF134.58326742314287
aF170.0866094312272
aF165.02726946660667
aF168.49819914587798
aa(lp138
F125.82280775843101
aF122.93697741534993
aF189.14149052630282
aF132.0217490002894
aF133.39318833755024
aF153.2657045509235
aF135.30295523924764
aa(lp139
F175.5503637309801
aF170.87214985326654
aF178.5418742323075
aF172.68191651153947
aF193.43169489090883
aF174.12405891181604
aF172.5422970118782
aa(lp140
F108.76034025874152
aF186.27687506798938
aF119.03052658255254
aF93.33392425855875
aF97.76207440450895
aF56.1874843809432
aF112.46788868588872
aa(lp141
F12.479111169479964
aF31.84458678516303
aF186.90315395944532
aF-0.5
aF4.255061856371322
aF33.463484568558506
aF1.3892494461709186
aa(lp142
F0.0
aF0.0
aF0.0
aF0.0
aF0.0
aF0.0
aF0.0
aa(lp143
F0.0
aF0.0
aF0.0
aF0.0
aF0.0
aF0.0
aF0.0
aa(lp144
F0.0
aF0.0
aF0.0
aF0.0
aF0.0
aF0.0
aF0.0
aa(lp145
F194.36674443604494
aF180.26584991770426
aF180.62525055631247
aF178.69161333282048
aF181.6139599909111
aF183.34583918333053
aF181.17048646336633
aa(lp146
F198.38897328610273
aF151.73898634340412
aF144.39400516419744
aF175.54716453564996
aF163.8502654474037
aF139.82792972511174
aF158.44433721165566
aa(lp147
F200.0748248547363
aF53.709553968252095
aF111.25219199837647
aF76.03223850198732
aF107.91365127491773
aF91.49144820811344
aF78.43149638890482
aa(lp148
F199.63325167806096
aF171.58721812195415
aF171.32592012365217
aF172.64827941945282
aF182.37405029916957
aF175.98349225087455
aF183.85048935867164
aa(lp149
F198.01280976587483
aF89.51691734588478
aF103.72735646671322
aF53.593935965861505
aF93.2587796251213
aF95.73800317675861
aF90.09732045663928
aa(lp150
F17.92028309314706
aF0.0
aF19.833418557726016
aF0.0
aF195.86910274927044
aF19.31526181985627
aF36.19030120652235
aa(lp151
F0.0
aF0.0
aF0.0
aF0.0
aF0.0
aF0.0
aF0.0
aa(lp152
F0.0
aF0.0
aF0.0
aF0.0
aF0.0
aF0.0
aF0.0
aa(lp153
F0.0
aF0.0
aF0.0
aF0.0
aF0.0
aF0.0
aF0.0
aa(lp154
F0.0
aF0.0
aF0.0
aF0.0
aF0.0
aF0.0
aF0.0
aa(lp155
F0.0
aF0.0
aF0.0
aF0.0
aF0.0
aF0.0
aF0.0
aa(lp156
F0.0
aF0.0
aF0.0
aF0.0
aF0.0
aF0.0
aF0.0
aa(lp157
F0.0
aF0.0
aF0.0
aF0.0
aF0.0
aF0.0
aF0.0
aa(lp158
F0.0
aF0.0
aF0.0
aF0.0
aF0.0
aF0.0
aF0.0
aa(lp159
F0.0
aF0.0
aF0.0
aF0.0
aF0.0
aF0.0
aF0.0
aa(lp160
F0.0
aF0.0
aF0.0
aF0.0
aF0.0
aF0.0
aF0.0
aa(lp161
F0.0
aF0.0
aF0.0
aF0.0
aF0.0
aF0.0
aF0.0
aa(lp162
F0.0
aF0.0
aF0.0
aF0.0
aF0.0
aF0.0
aF0.0
aa(lp163
F166.8638911019041
aF170.33804780209675
aF166.68320611283622
aF167.126776857529
aF166.84113661627987
aF166.72795779675255
aF166.50978162820778
aa(lp164
F169.71729883819353
aF189.1096142348835
aF169.3681974975673
aF166.8209784931639
aF166.7832931524108
aF169.21160045259717
aF166.78135732120074
aa(lp165
F0.0
aF0.0
aF0.0
aF0.0
aF0.0
aF0.0
aF0.0
aa(lp166
F178.58443914310942
aF169.53966097846427
aF173.41551886014477
aF169.0239449288501
aF184.82215949730676
aF175.29423262693328
aF173.4738357834592
aa(lp167
F168.49584869061223
aF182.03739201493502
aF166.08937463759753
aF168.63441535665393
aF168.52818563354356
aF170.4632653893651
aF169.79048215846396
aa(lp168
F0.0
aF0.0
aF0.0
aF0.0
aF0.0
aF0.0
aF0.0
aa(lp169
F160.99971309613767
aF170.68497597783062
aF157.54170532217634
aF160.93660753158696
aF159.29467203637617
aF161.05282464414688
aF155.96690817025268
aa(lp170
F104.76694608436672
aF187.7803402409054
aF93.59286310165346
aF62.8337217941188
aF91.60175557932152
aF69.99744612349535
aF97.13507411841148
aa(lp171
F0.0
aF0.0
aF0.0
aF0.0
aF0.0
aF0.0
aF0.0
aa(lp172
F181.50598863031095
aF172.6033549024017
aF176.89163794541193
aF179.4560399805883
aF177.67326861379303
aF175.4209960789243
aF179.1997705375727
aa(lp173
F179.39000979363607
aF196.88117118179306
aF184.90695952420987
aF164.29590495661213
aF174.89685248283962
aF187.38858435653245
aF183.182745787036
aa(lp174
F0.0
aF0.0
aF0.0
aF0.0
aF0.0
aF0.0
aF0.0
aa(lp175
F195.20073444751168
aF179.73007499643035
aF184.6218882022996
aF181.36574864258841
aF180.40534697631335
aF186.64900262748267
aF180.6084467825721
aa(lp176
F180.15645519251774
aF195.83929602120725
aF169.90107081677706
aF154.6288348710802
aF166.78132417473182
aF167.28633179499124
aF177.96580167076692
aa(lp177
F0.0
aF0.0
aF0.0
aF0.0
aF0.0
aF0.0
aF0.0
aa(lp178
F179.199889309269
aF171.13892886030078
aF169.61710381255662
aF164.64932126414675
aF169.23645246702694
aF171.8486892328129
aF167.8858153968724
aa(lp179
F196.2324964032622
aF21.831301436492815
aF77.4538755694788
aF84.85407159524586
aF36.20233569147601
aF66.51685748002348
aF36.797865899607466
aa(lp180
F0.0
aF0.0
aF0.0
aF0.0
aF0.0
aF0.0
aF0.0
aa(lp181
F0.0
aF0.0
aF0.0
aF0.0
aF0.0
aF0.0
aF0.0
aa(lp182
F0.0
aF0.0
aF0.0
aF0.0
aF0.0
aF0.0
aF0.0
aa(lp183
F0.0
aF0.0
aF0.0
aF0.0
aF0.0
aF0.0
aF0.0
aa(lp184
F0.0
aF0.0
aF0.0
aF0.0
aF0.0
aF0.0
aF0.0
aa(lp185
F0.0
aF0.0
aF0.0
aF0.0
aF0.0
aF0.0
aF0.0
aa(lp186
F0.0
aF0.0
aF0.0
aF0.0
aF0.0
aF0.0
aF0.0
aa(lp187
F0.0
aF0.0
aF0.0
aF0.0
aF0.0
aF0.0
aF0.0
aa(lp188
F0.0
aF0.0
aF0.0
aF0.0
aF0.0
aF0.0
aF0.0
aa(lp189
F0.0
aF0.0
aF0.0
aF0.0
aF0.0
aF0.0
aF0.0
aa(lp190
F179.62002578956037
aF175.75237057827232
aF174.21843826085873
aF191.3998669338153
aF168.70329290978984
aF178.21188690508342
aF180.0063236725055
aa(lp191
F94.80320075246007
aF49.990331907408375
aF90.47387801747524
aF191.76369951777917
aF32.11873398480969
aF33.4535076066672
aF49.106912734948324
aa(lp192
F0.0
aF0.0
aF0.0
aF0.0
aF0.0
aF0.0
aF0.0
aa(lp193
F168.05450357211663
aF173.62936424819475
aF174.7065724220384
aF185.25796979870935
aF172.618054965462
aF178.9258653694887
aF174.31567032560628
aa(lp194
F34.085563624913405
aF186.91175433526885
aF95.54452603961866
aF73.07916359465392
aF33.71403945809649
aF91.4575980053199
aF31.970870947310473
aa(lp195
F0.0
aF0.0
aF0.0
aF0.0
aF0.0
aF0.0
aF0.0
aa(lp196
F128.24945333778697
aF171.2699285175873
aF119.07415694802295
aF142.12073018642195
aF115.89300960457732
aF120.87635100181132
aF108.67002403034618
aa(lp197
F0.0
aF35.30908734077706
aF17.82587393778138
aF34.26568146545653
aF31.020458073645884
aF0.0
aF183.65039643626972
aa(lp198
F0.0
aF0.0
aF0.0
aF0.0
aF0.0
aF0.0
aF0.0
aa(lp199
F196.8355306748927
aF186.27547283551002
aF185.28452982277787
aF185.60694407153534
aF182.83610644230217
aF183.68559529641547
aF181.1106900540246
aa(lp200
F50.32730932846519
aF122.32204069290344
aF64.58343637465435
aF198.19146786238787
aF113.69840732146474
aF123.59073324477893
aF67.9771951307072
aa(lp201
F0.0
aF0.0
aF0.0
aF0.0
aF0.0
aF0.0
aF0.0
aa(lp202
F196.2580720000518
aF160.47370654490115
aF169.6855677546853
aF164.9412175851151
aF165.08465006584063
aF165.3830008710944
aF174.86536692951194
aa(lp203
F33.67550242166329
aF95.74113062645002
aF46.85108966794137
aF200.51440075270057
aF43.24159726695292
aF43.50416362801047
aF51.35702309651212
aa(lp204
F0.0
aF0.0
aF0.0
aF0.0
aF0.0
aF0.0
aF0.0
aa(lp205
F186.66202804626204
aF146.071051484174
aF127.85078091055203
aF163.1099272139728
aF105.42382810398965
aF145.54047821791292
aF123.93402539018639
aa(lp206
F189.3793959619215
aF0.0
aF0.0
aF0.0
aF0.0
aF0.0
aF18.487763075875066
aa(lp207
F0.0
aF0.0
aF0.0
aF0.0
aF0.0
aF0.0
aF0.0
aa(lp208
F0.0
aF0.0
aF0.0
aF0.0
aF0.0
aF0.0
aF0.0
aa(lp209
F0.0
aF0.0
aF0.0
aF0.0
aF0.0
aF0.0
aF0.0
aa(lp210
F0.0
aF0.0
aF0.0
aF0.0
aF0.0
aF0.0
aF0.0
aa(lp211
F0.0
aF0.0
aF0.0
aF0.0
aF0.0
aF0.0
aF0.0
aa(lp212
F0.0
aF0.0
aF0.0
aF0.0
aF0.0
aF0.0
aF0.0
aa(lp213
F0.0
aF0.0
aF0.0
aF0.0
aF0.0
aF0.0
aF0.0
aa(lp214
F0.0
aF0.0
aF0.0
aF0.0
aF0.0
aF0.0
aF0.0
aa(lp215
F0.0
aF0.0
aF0.0
aF0.0
aF0.0
aF0.0
aF0.0
aa(lp216
F0.0
aF0.0
aF0.0
aF0.0
aF0.0
aF0.0
aF0.0
aa(lp217
F160.2235469369495
aF155.99490609705654
aF158.8142915015281
aF157.98308698525375
aF170.64714245427479
aF158.9217977492985
aF159.91581229116207
aa(lp218
F-0.1
aF75.56662183759644
aF44.45470849948497
aF16.2066026246644
aF32.702524257256336
aF45.34365923064969
aF168.79047188077578
aa(lp219
F0.0
aF0.0
aF0.0
aF0.0
aF0.0
aF0.0
aF0.0
aa(lp220
F138.4196669935627
aF115.74502390825754
aF115.70245543718818
aF139.54918580883998
aF186.88085371759115
aF125.34043930159682
aF105.59886077794911
aa(lp221
F19.50099836872357
aF201.51658392100825
aF32.85939585941929
aF34.83463491584649
aF19.82642393829238
aF32.68108228428334
aF32.14926859394338
aa(lp222
F0.0
aF0.0
aF0.0
aF0.0
aF0.0
aF0.0
aF0.0
aa(lp223
F0.0
aF0.0
aF0.0
aF0.0
aF0.0
aF0.0
aF0.0
aa(lp224
F0.0
aF0.0
aF0.0
aF0.0
aF0.0
aF0.0
aF0.0
aa(lp225
F0.0
aF0.0
aF0.0
aF0.0
aF0.0
aF0.0
aF0.0
aa(lp226
F179.53357418807593
aF141.67871120054676
aF115.49624844336384
aF154.3761212492282
aF128.69949294817067
aF138.16085822616995
aF155.9843056578639
aa(lp227
F61.90169487876948
aF198.2390706730616
aF36.35312005856771
aF-0.5
aF33.40696806366094
aF63.785621307956006
aF36.06412438592521
aa(lp228
F0.0
aF0.0
aF0.0
aF0.0
aF0.0
aF0.0
aF0.0
aa(lp229
F197.2056439059475
aF107.69304765704081
aF82.5384154970167
aF74.29960194266229
aF83.1965255759209
aF86.81688188509345
aF92.22979026607189
aa(lp230
F208.34151840042702
aF18.224313766558986
aF34.86824927867971
aF51.51357730589937
aF0.0
aF38.82141240483112
aF18.86740703616577
aa(lp231
F0.0
aF0.0
aF0.0
aF0.0
aF0.0
aF0.0
aF0.0
aa(lp232
F0.0
aF0.0
aF0.0
aF0.0
aF0.0
aF0.0
aF0.0
aa(lp233
F0.0
aF0.0
aF0.0
aF0.0
aF0.0
aF0.0
aF0.0
aa(lp234
F0.0
aF0.0
aF0.0
aF0.0
aF0.0
aF0.0
aF0.0
aa(lp235
F0.0
aF0.0
aF0.0
aF0.0
aF0.0
aF0.0
aF0.0
aa(lp236
F0.0
aF0.0
aF0.0
aF0.0
aF0.0
aF0.0
aF0.0
aa(lp237
F0.0
aF0.0
aF0.0
aF0.0
aF0.0
aF0.0
aF0.0
aa(lp238
F0.0
aF0.0
aF0.0
aF0.0
aF0.0
aF0.0
aF0.0
aa(lp239
F0.0
aF0.0
aF0.0
aF0.0
aF0.0
aF0.0
aF0.0
aa(lp240
F0.0
aF0.0
aF0.0
aF0.0
aF0.0
aF0.0
aF0.0
aa(lp241
F0.0
aF0.0
aF0.0
aF0.0
aF0.0
aF0.0
aF0.0
aa(lp242
F0.0
aF0.0
aF0.0
aF0.0
aF0.0
aF0.0
aF0.0
aa(lp243
F0.0
aF0.0
aF0.0
aF0.0
aF0.0
aF0.0
aF0.0
aa.