(lp0
(lp1
F183.53860413093304
aF192.75442384194307
aF181.07366181552808
aF181.6902740032968
aF181.9546769873293
aF179.77933625955927
aF173.83497144859194
aa(lp2
F181.9517893227853
aF208.76797449673813
aF181.20590254517515
aF182.42892669777527
aF181.44313075025002
aF181.83356495481198
aF182.86787446324695
aa(lp3
F167.71980199075998
aF167.03836674758315
aF174.94145984349996
aF190.14692767882343
aF172.3786318310424
aF171.8913846387496
aF173.7806500555621
aa(lp4
F186.43101542762784
aF183.60255705600258
aF183.49600330533391
aF185.7670708709098
aF205.76877265293538
aF189.73787590487203
aF183.3362274042904
aa(lp5
F180.74380938753612
aF182.7540558774636
aF180.2127835780086
aF179.70142702588538
aF206.71529448147277
aF180.58937667138576
aF180.64774878075207
aa(lp6
F171.41967977908772
aF162.63908389617325
aF164.06988535036209
aF169.6166571100576
aF191.2703793057199
aF164.5946431851812
aF162.93815849509016
aa(lp7
F168.09782122538198
aF169.10513158056307
aF166.9011847655648
aF197.25619425904208
aF167.7279039781122
aF169.7370324176676
aF169.76230124386257
aa(lp8
F174.95106271154287
aF174.8073171165189
aF175.56136321958846
aF194.30922141935756
aF167.86886905974376
aF173.93731862458662
aF176.11967961532585
aa(lp9
F63.93178814730888
aF69.05040541841115
aF60.678627120070814
aF89.83002208528627
aF41.43816620243543
aF54.66861963756104
aF167.51236769106353
aa(lp10
F205.787959962878
aF184.77662660023546
aF188.0338943857776
aF180.8683857646557
aF180.2681273077959
aF182.28354182506718
aF190.0215127021051
aa(lp11
F216.6224640383261
aF191.77223041175728
aF188.87187699435924
aF190.93591733588636
aF191.00992499047078
aF192.44420996121534
aF194.34509057883864
aa(lp12
F195.83496524321265
aF175.77944796680828
aF181.3292016210808
aF177.45476235594282
aF177.3994843096209
aF181.32686804223937
aF177.25374995214412
aa(lp13
F214.6627359418866
aF191.25431882533547
aF191.94687540894736
aF190.08989225433868
aF191.71843235060896
aF191.638985591517
aF195.2204705488666
aa(lp14
F214.99062320730874
aF189.73973078219538
aF185.5276730326517
aF186.17348052389877
aF192.2921565429244
aF189.61182422005422
aF191.54943665917
aa(lp15
F181.49437748836527
aF172.90627008657702
aF179.74617756139094
aF175.15290668873064
aF200.47391427763495
aF177.3491293082658
aF176.82421548329302
aa(lp16
F205.85787030018972
aF179.6113561253865
aF180.50263337307422
aF177.30161495533272
aF173.8914789827631
aF175.06456179012764
aF173.65883732909174
aa(lp17
F203.62491644933425
aF175.6408624354837
aF172.95869187566464
aF178.45556285137127
aF176.71799530852962
aF176.8509927407968
aF185.4390056297979
aa(lp18
F162.850533704422
aF159.41265352864332
aF193.4105944180776
aF161.34436604478992
aF162.60167946240148
aF170.95203226017205
aF168.85464654991472
aa(lp19
F0.0
aF0.0
aF0.0
aF0.0
aF0.0
aF0.0
aF0.0
aa(lp20
F0.0
aF0.0
aF0.0
aF0.0
aF0.0
aF0.0
aF0.0
aa(lp21
F0.0
aF0.0
aF0.0
aF0.0
aF0.0
aF0.0
aF0.0
aa(lp22
F0.0
aF0.0
aF0.0
aF0.0
aF0.0
aF0.0
aF0.0
aa(lp23
F0.0
aF0.0
aF0.0
aF0.0
aF0.0
aF0.0
aF0.0
aa(lp24
F0.0
aF0.0
aF0.0
aF0.0
aF0.0
aF0.0
aF0.0
aa(lp25
F0.0
aF0.0
aF0.0
aF0.0
aF0.0
aF0.0
aF0.0
aa(lp26
F0.0
aF0.0
aF0.0
aF0.0
aF0.0
aF0.0
aF0.0
aa(lp27
F0.0
aF0.0
aF0.0
aF0.0
aF0.0
aF0.0
aF0.0
aa(lp28
F178.90080588514067
aF180.10581556236764
aF179.91703226126123
aF211.68286724158483
aF178.511412529724
aF178.87488681420626
aF178.53390317893206
aa(lp29
F181.30139776445597
aF180.4897841651355
aF174.75286666045565
aF211.64115828333559
aF179.21942932122752
aF180.43790456882698
aF179.8606594873359
aa(lp30
F178.6256543135059
aF173.6567956853979
aF177.3858240056325
aF200.78266059533763
aF170.99610479248656
aF179.597080045587
aF170.0181173424225
aa(lp31
F179.65434975070323
aF181.8057262305404
aF174.11450697840215
aF211.89153386250533
aF176.96726889664018
aF173.74426165397668
aF178.8541871018941
aa(lp32
F180.68854767917617
aF180.7819769681641
aF179.21657184121818
aF211.45389050454443
aF177.15636693702595
aF180.69499738787317
aF175.9667117271823
aa(lp33
F174.0760229303943
aF170.90297968428106
aF172.22360810783815
aF198.17178893486596
aF172.64202989516303
aF172.9286000875143
aF169.58685502098146
aa(lp34
F172.1157579343967
aF163.14507355454856
aF165.22668455236845
aF204.8236086802796
aF163.07032536477396
aF173.23690053664535
aF173.95007936360258
aa(lp35
F114.61528334346634
aF173.02348488235629
aF70.22828806506975
aF124.49660578593323
aF79.2370098238263
aF121.54255001587937
aF118.99777328830204
aa(lp36
F117.90636359166972
aF126.84073539197021
aF192.32023245949193
aF143.10166128313256
aF92.22839291104971
aF121.47649611922337
aF126.5222323628128
aa(lp37
F219.08010770044203
aF190.01805060654564
aF189.95328176032976
aF185.50720188499724
aF193.04389169324364
aF192.07736636775246
aF191.80406829496886
aa(lp38
F219.42673628682752
aF188.21525957686788
aF190.2235582531576
aF191.79396295743135
aF188.08978923253815
aF195.0673761373358
aF192.2126200531515
aa(lp39
F209.17326446097542
aF185.1588990624598
aF181.40586265229348
aF188.1828697870513
aF176.86929336112743
aF188.13624985246665
aF183.57498351027144
aa(lp40
F217.75519874281855
aF183.38824207647875
aF184.94839900538412
aF186.37008361552063
aF188.39370439769826
aF190.44685342665687
aF182.23541720478138
aa(lp41
F217.86658526787136
aF186.1957723071644
aF189.57363043597334
aF187.0054007736978
aF185.40728601433327
aF183.12615440675518
aF191.24636992963727
aa(lp42
F201.78945067279446
aF179.80773217336878
aF179.96495642277895
aF174.0248437885575
aF178.87577987730984
aF179.82792478181145
aF179.6514586617342
aa(lp43
F203.5073503819068
aF124.1555550097575
aF144.47531430255805
aF156.3719874927246
aF168.0199009478774
aF159.79964442896375
aF133.9154801216475
aa(lp44
F138.1812980477856
aF131.40450135219106
aF118.48770547812354
aF196.0559525055166
aF137.9303307421913
aF127.5933647127805
aF150.7733126189046
aa(lp45
F196.61611949628798
aF49.09513483546441
aF17.84075273803291
aF26.08842859987189
aF36.530416652201865
aF49.044574216214926
aF106.42245722395059
aa(lp46
F0.0
aF0.0
aF0.0
aF0.0
aF0.0
aF0.0
aF0.0
aa(lp47
F0.0
aF0.0
aF0.0
aF0.0
aF0.0
aF0.0
aF0.0
aa(lp48
F0.0
aF0.0
aF0.0
aF0.0
aF0.0
aF0.0
aF0.0
aa(lp49
F0.0
aF0.0
aF0.0
aF0.0
aF0.0
aF0.0
aF0.0
aa(lp50
F0.0
aF0.0
aF0.0
aF0.0
aF0.0
aF0.0
aF0.0
aa(lp51
F0.0
aF0.0
aF0.0
aF0.0
aF0.0
aF0.0
aF0.0
aa(lp52
F0.0
aF0.0
aF0.0
aF0.0
aF0.0
aF0.0
aF0.0
aa(lp53
F0.0
aF0.0
aF0.0
aF0.0
aF0.0
aF0.0
aF0.0
aa(lp54
F0.0
aF0.0
aF0.0
aF0.0
aF0.0
aF0.0
aF0.0
aa(lp55
F172.02371870639135
aF177.3932644469461
aF193.418758633064
aF175.90375125049744
aF174.96297010923456
aF173.62246775970434
aF180.77813494719888
aa(lp56
F164.50006085528508
aF191.17520589748534
aF164.4973340382165
aF163.9304278797946
aF164.36138057906123
aF164.49494016685566
aF164.38898841477186
aa(lp57
F168.15871614745396
aF170.0536770655916
aF193.52216432023036
aF168.1543567009863
aF165.09822507115337
aF169.23609763756744
aF168.72690551402366
aa(lp58
F170.3483435312926
aF174.61052831669375
aF170.2019670320572
aF176.3116819860088
aF208.69795180286124
aF175.04177272442644
aF171.81471502616944
aa(lp59
F133.88983112752243
aF161.55187601759434
aF142.8849459279384
aF151.1727387956293
aF164.28669176665093
aF164.76330999748103
aF190.886825276229
aa(lp60
F49.71045922606677
aF13.493403411658043
aF0.0
aF32.24000738746949
aF183.36790619046585
aF18.531324676708135
aF0.0
aa(lp61
F0.0
aF0.0
aF0.0
aF0.0
aF0.0
aF0.0
aF0.0
aa(lp62
F0.0
aF0.0
aF0.0
aF0.0
aF0.0
aF0.0
aF0.0
aa(lp63
F0.0
aF0.0
aF0.0
aF0.0
aF0.0
aF0.0
aF0.0
aa(lp64
F202.2131659725315
aF178.97695295818062
aF175.76891433891163
aF176.92748055276462
aF178.9701814466448
aF176.40239723665292
aF178.74934376753643
aa(lp65
F179.51119735205825
aF203.41026739728198
aF178.57117453825404
aF177.85645244122048
aF183.6485483181673
aF179.6139185846543
aF181.50265330248766
aa(lp66
F197.32768671337791
aF158.84890517346355
aF164.24894451040396
aF166.90543190664323
aF132.47807430375616
aF145.32523740307263
aF162.27803744757628
aa(lp67
F216.85319868255843
aF154.8434537040049
aF174.60728371173798
aF149.6575536840058
aF168.81960062014724
aF179.23717353892332
aF169.59297881405334
aa(lp68
F192.15701611973483
aF134.5792572133223
aF64.25850894671287
aF122.43341457594087
aF118.95060205033376
aF127.43084908586414
aF87.52820303322189
aa(lp69
F136.89951007132558
aF110.5690114792936
aF155.2340521680063
aF132.01437772068712
aF198.8574014306542
aF117.73720013989939
aF107.15619262810455
aa(lp70
F0.0
aF0.0
aF0.0
aF0.0
aF0.0
aF0.0
aF0.0
aa(lp71
F0.0
aF0.0
aF0.0
aF0.0
aF0.0
aF0.0
aF0.0
aa(lp72
F0.0
aF0.0
aF0.0
aF0.0
aF0.0
aF0.0
aF0.0
aa(lp73
F0.0
aF0.0
aF0.0
aF0.0
aF0.0
aF0.0
aF0.0
aa(lp74
F0.0
aF0.0
aF0.0
aF0.0
aF0.0
aF0.0
aF0.0
aa(lp75
F0.0
aF0.0
aF0.0
aF0.0
aF0.0
aF0.0
aF0.0
aa(lp76
F0.0
aF0.0
aF0.0
aF0.0
aF0.0
aF0.0
aF0.0
aa(lp77
F0.0
aF0.0
aF0.0
aF0.0
aF0.0
aF0.0
aF0.0
aa(lp78
F0.0
aF0.0
aF0.0
aF0.0
aF0.0
aF0.0
aF0.0
aa(lp79
F0.0
aF0.0
aF0.0
aF0.0
aF0.0
aF0.0
aF0.0
aa(lp80
F0.0
aF0.0
aF0.0
aF0.0
aF0.0
aF0.0
aF0.0
aa(lp81
F0.0
aF0.0
aF0.0
aF0.0
aF0.0
aF0.0
aF0.0
aa(lp82
F178.86840113829743
aF184.10160712289903
aF211.79572937773827
aF181.44192828820889
aF179.12835455237445
aF180.52567184669707
aF181.19553520777617
aa(lp83
F180.14026044891466
aF183.10406258822917
aF209.89238957592823
aF179.45214428145266
aF177.69699047555363
aF179.8213886974521
aF179.47530567685476
aa(lp84
F166.87011915385165
aF173.55406492327967
aF209.4250483842638
aF166.16749855976607
aF170.2042343762189
aF174.445423743852
aF170.7984017839073
aa(lp85
F181.19523383638506
aF180.9615802714582
aF182.45555361314308
aF181.27387858904447
aF208.94559432742687
aF179.98566393352567
aF180.84302835794756
aa(lp86
F180.36543452672828
aF181.2873463320919
aF179.2252272070666
aF173.6147651252461
aF179.09910083267366
aF175.7663834078727
aF205.97339360738556
aa(lp87
F83.47847554781274
aF34.876343477933204
aF184.79652288446783
aF112.75628352569602
aF73.37897327095465
aF114.89924912270195
aF61.21095643599163
aa(lp88
F175.2868228924168
aF167.79542067505636
aF200.57939076840273
aF171.90112273414263
aF174.29771045191367
aF168.81798334767623
aF174.611528899196
aa(lp89
F171.24153245007426
aF169.3487267862836
aF199.19132526475227
aF166.5495028261441
aF168.88642018723306
aF160.96481185855816
aF168.9114597626624
aa(lp90
F0.0
aF18.65566203611991
aF180.56395807641914
aF32.59955094508891
aF58.82076629468115
aF0.0
aF32.47973700686049
aa(lp91
F219.61399979024577
aF188.43237581103983
aF188.40781359656975
aF183.40456564155033
aF191.13915535679976
aF190.23984682242906
aF193.87283629702182
aa(lp92
F217.86475692011896
aF183.97248785402502
aF178.2224116308576
aF184.29470618052943
aF185.1596474624265
aF188.4575409505053
aF180.6764041300583
aa(lp93
F215.18000779807062
aF169.7034308690544
aF156.0113982624474
aF110.89922473960394
aF146.2388884763157
aF152.16356674206125
aF157.99259162084644
aa(lp94
F218.1252364500025
aF186.59878749807007
aF190.12901088038905
aF194.3703815436116
aF186.42884444960828
aF188.8548883608132
aF188.7747160455817
aa(lp95
F213.95938193759116
aF192.5978998644674
aF186.42166930749417
aF185.97047939550077
aF189.332731143579
aF190.38033462297096
aF183.81741100955753
aa(lp96
F49.532609233918635
aF34.492433948660306
aF35.07496036713816
aF0.0
aF191.3054571830063
aF9.43698398828142
aF0.0
aa(lp97
F206.11356438642093
aF176.22185816093972
aF176.6311039299373
aF179.3117049421129
aF177.23068455183792
aF181.41395880426953
aF177.9345429124712
aa(lp98
F203.14748767369514
aF138.37910209832413
aF151.036784426349
aF162.40362618780802
aF151.85087555074904
aF155.94870318085145
aF158.2823052745828
aa(lp99
F31.985332833889235
aF38.77582899439724
aF96.90019251669246
aF149.25914197134225
aF48.17317007552336
aF92.53718572235401
aF58.9700362392223
aa(lp100
F0.0
aF0.0
aF0.0
aF0.0
aF0.0
aF0.0
aF0.0
aa(lp101
F0.0
aF0.0
aF0.0
aF0.0
aF0.0
aF0.0
aF0.0
aa(lp102
F0.0
aF0.0
aF0.0
aF0.0
aF0.0
aF0.0
aF0.0
aa(lp103
F0.0
aF0.0
aF0.0
aF0.0
aF0.0
aF0.0
aF0.0
aa(lp104
F0.0
aF0.0
aF0.0
aF0.0
aF0.0
aF0.0
aF0.0
aa(lp105
F0.0
aF0.0
aF0.0
aF0.0
aF0.0
aF0.0
aF0.0
aa(lp106
F0.0
aF0.0
aF0.0
aF0.0
aF0.0
aF0.0
aF0.0
aa(lp107
F0.0
aF0.0
aF0.0
aF0.0
aF0.0
aF0.0
aF0.0
aa(lp108
F0.0
aF0.0
aF0.0
aF0.0
aF0.0
aF0.0
aF0.0
aa(lp109
F182.62179929688165
aF180.6383602853569
aF210.28544674068522
aF182.07814841022594
aF177.48188871889565
aF180.75399323804282
aF177.72445973995366
aa(lp110
F181.53933612230216
aF177.53092815895218
aF211.87234369426702
aF178.5357630732595
aF179.77743156283944
aF175.25377148457767
aF175.31434998748767
aa(lp111
F72.52318023300553
aF95.92443403913178
aF207.7203851662744
aF151.42751393456317
aF70.26887344950603
aF97.19291053826352
aF101.47125062225074
aa(lp112
F178.79855051423812
aF178.1395574522949
aF211.51059346190357
aF175.14365034785203
aF174.37663358283277
aF173.14659601355413
aF179.71219224560548
aa(lp113
F162.15510526369474
aF136.28784032381455
aF156.9143486705427
aF160.51037969798395
aF168.39147264715726
aF164.96173145477553
aF198.7645276157241
aa(lp114
F88.05272060446242
aF88.66066346126755
aF19.382703063249114
aF80.47327924417104
aF159.3570128956236
aF95.37999613426149
aF65.21560470168953
aa(lp115
F146.08366478764168
aF135.58465474525616
aF194.8230491211104
aF151.83883233220305
aF125.13325422476385
aF152.03324486393433
aF151.34380473001315
aa(lp116
F34.526898211600795
aF46.490185538743305
aF72.78101169745885
aF195.94412211555138
aF33.67251376487253
aF19.453852964127424
aF48.14434732144501
aa(lp117
F34.517972580502345
aF73.6075455544305
aF72.8298949435252
aF184.9650843254851
aF59.46211198575996
aF92.17813464207688
aF20.64535248149951
aa(lp118
F218.50087699531093
aF184.1130744637628
aF189.63599677804245
aF192.21821148613571
aF183.24005073529983
aF188.70571805706578
aF189.10811613051135
aa(lp119
F216.84965723701083
aF184.0935186529751
aF181.04682816922278
aF181.10424858816464
aF181.70925859201884
aF184.13501100509353
aF181.61556883209877
aa(lp120
F152.23259985339743
aF154.6686403652709
aF214.1604766468439
aF158.8409278942266
aF147.1411793954563
aF167.92014633967335
aF177.45927596139205
aa(lp121
F216.38715156331176
aF186.8415886993606
aF190.92555940253675
aF186.72854496412367
aF193.13874417215055
aF184.59488411759062
aF182.64140946574045
aa(lp122
F197.8726665769179
aF109.32727992321549
aF98.84815311925723
aF97.97777222957893
aF108.00600435340496
aF148.20937916841783
aF161.31523428406283
aa(lp123
F115.83085175946128
aF69.84017674823446
aF200.3090724252548
aF61.33942873517016
aF115.3062859660876
aF117.84537317210366
aF110.27537878425916
aa(lp124
F196.48808912968923
aF131.5392684466193
aF114.61529554106414
aF115.65245570256648
aF136.01411256062948
aF142.13497048270406
aF143.80944256242418
aa(lp125
F36.46870889356143
aF72.69679125391959
aF194.38653701687358
aF18.717199448213908
aF29.043176700283134
aF0.0
aF-0.5
aa(lp126
F195.97489556698366
aF18.28706442858002
aF0.0
aF50.32852990992137
aF50.562445022440535
aF19.002030917239207
aF49.50583810277138
aa(lp127
F0.0
aF0.0
aF0.0
aF0.0
aF0.0
aF0.0
aF0.0
aa(lp128
F0.0
aF0.0
aF0.0
aF0.0
aF0.0
aF0.0
aF0.0
aa(lp129
F0.0
aF0.0
aF0.0
aF0.0
aF0.0
aF0.0
aF0.0
aa(lp130
F0.0
aF0.0
aF0.0
aF0.0
aF0.0
aF0.0
aF0.0
aa(lp131
F0.0
aF0.0
aF0.0
aF0.0
aF0.0
aF0.0
aF0.0
aa(lp132
F0.0
aF0.0
aF0.0
aF0.0
aF0.0
aF0.0
aF0.0
aa(lp133
F0.0
aF0.0
aF0.0
aF0.0
aF0.0
aF0.0
aF0.0
aa(lp134
F0.0
aF0.0
aF0.0
aF0.0
aF0.0
aF0.0
aF0.0
aa(lp135
F0.0
aF0.0
aF0.0
aF0.0
aF0.0
aF0.0
aF0.0
aa(lp136
F180.48060164419684
aF173.57422194060405
aF203.78305501482504
aF172.5135587966004
aF179.20312947167582
aF181.75521481025316
aF178.8040324262497
aa(lp137
F160.1923645950365
aF197.21406627356166
aF161.25768112643385
aF125.08752150829832
aF165.88603488976264
aF171.4876342612124
aF165.66487041103017
aa(lp138
F119.02453694927152
aF108.5268058743336
aF198.52937500176265
aF120.66262424238936
aF121.55278616874791
aF133.00753924560442
aF119.72386076140465
aa(lp139
F180.4126293872166
aF161.76565217570396
aF179.18588582201545
aF167.94412552441827
aF209.72696899776076
aF178.39287282938932
aF177.65925227161824
aa(lp140
F88.83478066668202
aF189.37192770228216
aF49.66511814197313
aF93.33392425855875
aF75.92257139621893
aF56.1874843809432
aF94.31719896303503
aa(lp141
F12.479111169479964
aF31.84458678516303
aF176.20308884578589
aF-0.5
aF4.255061856371322
aF33.463484568558506
aF1.3892494461709186
aa(lp142
F0.0
aF0.0
aF0.0
aF0.0
aF0.0
aF0.0
aF0.0
aa(lp143
F0.0
aF0.0
aF0.0
aF0.0
aF0.0
aF0.0
aF0.0
aa(lp144
F0.0
aF0.0
aF0.0
aF0.0
aF0.0
aF0.0
aF0.0
aa(lp145
F213.3162131551685
aF183.21055720204924
aF183.0586554797688
aF180.5898452400031
aF187.1084100929217
aF181.9577261283427
aF185.61524194780486
aa(lp146
F204.1811817999955
aF133.5919107880958
aF109.86298421275654
aF167.18965815012086
aF128.3364889050513
aF132.82938242125243
aF135.61252760529644
aa(lp147
F203.8262223692316
aF36.84051923902705
aF80.41464062355212
aF50.12089380749072
aF77.52369681588733
aF81.22362520576537
aF38.26298960467529
aa(lp148
F218.8551100531667
aF159.14246639692178
aF148.85812124926628
aF160.17342948945512
aF156.84747575794938
aF154.0715099349343
aF175.16114000506917
aa(lp149
F199.58813514121323
aF77.43427953337316
aF80.74352942503307
aF53.593935965861505
aF67.3886666839972
aF47.3187094871296
aF35.286161250856836
aa(lp150
F0.0
aF0.0
aF0.0
aF0.0
aF199.7002294113197
aF19.31526181985627
aF17.779607881995528
aa(lp151
F0.0
aF0.0
aF0.0
aF0.0
aF0.0
aF0.0
aF0.0
aa(lp152
F0.0
aF0.0
aF0.0
aF0.0
aF0.0
aF0.0
aF0.0
aa(lp153
F0.0
aF0.0
aF0.0
aF0.0
aF0.0
aF0.0
aF0.0
aa(lp154
F0.0
aF0.0
aF0.0
aF0.0
aF0.0
aF0.0
aF0.0
aa(lp155
F0.0
aF0.0
aF0.0
aF0.0
aF0.0
aF0.0
aF0.0
aa(lp156
F0.0
aF0.0
aF0.0
aF0.0
aF0.0
aF0.0
aF0.0
aa(lp157
F0.0
aF0.0
aF0.0
aF0.0
aF0.0
aF0.0
aF0.0
aa(lp158
F0.0
aF0.0
aF0.0
aF0.0
aF0.0
aF0.0
aF0.0
aa(lp159
F0.0
aF0.0
aF0.0
aF0.0
aF0.0
aF0.0
aF0.0
aa(lp160
F0.0
aF0.0
aF0.0
aF0.0
aF0.0
aF0.0
aF0.0
aa(lp161
F0.0
aF0.0
aF0.0
aF0.0
aF0.0
aF0.0
aF0.0
aa(lp162
F0.0
aF0.0
aF0.0
aF0.0
aF0.0
aF0.0
aF0.0
aa(lp163
F174.9997208032112
aF174.20149315294668
aF171.54216093653474
aF172.58111381206984
aF195.61396806010896
aF176.84257003649844
aF172.32332026532214
aa(lp164
F174.00796036619914
aF207.78766935341775
aF167.44967965833763
aF168.65210453664963
aF173.53355195856335
aF169.87912685329417
aF168.330317588439
aa(lp165
F0.0
aF0.0
aF0.0
aF0.0
aF0.0
aF0.0
aF0.0
aa(lp166
F180.0036246393008
aF181.41734022093448
aF177.37397515361167
aF178.07166237528105
aF206.31743284409043
aF179.93340013244662
aF179.49149820377937
aa(lp167
F157.1596708267337
aF209.79933403056822
aF139.57709920438154
aF166.2121506438082
aF156.08846534086877
aF168.87337710277328
aF153.62772186075586
aa(lp168
F0.0
aF0.0
aF0.0
aF0.0
aF0.0
aF0.0
aF0.0
aa(lp169
F165.91815923608664
aF195.88936556667903
aF168.7871983230013
aF164.736699078491
aF170.97421158357542
aF169.68689752662115
aF167.3247325239144
aa(lp170
F88.71857236231082
aF200.83799159105516
aF93.59286310165346
aF33.14194029576966
aF83.19837525904914
aF32.92916901868783
aF88.99456525278741
aa(lp171
F0.0
aF0.0
aF0.0
aF0.0
aF0.0
aF0.0
aF0.0
aa(lp172
F202.60628811877748
aF176.9308530555809
aF177.80866996355624
aF178.16521795692816
aF178.21327096333013
aF179.55086021681518
aF180.48626677319342
aa(lp173
F184.47044846431277
aF215.12252499633496
aF167.36275812021213
aF146.49048136707214
aF163.13123217499705
aF171.0505977233295
aF165.07577962871287
aa(lp174
F0.0
aF0.0
aF0.0
aF0.0
aF0.0
aF0.0
aF0.0
aa(lp175
F215.4051067472515
aF187.9865530318362
aF181.98017951327387
aF179.88537372522978
aF183.32100666450435
aF187.4062065694626
aF184.04409225530742
aa(lp176
F181.92021067385195
aF214.30130870854694
aF159.91967295721008
aF137.65375042682516
aF159.3469492876438
aF157.92640373767176
aF177.01780857497255
aa(lp177
F0.0
aF0.0
aF0.0
aF0.0
aF0.0
aF0.0
aF0.0
aa(lp178
F201.76816995914865
aF168.37614870817376
aF165.73687520719793
aF166.57995895596937
aF168.3776559742232
aF171.19724888738267
aF172.1261630553252
aa(lp179
F205.61799030654987
aF21.831301436492815
aF65.96147314995952
aF72.91793716804924
aF36.20233569147601
aF52.52088115082754
aF18.427600423452414
aa(lp180
F0.0
aF0.0
aF0.0
aF0.0
aF0.0
aF0.0
aF0.0
aa(lp181
F0.0
aF0.0
aF0.0
aF0.0
aF0.0
aF0.0
aF0.0
aa(lp182
F0.0
aF0.0
aF0.0
aF0.0
aF0.0
aF0.0
aF0.0
aa(lp183
F0.0
aF0.0
aF0.0
aF0.0
aF0.0
aF0.0
aF0.0
aa(lp184
F0.0
aF0.0
aF0.0
aF0.0
aF0.0
aF0.0
aF0.0
aa(lp185
F0.0
aF0.0
aF0.0
aF0.0
aF0.0
aF0.0
aF0.0
aa(lp186
F0.0
aF0.0
aF0.0
aF0.0
aF0.0
aF0.0
aF0.0
aa(lp187
F0.0
aF0.0
aF0.0
aF0.0
aF0.0
aF0.0
aF0.0
aa(lp188
F0.0
aF0.0
aF0.0
aF0.0
aF0.0
aF0.0
aF0.0
aa(lp189
F0.0
aF0.0
aF0.0
aF0.0
aF0.0
aF0.0
aF0.0
aa(lp190
F174.3607992853331
aF171.93524301102525
aF177.88693985621143
aF200.69409611552743
aF170.15087715174326
aF173.83077869470074
aF172.3544951697878
aa(lp191
F84.45771426254234
aF33.78317882476399
aF90.47387801747524
aF180.87551931700438
aF32.11873398480969
aF33.4535076066672
aF49.106912734948324
aa(lp192
F0.0
aF0.0
aF0.0
aF0.0
aF0.0
aF0.0
aF0.0
aa(lp193
F171.63225423651778
aF171.66604002762622
aF167.25626077087733
aF171.29181708144904
aF171.37372055970587
aF169.29652419959518
aF196.72789985383383
aa(lp194
F17.712360829897946
aF188.14731003524966
aF79.14355530963977
aF42.886283047496846
aF33.71403945809649
aF81.56957617931289
aF17.08991920111801
aa(lp195
F0.0
aF0.0
aF0.0
aF0.0
aF0.0
aF0.0
aF0.0
aa(lp196
F84.30864434328993
aF182.28668749328568
aF109.25505859128529
aF131.15895170083456
aF112.28964447470632
aF110.29684015491097
aF85.88300991136224
aa(lp197
F0.0
aF35.30908734077706
aF17.82587393778138
aF18.774736613421855
aF15.44610298787402
aF0.0
aF183.60207236750495
aa(lp198
F0.0
aF0.0
aF0.0
aF0.0
aF0.0
aF0.0
aF0.0
aa(lp199
F205.93317864359398
aF183.77437109436443
aF182.35029795924513
aF184.00798100185216
aF183.47207504065727
aF179.521406060203
aF184.77305747569676
aa(lp200
F14.989285429134211
aF65.09925445868926
aF17.258425835369557
aF202.05210404738818
aF98.1672255021405
aF96.45968635599448
aF52.89855912957663
aa(lp201
F0.0
aF0.0
aF0.0
aF0.0
aF0.0
aF0.0
aF0.0
aa(lp202
F200.73977999874114
aF119.00829187511421
aF150.94070386251934
aF140.25152195513004
aF145.1445408224454
aF151.31550580638955
aF164.3511174122924
aa(lp203
F33.67550242166329
aF47.05873713539263
aF46.85108966794137
aF197.63166568705338
aF27.158604204396358
aF26.54120247387835
aF51.35702309651212
aa(lp204
F0.0
aF0.0
aF0.0
aF0.0
aF0.0
aF0.0
aF0.0
aa(lp205
F188.64174411840156
aF146.071051484174
aF127.85078091055203
aF159.72956793774821
aF105.42382810398965
aF145.54047821791292
aF116.02900345268858
aa(lp206
F189.35325202356614
aF0.0
aF0.0
aF0.0
aF0.0
aF0.0
aF0.0
aa(lp207
F0.0
aF0.0
aF0.0
aF0.0
aF0.0
aF0.0
aF0.0
aa(lp208
F0.0
aF0.0
aF0.0
aF0.0
aF0.0
aF0.0
aF0.0
aa(lp209
F0.0
aF0.0
aF0.0
aF0.0
aF0.0
aF0.0
aF0.0
aa(lp210
F0.0
aF0.0
aF0.0
aF0.0
aF0.0
aF0.0
aF0.0
aa(lp211
F0.0
aF0.0
aF0.0
aF0.0
aF0.0
aF0.0
aF0.0
aa(lp212
F0.0
aF0.0
aF0.0
aF0.0
aF0.0
aF0.0
aF0.0
aa(lp213
F0.0
aF0.0
aF0.0
aF0.0
aF0.0
aF0.0
aF0.0
aa(lp214
F0.0
aF0.0
aF0.0
aF0.0
aF0.0
aF0.0
aF0.0
aa(lp215
F0.0
aF0.0
aF0.0
aF0.0
aF0.0
aF0.0
aF0.0
aa(lp216
F0.0
aF0.0
aF0.0
aF0.0
aF0.0
aF0.0
aF0.0
aa(lp217
F162.83548796300383
aF169.83255980931466
aF166.78566765918103
aF164.22867591823376
aF193.88322588549897
aF168.41735434509891
aF169.44268853768887
aa(lp218
F-0.1
aF63.185827931946406
aF30.93631915309372
aF0.0
aF17.278489606356427
aF45.34365923064969
aF186.28580709703058
aa(lp219
F0.0
aF0.0
aF0.0
aF0.0
aF0.0
aF0.0
aF0.0
aa(lp220
F102.0573117981042
aF73.97970171384296
aF45.923170709642136
aF112.12031518824452
aF202.87033062597266
aF105.27903822170667
aF105.59886077794911
aa(lp221
F-0.1
aF201.25054134806686
aF16.90202290662529
aF34.83463491584649
aF19.82642393829238
aF32.68108228428334
aF32.14926859394338
aa(lp222
F0.0
aF0.0
aF0.0
aF0.0
aF0.0
aF0.0
aF0.0
aa(lp223
F0.0
aF0.0
aF0.0
aF0.0
aF0.0
aF0.0
aF0.0
aa(lp224
F0.0
aF0.0
aF0.0
aF0.0
aF0.0
aF0.0
aF0.0
aa(lp225
F0.0
aF0.0
aF0.0
aF0.0
aF0.0
aF0.0
aF0.0
aa(lp226
F198.81271089758357
aF78.44510455198797
aF58.95353945769457
aF123.98486176046171
aF114.20995671913818
aF121.80797630043563
aF135.39802407805274
aa(lp227
F46.9870779103163
aF199.08384725742005
aF21.118496469712706
aF-0.5
aF33.40696806366094
aF33.59640219710783
aF-0.5
aa(lp228
F0.0
aF0.0
aF0.0
aF0.0
aF0.0
aF0.0
aF0.0
aa(lp229
F206.02347278983103
aF97.92015588964
aF69.87099356142664
aF62.621273201420806
aF56.364005560939894
aF74.45691626915514
aF50.64290405280795
aa(lp230
F210.44778815016863
aF18.224313766558986
aF34.86824927867971
aF36.3847252970789
aF0.0
aF0.0
aF18.86740703616577
aa(lp231
F0.0
aF0.0
aF0.0
aF0.0
aF0.0
aF0.0
aF0.0
aa(lp232
F0.0
aF0.0
aF0.0
aF0.0
aF0.0
aF0.0
aF0.0
aa(lp233
F0.0
aF0.0
aF0.0
aF0.0
aF0.0
aF0.0
aF0.0
aa(lp234
F0.0
aF0.0
aF0.0
aF0.0
aF0.0
aF0.0
aF0.0
aa(lp235
F0.0
aF0.0
aF0.0
aF0.0
aF0.0
aF0.0
aF0.0
aa(lp236
F0.0
aF0.0
aF0.0
aF0.0
aF0.0
aF0.0
aF0.0
aa(lp237
F0.0
aF0.0
aF0.0
aF0.0
aF0.0
aF0.0
aF0.0
aa(lp238
F0.0
aF0.0
aF0.0
aF0.0
aF0.0
aF0.0
aF0.0
aa(lp239
F0.0
aF0.0
aF0.0
aF0.0
aF0.0
aF0.0
aF0.0
aa(lp240
F0.0
aF0.0
aF0.0
aF0.0
aF0.0
aF0.0
aF0.0
aa(lp241
F0.0
aF0.0
aF0.0
aF0.0
aF0.0
aF0.0
aF0.0
aa(lp242
F0.0
aF0.0
aF0.0
aF0.0
aF0.0
aF0.0
aF0.0
aa(lp243
F0.0
aF0.0
aF0.0
aF0.0
aF0.0
aF0.0
aF0.0
aa.