(lp0
(lp1
F163.54146587378574
aF164.492333050068
aF161.57287486551573
aF162.14308643318807
aF163.71305804537715
aF164.16222708912528
aF170.50145401892942
aa(lp2
F171.55337484210938
aF186.81166965695442
aF171.42223038161805
aF171.12239092658004
aF171.65098989901628
aF171.62286830808313
aF170.96071903616112
aa(lp3
F160.45596888152323
aF159.6730632067544
aF171.8789904535132
aF159.69259081311324
aF159.61539783652375
aF159.63259469964547
aF159.5069657265138
aa(lp4
F172.22350533249713
aF171.40498700002883
aF171.2108067101826
aF171.13429098061033
aF190.65226672645764
aF171.3165412957915
aF170.43858142809285
aa(lp5
F174.174069427878
aF186.74877716812802
aF173.01375405341122
aF172.59451529139153
aF173.4945686852714
aF174.46931946798875
aF172.85044287139283
aa(lp6
F164.23750369221034
aF161.9599832320583
aF162.07442078925132
aF162.13694269161584
aF176.01043245973432
aF162.12636892856898
aF161.8826467831734
aa(lp7
F158.64301674126975
aF158.2939669497288
aF158.73472578192872
aF172.09716495447773
aF159.66163017722064
aF159.25353733336252
aF158.5004254613084
aa(lp8
F165.2985923215761
aF177.52742228711224
aF169.37195692563216
aF167.66703827834257
aF167.49022184054292
aF171.42117474878322
aF168.1544456541239
aa(lp9
F74.98700616787373
aF86.85805147226101
aF82.71510687738896
aF117.74739229641294
aF80.59911114609527
aF75.77282098278901
aF162.56973444567194
aa(lp10
F182.61915221379786
aF171.6438024641425
aF173.15085542344838
aF172.32888339467235
aF173.01861067696208
aF171.65276984995464
aF171.70753721308273
aa(lp11
F195.74512627965123
aF183.1037643465655
aF182.28070848988943
aF183.61498562012338
aF182.7240916869217
aF183.25890450098098
aF182.7341773176216
aa(lp12
F182.0448385715927
aF169.83080716517964
aF171.91349253049674
aF171.95330782696493
aF171.81469771759146
aF171.92896255085427
aF171.88877652068084
aa(lp13
F197.43070936546673
aF182.25544867418287
aF182.08456356433453
aF182.5237104463655
aF182.5793881584971
aF183.45010328179646
aF182.69665981382244
aa(lp14
F194.36856342387975
aF185.68623049535967
aF184.45907891950682
aF184.9688794241586
aF184.98715733282378
aF185.1989688683439
aF184.52510253790982
aa(lp15
F176.27530255278236
aF177.42825304601672
aF176.984659437091
aF177.55657423849314
aF183.3668083128588
aF175.40801388382397
aF176.73572885153715
aa(lp16
F180.895607848409
aF165.46815415980728
aF171.7278434634053
aF171.707791971776
aF166.82108539140552
aF171.62520581747748
aF168.671474250187
aa(lp17
F183.90597999522265
aF175.7936956789426
aF174.12525884657833
aF175.72020868845374
aF173.41636538869832
aF176.89824043141414
aF173.6881240837145
aa(lp18
F169.1879609080719
aF163.68539481131003
aF162.11975675051897
aF162.0972307477018
aF161.94067355747265
aF164.39388486410314
aF164.4936725860225
aa(lp19
F0.0
aF0.0
aF0.0
aF0.0
aF0.0
aF0.0
aF0.0
aa(lp20
F0.0
aF0.0
aF0.0
aF0.0
aF0.0
aF0.0
aF0.0
aa(lp21
F0.0
aF0.0
aF0.0
aF0.0
aF0.0
aF0.0
aF0.0
aa(lp22
F0.0
aF0.0
aF0.0
aF0.0
aF0.0
aF0.0
aF0.0
aa(lp23
F0.0
aF0.0
aF0.0
aF0.0
aF0.0
aF0.0
aF0.0
aa(lp24
F0.0
aF0.0
aF0.0
aF0.0
aF0.0
aF0.0
aF0.0
aa(lp25
F0.0
aF0.0
aF0.0
aF0.0
aF0.0
aF0.0
aF0.0
aa(lp26
F0.0
aF0.0
aF0.0
aF0.0
aF0.0
aF0.0
aF0.0
aa(lp27
F0.0
aF0.0
aF0.0
aF0.0
aF0.0
aF0.0
aF0.0
aa(lp28
F172.24516315200717
aF171.7135839974263
aF170.71127988972424
aF188.07757359832618
aF171.38442205149326
aF171.50659480674142
aF171.30204517067233
aa(lp29
F173.53207613083458
aF173.69332513539317
aF173.02407861735037
aF187.5727028392302
aF172.29009501437696
aF174.56072670795427
aF172.73083623498334
aa(lp30
F171.49145954509356
aF170.71037852843764
aF170.66012834862977
aF178.6765047351876
aF170.95627461331395
aF172.3460393562001
aF172.04917075922924
aa(lp31
F168.3492690247568
aF169.23011372204707
aF168.53728763074446
aF171.10318996896314
aF178.2032938354957
aF168.42874232985278
aF170.8637537682076
aa(lp32
F174.4869712667991
aF174.6219421569817
aF174.08258576738444
aF187.16058271081266
aF174.68824860695574
aF174.70923655222245
aF174.0807487966772
aa(lp33
F168.3041383709061
aF169.0201609220435
aF171.04957330362123
aF176.15302829621226
aF169.25590679494945
aF167.70333614235952
aF167.61461673083335
aa(lp34
F167.03125102904735
aF167.96692854758447
aF165.68794195522634
aF180.35628114459786
aF167.93308411427404
aF171.92265610158134
aF168.7372229184117
aa(lp35
F114.61528334346634
aF183.07691504544806
aF70.22828806506975
aF124.49660578593323
aF79.2370098238263
aF128.93489375333294
aF118.99777328830204
aa(lp36
F117.90636359166972
aF126.84073539197021
aF164.5864039841611
aF143.10166128313256
aF100.71365507188102
aF125.51694756443652
aF129.16903594295928
aa(lp37
F196.1636901661241
aF178.757626439785
aF182.26527157868665
aF182.4931848254018
aF181.48452617855344
aF183.06412468039758
aF181.60805435222775
aa(lp38
F195.19753310862484
aF184.19708438305577
aF183.52416485467353
aF183.88469946996827
aF180.8873528726603
aF184.1053733032483
aF184.24453791000968
aa(lp39
F185.99432163363377
aF178.8940218367146
aF177.08832814655216
aF178.0081291513743
aF178.960794674135
aF181.83856364008523
aF177.56886750185606
aa(lp40
F179.5316441501502
aF179.37023918919752
aF179.060631013204
aF179.44223516561104
aF179.45638575820362
aF179.42410902582134
aF185.6886254853033
aa(lp41
F191.88407694980518
aF184.48587023786152
aF180.7681673741357
aF183.48608915985457
aF182.50730678249337
aF186.28559344343023
aF184.44326422486114
aa(lp42
F182.7200426736019
aF180.84937919447148
aF180.36535602131545
aF180.56660137745428
aF181.9066270874563
aF179.11012507719067
aF179.11753151165553
aa(lp43
F184.71752903203918
aF129.57905025158374
aF147.20979068177508
aF162.32114929624376
aF172.92221558474185
aF167.71777170274532
aF151.1682610425697
aa(lp44
F138.1812980477856
aF137.68723987406528
aF118.48770547812354
aF180.24719932138746
aF142.0107122512832
aF127.5933647127805
aF150.7733126189046
aa(lp45
F182.8518856352057
aF62.14462788041149
aF34.052937138122346
aF26.08842859987189
aF36.530416652201865
aF49.044574216214926
aF106.42245722395059
aa(lp46
F0.0
aF0.0
aF0.0
aF0.0
aF0.0
aF0.0
aF0.0
aa(lp47
F0.0
aF0.0
aF0.0
aF0.0
aF0.0
aF0.0
aF0.0
aa(lp48
F0.0
aF0.0
aF0.0
aF0.0
aF0.0
aF0.0
aF0.0
aa(lp49
F0.0
aF0.0
aF0.0
aF0.0
aF0.0
aF0.0
aF0.0
aa(lp50
F0.0
aF0.0
aF0.0
aF0.0
aF0.0
aF0.0
aF0.0
aa(lp51
F0.0
aF0.0
aF0.0
aF0.0
aF0.0
aF0.0
aF0.0
aa(lp52
F0.0
aF0.0
aF0.0
aF0.0
aF0.0
aF0.0
aF0.0
aa(lp53
F0.0
aF0.0
aF0.0
aF0.0
aF0.0
aF0.0
aF0.0
aa(lp54
F0.0
aF0.0
aF0.0
aF0.0
aF0.0
aF0.0
aF0.0
aa(lp55
F160.27397310029824
aF160.16586473533633
aF160.19987802166503
aF159.8978166868471
aF172.46934439003576
aF160.25503537112223
aF160.16037504196274
aa(lp56
F164.78806462223645
aF184.81097250591185
aF164.31413035315452
aF165.98983802452142
aF164.05122751870266
aF169.05777029253622
aF163.4191744322223
aa(lp57
F158.02732434568497
aF156.35088163151497
aF158.8105410247843
aF154.28995092655975
aF169.52200977776425
aF159.66806070218442
aF159.05011795570658
aa(lp58
F167.1927650205965
aF165.29395277346592
aF164.8552063843673
aF170.55163330014108
aF186.3218170807827
aF171.30300636690407
aF165.5029869975144
aa(lp59
F133.88983112752243
aF185.67117784734035
aF148.854489367723
aF161.1899908462219
aF164.28669176665093
aF168.2472250602493
aF168.49592811993466
aa(lp60
F63.62268024539459
aF13.493403411658043
aF0.0
aF32.24000738746949
aF179.16490436067198
aF18.531324676708135
aF17.851257664763324
aa(lp61
F0.0
aF0.0
aF0.0
aF0.0
aF0.0
aF0.0
aF0.0
aa(lp62
F0.0
aF0.0
aF0.0
aF0.0
aF0.0
aF0.0
aF0.0
aa(lp63
F0.0
aF0.0
aF0.0
aF0.0
aF0.0
aF0.0
aF0.0
aa(lp64
F179.3812697108453
aF170.74384231681626
aF169.62004409761605
aF166.57984344893595
aF169.27972795128233
aF164.41511076493916
aF168.90900997100005
aa(lp65
F192.34142247303026
aF179.525327284492
aF179.1081307965656
aF176.24232357909625
aF176.89262435989707
aF176.87278669743708
aF176.85690471514292
aa(lp66
F173.97744628612907
aF158.84890517346355
aF165.54891036048102
aF166.54864004848858
aF142.396925089217
aF145.32523740307263
aF163.71557389249313
aa(lp67
F188.8937438571594
aF163.97225127129985
aF174.60728371173798
aF169.4802688241797
aF168.81960062014724
aF177.80828476672585
aF172.063933987435
aa(lp68
F193.52455225508484
aF134.5792572133223
aF64.25850894671287
aF129.1856470625712
aF118.95060205033376
aF145.4015483496925
aF97.92813897137796
aa(lp69
F136.89951007132558
aF118.48695802901068
aF158.2969981422899
aF132.01437772068712
aF187.67551903195317
aF135.81943625232373
aF107.15619262810455
aa(lp70
F0.0
aF0.0
aF0.0
aF0.0
aF0.0
aF0.0
aF0.0
aa(lp71
F0.0
aF0.0
aF0.0
aF0.0
aF0.0
aF0.0
aF0.0
aa(lp72
F0.0
aF0.0
aF0.0
aF0.0
aF0.0
aF0.0
aF0.0
aa(lp73
F0.0
aF0.0
aF0.0
aF0.0
aF0.0
aF0.0
aF0.0
aa(lp74
F0.0
aF0.0
aF0.0
aF0.0
aF0.0
aF0.0
aF0.0
aa(lp75
F0.0
aF0.0
aF0.0
aF0.0
aF0.0
aF0.0
aF0.0
aa(lp76
F0.0
aF0.0
aF0.0
aF0.0
aF0.0
aF0.0
aF0.0
aa(lp77
F0.0
aF0.0
aF0.0
aF0.0
aF0.0
aF0.0
aF0.0
aa(lp78
F0.0
aF0.0
aF0.0
aF0.0
aF0.0
aF0.0
aF0.0
aa(lp79
F0.0
aF0.0
aF0.0
aF0.0
aF0.0
aF0.0
aF0.0
aa(lp80
F0.0
aF0.0
aF0.0
aF0.0
aF0.0
aF0.0
aF0.0
aa(lp81
F0.0
aF0.0
aF0.0
aF0.0
aF0.0
aF0.0
aF0.0
aa(lp82
F172.5631189685478
aF171.22437786084626
aF187.60805604067968
aF170.74557022475548
aF171.42749444473645
aF172.91253376312918
aF171.42990202314328
aa(lp83
F172.77556465313614
aF186.7747919302101
aF172.62771371615753
aF167.67618002341266
aF172.06958467343338
aF172.62596702673238
aF170.66686251347232
aa(lp84
F167.40326689138604
aF168.24731884496504
aF178.03935605449809
aF167.1232378390908
aF166.05254381526274
aF167.94471394122723
aF166.47049715722005
aa(lp85
F174.3077264295538
aF173.02362917060674
aF188.98342620117987
aF171.40423472623297
aF174.12250156941707
aF174.19740426594174
aF174.15919546139756
aa(lp86
F173.5818559753008
aF173.5219971217928
aF173.7244589878694
aF172.14779091531983
aF173.69644169574792
aF172.23411696282147
aF181.43663703379084
aa(lp87
F83.47847554781274
aF49.637536357113824
aF177.66146183049648
aF118.78288043954461
aF73.37897327095465
aF114.89924912270195
aF61.21095643599163
aa(lp88
F164.75434596909395
aF167.25310899548052
aF180.1230863736775
aF164.89997890594626
aF168.71124677594338
aF167.87036473375016
aF167.04472733765198
aa(lp89
F166.1340638507125
aF176.02468616924557
aF166.34830760040902
aF166.1458293625148
aF166.21488515012848
aF165.2073684087482
aF166.1696182082061
aa(lp90
F0.0
aF18.65566203611991
aF179.61333539969237
aF32.59955094508891
aF58.82076629468115
aF0.0
aF32.47973700686049
aa(lp91
F196.92510266042967
aF183.7140829821462
aF183.77565354950917
aF183.68990768739556
aF183.021974314106
aF183.67468686036824
aF183.5262688517812
aa(lp92
F193.728752833035
aF183.44414887743469
aF180.92408563243802
aF180.914090775857
aF181.29191798202794
aF181.89422747402324
aF181.65560171374548
aa(lp93
F183.4393144373306
aF173.36187750972644
aF168.4926591011766
aF125.12980744903248
aF149.32260570091162
aF162.9302010368014
aF158.51310906705217
aa(lp94
F195.83172863565238
aF184.00988877390023
aF185.1104022129653
aF184.62895396516373
aF185.1212961410536
aF185.10005427966706
aF182.54878511339808
aa(lp95
F185.43141244493356
aF184.52351242263262
aF188.15944303410956
aF183.97755197346135
aF184.45409065516094
aF184.98649423387633
aF185.2706354654601
aa(lp96
F49.532609233918635
aF34.492433948660306
aF49.80213679120839
aF0.0
aF189.38651201055353
aF9.43698398828142
aF0.0
aa(lp97
F189.5766979135675
aF174.69954490472944
aF175.34269570449072
aF175.56244065961488
aF177.33377465544356
aF175.62529244633444
aF176.35225147865128
aa(lp98
F188.13789376553515
aF138.37910209832413
aF158.4760503298679
aF167.97848717162864
aF162.11375860029366
aF155.94870318085145
aF159.20653344377243
aa(lp99
F61.444031457887206
aF70.50994967572063
aF96.90019251669246
aF158.21978015149716
aF48.17317007552336
aF92.53718572235401
aF67.59871069508415
aa(lp100
F0.0
aF0.0
aF0.0
aF0.0
aF0.0
aF0.0
aF0.0
aa(lp101
F0.0
aF0.0
aF0.0
aF0.0
aF0.0
aF0.0
aF0.0
aa(lp102
F0.0
aF0.0
aF0.0
aF0.0
aF0.0
aF0.0
aF0.0
aa(lp103
F0.0
aF0.0
aF0.0
aF0.0
aF0.0
aF0.0
aF0.0
aa(lp104
F0.0
aF0.0
aF0.0
aF0.0
aF0.0
aF0.0
aF0.0
aa(lp105
F0.0
aF0.0
aF0.0
aF0.0
aF0.0
aF0.0
aF0.0
aa(lp106
F0.0
aF0.0
aF0.0
aF0.0
aF0.0
aF0.0
aF0.0
aa(lp107
F0.0
aF0.0
aF0.0
aF0.0
aF0.0
aF0.0
aF0.0
aa(lp108
F0.0
aF0.0
aF0.0
aF0.0
aF0.0
aF0.0
aF0.0
aa(lp109
F169.6323168152884
aF171.69120532280385
aF172.90262808114372
aF191.2313233569213
aF171.7664938747387
aF172.9494992669903
aF171.9416106572671
aa(lp110
F173.8067647886
aF173.27030980446978
aF184.76093145044214
aF170.72184213589583
aF170.665133752551
aF173.361644010074
aF171.72541834624604
aa(lp111
F83.87267535600333
aF95.92443403913178
aF174.9979887546397
aF151.42751393456317
aF88.99546072199485
aF109.35070850434074
aF101.47125062225074
aa(lp112
F170.58799710513733
aF169.84142367459924
aF173.90189121201254
aF173.703925172932
aF185.87866205723407
aF174.00003036768817
aF173.87335861742298
aa(lp113
F167.03949993460057
aF152.59687418759532
aF162.27653795442666
aF166.1306276792227
aF168.39147264715726
aF170.77101979703434
aF182.21333756844302
aa(lp114
F88.05272060446242
aF88.66066346126755
aF19.382703063249114
aF80.47327924417104
aF163.47652875451863
aF104.24185420810038
aF84.88777748611726
aa(lp115
F148.646916871654
aF137.92880105162664
aF183.43607878007754
aF151.83883233220305
aF125.13325422476385
aF152.03324486393433
aF152.75523786317814
aa(lp116
F34.526898211600795
aF46.490185538743305
aF72.78101169745885
aF188.2044450562175
aF33.67251376487253
aF19.453852964127424
aF62.61212635501393
aa(lp117
F34.517972580502345
aF73.6075455544305
aF72.8298949435252
aF183.09781087269334
aF59.46211198575996
aF92.17813464207688
aF20.64535248149951
aa(lp118
F198.59362771507818
aF182.15447670430763
aF182.7406610095033
aF183.84284334549056
aF183.50465723776105
aF183.54055432945887
aF183.6301805819563
aa(lp119
F189.97482219182834
aF181.35319094060583
aF183.88551459646766
aF183.38461013335808
aF180.62955373523903
aF183.5677875787387
aF183.28948170783812
aa(lp120
F165.1883512844295
aF157.513029061192
aF185.36506599369562
aF174.62670477696184
aF147.1411793954563
aF174.0457993318699
aF178.32171335366309
aa(lp121
F192.19092536328307
aF181.68541057671467
aF184.47974903323316
aF182.33681803284114
aF184.80255630235337
aF181.11896888544624
aF183.92948423706025
aa(lp122
F186.28832974010518
aF133.9204825296006
aF111.66714131837963
aF117.70677739673526
aF116.5076812413066
aF155.97912424332455
aF161.31523428406283
aa(lp123
F115.83085175946128
aF69.84017674823446
aF187.72466709455878
aF75.15864614873014
aF115.3062859660876
aF117.84537317210366
aF118.4010285473577
aa(lp124
F192.55733025361513
aF139.50023113123564
aF120.4038281169353
aF129.9691109596812
aF142.3991373568548
aF145.6751784483659
aF143.80944256242418
aa(lp125
F36.46870889356143
aF83.76621904371208
aF189.2518958181616
aF18.717199448213908
aF29.043176700283134
aF17.170042741096427
aF-0.5
aa(lp126
F193.9297690412062
aF18.28706442858002
aF0.0
aF50.32852990992137
aF50.562445022440535
aF19.002030917239207
aF49.50583810277138
aa(lp127
F0.0
aF0.0
aF0.0
aF0.0
aF0.0
aF0.0
aF0.0
aa(lp128
F0.0
aF0.0
aF0.0
aF0.0
aF0.0
aF0.0
aF0.0
aa(lp129
F0.0
aF0.0
aF0.0
aF0.0
aF0.0
aF0.0
aF0.0
aa(lp130
F0.0
aF0.0
aF0.0
aF0.0
aF0.0
aF0.0
aF0.0
aa(lp131
F0.0
aF0.0
aF0.0
aF0.0
aF0.0
aF0.0
aF0.0
aa(lp132
F0.0
aF0.0
aF0.0
aF0.0
aF0.0
aF0.0
aF0.0
aa(lp133
F0.0
aF0.0
aF0.0
aF0.0
aF0.0
aF0.0
aF0.0
aa(lp134
F0.0
aF0.0
aF0.0
aF0.0
aF0.0
aF0.0
aF0.0
aa(lp135
F0.0
aF0.0
aF0.0
aF0.0
aF0.0
aF0.0
aF0.0
aa(lp136
F169.16105555815818
aF167.23157619433468
aF182.14016487475163
aF166.3229055826689
aF167.06272145131783
aF168.62700051109675
aF165.6664760782286
aa(lp137
F165.89631645216411
aF164.87929380023576
aF183.51644540153367
aF130.08541105103615
aF165.04347909459824
aF165.02726946660667
aF164.75734660566852
aa(lp138
F119.02453694927152
aF115.96911419026804
aF191.25158648815523
aF120.66262424238936
aF129.58336020295604
aF149.06289650718307
aF128.9582849012038
aa(lp139
F170.81598159392797
aF169.7107457392027
aF175.36900912934712
aF167.94412552441827
aF180.01426957711948
aF173.6852267433892
aF170.8610799773055
aa(lp140
F108.76034025874152
aF193.17204235202018
aF78.37661875580532
aF93.33392425855875
aF85.95004351390087
aF56.1874843809432
aF94.31719896303503
aa(lp141
F12.479111169479964
aF31.84458678516303
aF176.29613931252027
aF-0.5
aF4.255061856371322
aF33.463484568558506
aF1.3892494461709186
aa(lp142
F0.0
aF0.0
aF0.0
aF0.0
aF0.0
aF0.0
aF0.0
aa(lp143
F0.0
aF0.0
aF0.0
aF0.0
aF0.0
aF0.0
aF0.0
aa(lp144
F0.0
aF0.0
aF0.0
aF0.0
aF0.0
aF0.0
aF0.0
aa(lp145
F191.44300977494873
aF179.47904388138681
aF178.54727184076955
aF175.57747491876245
aF176.24086030937093
aF176.17178940923208
aF177.30513800957974
aa(lp146
F193.99729205988547
aF146.94352356907723
aF122.91641727864481
aF172.0336382632036
aF147.28937263855647
aF132.82938242125243
aF143.80364491455333
aa(lp147
F200.67524370575373
aF53.709553968252095
aF80.41464062355212
aF50.12089380749072
aF89.20392563893446
aF81.22362520576537
aF52.218986541804824
aa(lp148
F189.40180187606757
aF164.07524268856415
aF157.06140515770716
aF165.5545620463713
aF167.72223565699935
aF161.96471481616558
aF175.16114000506917
aa(lp149
F199.5265046936413
aF77.43427953337316
aF95.18993997642455
aF53.593935965861505
aF67.3886666839972
aF85.87599035121643
aF35.286161250856836
aa(lp150
F0.0
aF0.0
aF0.0
aF0.0
aF181.7161877253611
aF19.31526181985627
aF36.19030120652235
aa(lp151
F0.0
aF0.0
aF0.0
aF0.0
aF0.0
aF0.0
aF0.0
aa(lp152
F0.0
aF0.0
aF0.0
aF0.0
aF0.0
aF0.0
aF0.0
aa(lp153
F0.0
aF0.0
aF0.0
aF0.0
aF0.0
aF0.0
aF0.0
aa(lp154
F0.0
aF0.0
aF0.0
aF0.0
aF0.0
aF0.0
aF0.0
aa(lp155
F0.0
aF0.0
aF0.0
aF0.0
aF0.0
aF0.0
aF0.0
aa(lp156
F0.0
aF0.0
aF0.0
aF0.0
aF0.0
aF0.0
aF0.0
aa(lp157
F0.0
aF0.0
aF0.0
aF0.0
aF0.0
aF0.0
aF0.0
aa(lp158
F0.0
aF0.0
aF0.0
aF0.0
aF0.0
aF0.0
aF0.0
aa(lp159
F0.0
aF0.0
aF0.0
aF0.0
aF0.0
aF0.0
aF0.0
aa(lp160
F0.0
aF0.0
aF0.0
aF0.0
aF0.0
aF0.0
aF0.0
aa(lp161
F0.0
aF0.0
aF0.0
aF0.0
aF0.0
aF0.0
aF0.0
aa(lp162
F0.0
aF0.0
aF0.0
aF0.0
aF0.0
aF0.0
aF0.0
aa(lp163
F157.81299370519125
aF173.66759741651862
aF157.57080939737324
aF157.9021935668831
aF159.44566848995308
aF157.79589525047328
aF157.40888644695792
aa(lp164
F166.17198199795396
aF171.37933303697616
aF166.03864478689457
aF166.30947809943228
aF166.30667101001058
aF166.22706594861356
aF166.26027887233437
aa(lp165
F0.0
aF0.0
aF0.0
aF0.0
aF0.0
aF0.0
aF0.0
aa(lp166
F168.81163355812095
aF167.86689296920588
aF170.24977826499054
aF167.80651228615835
aF180.6169741310925
aF171.24555726728178
aF170.72346618272266
aa(lp167
F166.47258814505366
aF181.91540624133617
aF158.50117134291793
aF168.72160779474166
aF163.56451537096066
aF170.52721114399583
aF157.37452370930504
aa(lp168
F0.0
aF0.0
aF0.0
aF0.0
aF0.0
aF0.0
aF0.0
aa(lp169
F154.02528717096342
aF166.9165957719659
aF154.92957723899107
aF154.18832502604835
aF153.94298446773954
aF158.47420708347383
aF153.86700420740738
aa(lp170
F88.71857236231082
aF173.37948911747213
aF93.59286310165346
aF50.18497627574264
aF83.19837525904914
aF46.420633368453814
aF97.13507411841148
aa(lp171
F0.0
aF0.0
aF0.0
aF0.0
aF0.0
aF0.0
aF0.0
aa(lp172
F181.48395075272268
aF171.351791083528
aF169.50154103234303
aF171.28673443962336
aF171.35489921588305
aF171.33128345865453
aF172.44903054126894
aa(lp173
F177.11155219972056
aF184.83441034662104
aF174.25308674881967
aF150.34425566239145
aF165.48210724291195
aF177.01767094412074
aF166.30124727712115
aa(lp174
F0.0
aF0.0
aF0.0
aF0.0
aF0.0
aF0.0
aF0.0
aa(lp175
F187.36874734577032
aF180.10811280974127
aF177.76413918773585
aF178.1454361231827
aF178.585917633277
aF179.96538563819593
aF177.62221352367237
aa(lp176
F189.6882713514915
aF179.63889725673076
aF162.45659923250227
aF147.330274826845
aF160.98874615874095
aF160.55851868991357
aF176.88264015590124
aa(lp177
F0.0
aF0.0
aF0.0
aF0.0
aF0.0
aF0.0
aF0.0
aa(lp178
F172.78344982378334
aF164.68498954938426
aF166.27339201425949
aF164.64932126414675
aF166.83786433590996
aF164.64586275367577
aF164.2325374435862
aa(lp179
F194.60200078739624
aF21.831301436492815
aF65.96147314995952
aF72.91793716804924
aF36.20233569147601
aF52.52088115082754
aF18.427600423452414
aa(lp180
F0.0
aF0.0
aF0.0
aF0.0
aF0.0
aF0.0
aF0.0
aa(lp181
F0.0
aF0.0
aF0.0
aF0.0
aF0.0
aF0.0
aF0.0
aa(lp182
F0.0
aF0.0
aF0.0
aF0.0
aF0.0
aF0.0
aF0.0
aa(lp183
F0.0
aF0.0
aF0.0
aF0.0
aF0.0
aF0.0
aF0.0
aa(lp184
F0.0
aF0.0
aF0.0
aF0.0
aF0.0
aF0.0
aF0.0
aa(lp185
F0.0
aF0.0
aF0.0
aF0.0
aF0.0
aF0.0
aF0.0
aa(lp186
F0.0
aF0.0
aF0.0
aF0.0
aF0.0
aF0.0
aF0.0
aa(lp187
F0.0
aF0.0
aF0.0
aF0.0
aF0.0
aF0.0
aF0.0
aa(lp188
F0.0
aF0.0
aF0.0
aF0.0
aF0.0
aF0.0
aF0.0
aa(lp189
F0.0
aF0.0
aF0.0
aF0.0
aF0.0
aF0.0
aF0.0
aa(lp190
F171.06430306600328
aF166.94886511285776
aF169.11455927215277
aF178.84360064238547
aF170.96926931773152
aF168.66766276118477
aF170.18846170000165
aa(lp191
F84.45771426254234
aF33.78317882476399
aF90.47387801747524
aF185.59939105639904
aF32.11873398480969
aF33.4535076066672
aF49.106912734948324
aa(lp192
F0.0
aF0.0
aF0.0
aF0.0
aF0.0
aF0.0
aF0.0
aa(lp193
F168.10945626815015
aF166.89845340693313
aF169.30116765066066
aF176.00282345115858
aF165.56005108335577
aF165.96618927523443
aF165.9845585128976
aa(lp194
F17.712360829897946
aF186.80798234472437
aF87.65344318592722
aF42.886283047496846
aF33.71403945809649
aF81.56957617931289
aF31.970870947310473
aa(lp195
F0.0
aF0.0
aF0.0
aF0.0
aF0.0
aF0.0
aF0.0
aa(lp196
F102.44593802413814
aF177.8673823163454
aF113.74377183688404
aF136.45681811193313
aF115.89300960457732
aF114.84604973141398
aF85.88300991136224
aa(lp197
F0.0
aF35.30908734077706
aF17.82587393778138
aF34.26568146545653
aF31.020458073645884
aF0.0
aF181.04949926748515
aa(lp198
F0.0
aF0.0
aF0.0
aF0.0
aF0.0
aF0.0
aF0.0
aa(lp199
F185.51215747516406
aF178.85347697718893
aF179.01337460614553
aF179.39476901294577
aF177.08068952713168
aF183.6029380929274
aF177.1021266365206
aa(lp200
F14.989285429134211
aF80.73391098866648
aF49.96471222977902
aF198.5322721081036
aF113.69840732146474
aF96.45968635599448
aF52.89855912957663
aa(lp201
F0.0
aF0.0
aF0.0
aF0.0
aF0.0
aF0.0
aF0.0
aa(lp202
F193.96206533195988
aF129.86214129109376
aF153.864487194619
aF149.25960460268584
aF145.1445408224454
aF155.6916647091396
aF164.3511174122924
aa(lp203
F33.67550242166329
aF61.40497212128595
aF46.85108966794137
aF199.15991403808812
aF27.158604204396358
aF26.54120247387835
aF51.35702309651212
aa(lp204
F0.0
aF0.0
aF0.0
aF0.0
aF0.0
aF0.0
aF0.0
aa(lp205
F188.38532531753907
aF146.071051484174
aF127.85078091055203
aF163.1099272139728
aF105.42382810398965
aF145.54047821791292
aF116.02900345268858
aa(lp206
F186.55682893133323
aF0.0
aF0.0
aF0.0
aF0.0
aF0.0
aF0.0
aa(lp207
F0.0
aF0.0
aF0.0
aF0.0
aF0.0
aF0.0
aF0.0
aa(lp208
F0.0
aF0.0
aF0.0
aF0.0
aF0.0
aF0.0
aF0.0
aa(lp209
F0.0
aF0.0
aF0.0
aF0.0
aF0.0
aF0.0
aF0.0
aa(lp210
F0.0
aF0.0
aF0.0
aF0.0
aF0.0
aF0.0
aF0.0
aa(lp211
F0.0
aF0.0
aF0.0
aF0.0
aF0.0
aF0.0
aF0.0
aa(lp212
F0.0
aF0.0
aF0.0
aF0.0
aF0.0
aF0.0
aF0.0
aa(lp213
F0.0
aF0.0
aF0.0
aF0.0
aF0.0
aF0.0
aF0.0
aa(lp214
F0.0
aF0.0
aF0.0
aF0.0
aF0.0
aF0.0
aF0.0
aa(lp215
F0.0
aF0.0
aF0.0
aF0.0
aF0.0
aF0.0
aF0.0
aa(lp216
F0.0
aF0.0
aF0.0
aF0.0
aF0.0
aF0.0
aF0.0
aa(lp217
F154.25277141929425
aF169.96770505654573
aF155.09423333129845
aF155.56330996929807
aF154.38614006230924
aF155.89569716143077
aF155.45402368821084
aa(lp218
F-0.1
aF75.56662183759644
aF30.93631915309372
aF0.0
aF17.278489606356427
aF45.34365923064969
aF176.14868808787864
aa(lp219
F0.0
aF0.0
aF0.0
aF0.0
aF0.0
aF0.0
aF0.0
aa(lp220
F126.04176407990973
aF92.54424813474249
aF78.79892592598691
aF129.1282278007248
aF173.3877810014643
aF117.718258421857
aF105.59886077794911
aa(lp221
F-0.1
aF194.6102885090222
aF16.90202290662529
aF34.83463491584649
aF19.82642393829238
aF32.68108228428334
aF32.14926859394338
aa(lp222
F0.0
aF0.0
aF0.0
aF0.0
aF0.0
aF0.0
aF0.0
aa(lp223
F0.0
aF0.0
aF0.0
aF0.0
aF0.0
aF0.0
aF0.0
aa(lp224
F0.0
aF0.0
aF0.0
aF0.0
aF0.0
aF0.0
aF0.0
aa(lp225
F0.0
aF0.0
aF0.0
aF0.0
aF0.0
aF0.0
aF0.0
aa(lp226
F175.73883132628305
aF123.81769906173959
aF58.95353945769457
aF150.83089561190266
aF114.20995671913818
aF121.80797630043563
aF143.60782357930037
aa(lp227
F61.90169487876948
aF195.6115299353849
aF21.118496469712706
aF-0.5
aF33.40696806366094
aF49.28711719042127
aF36.06412438592521
aa(lp228
F0.0
aF0.0
aF0.0
aF0.0
aF0.0
aF0.0
aF0.0
aa(lp229
F196.6834648688909
aF97.92015588964
aF69.87099356142664
aF62.621273201420806
aF56.364005560939894
aF74.45691626915514
aF66.6797951135208
aa(lp230
F201.70611712269468
aF18.224313766558986
aF34.86824927867971
aF51.51357730589937
aF0.0
aF0.0
aF18.86740703616577
aa(lp231
F0.0
aF0.0
aF0.0
aF0.0
aF0.0
aF0.0
aF0.0
aa(lp232
F0.0
aF0.0
aF0.0
aF0.0
aF0.0
aF0.0
aF0.0
aa(lp233
F0.0
aF0.0
aF0.0
aF0.0
aF0.0
aF0.0
aF0.0
aa(lp234
F0.0
aF0.0
aF0.0
aF0.0
aF0.0
aF0.0
aF0.0
aa(lp235
F0.0
aF0.0
aF0.0
aF0.0
aF0.0
aF0.0
aF0.0
aa(lp236
F0.0
aF0.0
aF0.0
aF0.0
aF0.0
aF0.0
aF0.0
aa(lp237
F0.0
aF0.0
aF0.0
aF0.0
aF0.0
aF0.0
aF0.0
aa(lp238
F0.0
aF0.0
aF0.0
aF0.0
aF0.0
aF0.0
aF0.0
aa(lp239
F0.0
aF0.0
aF0.0
aF0.0
aF0.0
aF0.0
aF0.0
aa(lp240
F0.0
aF0.0
aF0.0
aF0.0
aF0.0
aF0.0
aF0.0
aa(lp241
F0.0
aF0.0
aF0.0
aF0.0
aF0.0
aF0.0
aF0.0
aa(lp242
F0.0
aF0.0
aF0.0
aF0.0
aF0.0
aF0.0
aF0.0
aa(lp243
F0.0
aF0.0
aF0.0
aF0.0
aF0.0
aF0.0
aF0.0
aa.