(lp0
(lp1
F174.51360586551107
aF174.45758762375863
aF171.29903619107716
aF174.7259914093056
aF175.55483106065756
aF174.81722833775092
aF182.69472204144716
aa(lp2
F175.98905117103516
aF199.54853293600672
aF174.0297644744772
aF175.19106805366667
aF173.84952246348007
aF179.94969230848568
aF177.5300774192385
aa(lp3
F168.02098927515902
aF161.55412098069257
aF184.8895995440989
aF167.11125461371114
aF161.48588444704495
aF167.46279152086063
aF166.26218561767632
aa(lp4
F187.91056181571878
aF171.94534080731356
aF177.9710402975832
aF175.95964000107364
aF200.79948716033545
aF176.54752150622775
aF180.3117213259085
aa(lp5
F165.55139932138806
aF200.40782381081647
aF171.70046932515683
aF164.07950666946562
aF167.86416500436525
aF175.96731377792818
aF177.97423523423063
aa(lp6
F159.62837424694177
aF160.4138574830356
aF180.56661677924745
aF161.5227053392251
aF159.51031303621042
aF160.99271136322352
aF160.76090882357926
aa(lp7
F162.72336583164432
aF162.65607606725052
aF160.19733217591988
aF180.34484836596943
aF157.29187388218833
aF162.53150525136914
aF161.46199672689124
aa(lp8
F160.1411621277417
aF160.65402206018317
aF178.78520693959288
aF167.63958746742483
aF161.0019972268005
aF162.031037304643
aF161.87472427465968
aa(lp9
F122.82244893648412
aF119.91295150972282
aF120.5236642251013
aF143.53774282543566
aF123.21194376294652
aF118.0278221493592
aF157.203467873127
aa(lp10
F195.1278390565847
aF183.19560109934756
aF184.6931117791114
aF176.71780495734225
aF183.60220986945677
aF182.24609934083932
aF185.0416012820998
aa(lp11
F207.0243190774439
aF172.68364440695404
aF180.35696427653593
aF180.13102055209504
aF178.51738906310243
aF178.9894610947222
aF174.09603486866905
aa(lp12
F191.58170641892235
aF161.22488841343525
aF169.43154457036724
aF162.86929177261533
aF162.61354025813864
aF167.6354371214577
aF163.01318068397495
aa(lp13
F207.20084739620282
aF182.5278148365885
aF186.0268896718037
aF184.90538285792235
aF185.108164678239
aF186.13838078881716
aF187.35065758113092
aa(lp14
F208.37011720735788
aF180.29188802701822
aF175.7201035627509
aF179.79278894532064
aF176.8116310886779
aF177.22749023937217
aF180.27610929708538
aa(lp15
F173.18897757477922
aF170.67136124176915
aF175.95931626560125
aF169.70426733161273
aF199.65443671517988
aF174.2051428943665
aF170.47619477428987
aa(lp16
F187.24355356095447
aF164.16157733456077
aF161.85706270122796
aF161.4334504205811
aF161.1722602222306
aF162.32470349489185
aF167.61097457623904
aa(lp17
F186.04384431278584
aF171.35441463437988
aF170.68366752962734
aF173.04145778671858
aF171.23930980831716
aF172.13901968814963
aF171.03706781953457
aa(lp18
F159.83533592393962
aF159.29836202759458
aF160.67659653146046
aF159.84333974489564
aF159.09789921609237
aF159.77275031022748
aF163.67518193517395
aa(lp19
F0.0
aF0.0
aF0.0
aF0.0
aF0.0
aF0.0
aF0.0
aa(lp20
F0.0
aF0.0
aF0.0
aF0.0
aF0.0
aF0.0
aF0.0
aa(lp21
F0.0
aF0.0
aF0.0
aF0.0
aF0.0
aF0.0
aF0.0
aa(lp22
F0.0
aF0.0
aF0.0
aF0.0
aF0.0
aF0.0
aF0.0
aa(lp23
F0.0
aF0.0
aF0.0
aF0.0
aF0.0
aF0.0
aF0.0
aa(lp24
F0.0
aF0.0
aF0.0
aF0.0
aF0.0
aF0.0
aF0.0
aa(lp25
F0.0
aF0.0
aF0.0
aF0.0
aF0.0
aF0.0
aF0.0
aa(lp26
F0.0
aF0.0
aF0.0
aF0.0
aF0.0
aF0.0
aF0.0
aa(lp27
F0.0
aF0.0
aF0.0
aF0.0
aF0.0
aF0.0
aF0.0
aa(lp28
F164.17420718441198
aF164.3976695015998
aF169.39036563451432
aF195.95779637309582
aF165.24779041089565
aF162.74607513046746
aF162.28309431638692
aa(lp29
F165.50283521830033
aF175.04666011463075
aF169.28898280645083
aF200.80961417201075
aF163.27578439859684
aF166.77304673274588
aF168.1707277652296
aa(lp30
F161.1696051221848
aF163.13808085873143
aF164.28596339624096
aF195.35105830279852
aF159.15492773122708
aF162.71545620660774
aF168.84530308393408
aa(lp31
F162.14187184323393
aF161.74543070266716
aF162.08681086496904
aF162.1929176529369
aF197.99250568903486
aF162.08944373249494
aF161.77657396922928
aa(lp32
F166.6810793287299
aF201.50715003866287
aF170.30434644858843
aF166.29558229355243
aF170.48956383837927
aF171.2194345776719
aF166.75479379454157
aa(lp33
F163.33515389243843
aF165.4123927415226
aF163.53625945247438
aF192.8926614238424
aF166.91254587310345
aF163.42802013928053
aF161.56183642157214
aa(lp34
F163.45152025732017
aF162.9324348443682
aF163.02352017393247
aF197.60281770444595
aF162.97390789809234
aF163.44111307655032
aF163.93202282094586
aa(lp35
F122.07151710930086
aF164.7556238818092
aF88.51775002935199
aF132.632244088807
aF79.2370098238263
aF128.93489375333294
aF129.15024936285633
aa(lp36
F140.40639048867973
aF145.58528245874183
aF182.79336624179186
aF149.91123086278867
aF112.39789556826074
aF149.45256946370696
aF140.8651487359061
aa(lp37
F178.34233530576253
aF177.6324597971673
aF172.14413183206204
aF205.42575748766694
aF177.75396732777395
aF183.21232509775444
aF177.18713694742536
aa(lp38
F208.11199659290907
aF174.61765855433478
aF174.16586647504906
aF176.3494429723865
aF173.76373162408674
aF176.6608321446215
aF178.74903878320356
aa(lp39
F202.73032699329434
aF175.16207764058998
aF176.8403737556397
aF173.35412709300832
aF171.6614082433548
aF175.6962709658174
aF173.01107230256105
aa(lp40
F177.9865586671588
aF176.1294265101788
aF179.65100936320744
aF205.2693462809267
aF179.3584404260895
aF175.62104200245187
aF180.27714698010087
aa(lp41
F208.4431584909398
aF179.8481815808153
aF178.96580103351803
aF183.57582304851684
aF176.87998024098772
aF179.91117965343744
aF183.72307879678786
aa(lp42
F199.53319854055786
aF173.46847650923723
aF175.78331725234224
aF173.41651614371432
aF172.94010474220823
aF173.4207417784094
aF175.10504455390395
aa(lp43
F200.01661729301645
aF144.7305762267796
aF162.99737568113747
aF174.22562121659323
aF175.2714949967916
aF175.1706772170091
aF154.5903753529691
aa(lp44
F155.79146964875517
aF155.34768163247935
aF147.45812656008007
aF190.51822553931615
aF147.266917980369
aF145.8586651850086
aF163.26704269418144
aa(lp45
F188.17283810819072
aF82.95909707943066
aF47.88849516456641
aF58.716448815340016
aF50.75885331058495
aF62.048721350115045
aF122.19901921035991
aa(lp46
F0.0
aF0.0
aF0.0
aF0.0
aF0.0
aF0.0
aF0.0
aa(lp47
F0.0
aF0.0
aF0.0
aF0.0
aF0.0
aF0.0
aF0.0
aa(lp48
F0.0
aF0.0
aF0.0
aF0.0
aF0.0
aF0.0
aF0.0
aa(lp49
F0.0
aF0.0
aF0.0
aF0.0
aF0.0
aF0.0
aF0.0
aa(lp50
F0.0
aF0.0
aF0.0
aF0.0
aF0.0
aF0.0
aF0.0
aa(lp51
F0.0
aF0.0
aF0.0
aF0.0
aF0.0
aF0.0
aF0.0
aa(lp52
F0.0
aF0.0
aF0.0
aF0.0
aF0.0
aF0.0
aF0.0
aa(lp53
F0.0
aF0.0
aF0.0
aF0.0
aF0.0
aF0.0
aF0.0
aa(lp54
F0.0
aF0.0
aF0.0
aF0.0
aF0.0
aF0.0
aF0.0
aa(lp55
F155.48888931706196
aF165.37431724482528
aF160.76571334158558
aF152.36679391931935
aF183.73315541194782
aF163.65093193947044
aF169.83603744471273
aa(lp56
F164.8822454726018
aF197.3419617698047
aF159.774808926606
aF161.39096865697658
aF164.17388175262857
aF160.2848914004943
aF159.48751337871346
aa(lp57
F150.57033369385707
aF150.17268922000233
aF150.6089921043289
aF150.07948540395006
aF182.41955974327686
aF150.45400876110867
aF150.53955015543147
aa(lp58
F162.2522199757748
aF162.601122947675
aF162.35652945476497
aF164.80001729135063
aF196.79709809384747
aF165.5886651460463
aF162.36604264187142
aa(lp59
F155.30521252056604
aF163.96546338048492
aF163.6660487479673
aF163.83579619223732
aF199.96010224824465
aF164.30722933077774
aF164.16879375141144
aa(lp60
F63.62268024539459
aF13.493403411658043
aF0.0
aF46.155578710699665
aF167.9699304226007
aF35.09663490088708
aF33.89780957621215
aa(lp61
F0.0
aF0.0
aF0.0
aF0.0
aF0.0
aF0.0
aF0.0
aa(lp62
F0.0
aF0.0
aF0.0
aF0.0
aF0.0
aF0.0
aF0.0
aa(lp63
F0.0
aF0.0
aF0.0
aF0.0
aF0.0
aF0.0
aF0.0
aa(lp64
F189.54933068298396
aF164.59759725188243
aF165.1397148502836
aF162.3454657003963
aF160.6247718931483
aF162.38138232006412
aF166.3405786021787
aa(lp65
F202.02174838403977
aF173.38361569489433
aF173.62577803429284
aF173.2206762583164
aF173.13375953620738
aF173.3040916459015
aF172.94203515978694
aa(lp66
F188.68448506318197
aF161.86674851613392
aF161.92085953248227
aF161.64194681494698
aF160.4030476159645
aF164.0971191142847
aF161.7831758177747
aa(lp67
F206.1299030999498
aF176.41592235418523
aF171.42617758516406
aF180.78237451829622
aF178.32353600519318
aF174.04776918655216
aF173.6641509195318
aa(lp68
F206.927868394669
aF159.08375387292386
aF103.142357872132
aF157.5595336811699
aF161.52637151117477
aF145.4015483496925
aF107.83070542966816
aa(lp69
F149.63251680841103
aF118.48695802901068
aF161.57629520966282
aF132.01437772068712
aF193.53118584300472
aF154.92013385792555
aF107.15619262810455
aa(lp70
F0.0
aF0.0
aF0.0
aF0.0
aF0.0
aF0.0
aF0.0
aa(lp71
F0.0
aF0.0
aF0.0
aF0.0
aF0.0
aF0.0
aF0.0
aa(lp72
F0.0
aF0.0
aF0.0
aF0.0
aF0.0
aF0.0
aF0.0
aa(lp73
F0.0
aF0.0
aF0.0
aF0.0
aF0.0
aF0.0
aF0.0
aa(lp74
F0.0
aF0.0
aF0.0
aF0.0
aF0.0
aF0.0
aF0.0
aa(lp75
F0.0
aF0.0
aF0.0
aF0.0
aF0.0
aF0.0
aF0.0
aa(lp76
F0.0
aF0.0
aF0.0
aF0.0
aF0.0
aF0.0
aF0.0
aa(lp77
F0.0
aF0.0
aF0.0
aF0.0
aF0.0
aF0.0
aF0.0
aa(lp78
F0.0
aF0.0
aF0.0
aF0.0
aF0.0
aF0.0
aF0.0
aa(lp79
F0.0
aF0.0
aF0.0
aF0.0
aF0.0
aF0.0
aF0.0
aa(lp80
F0.0
aF0.0
aF0.0
aF0.0
aF0.0
aF0.0
aF0.0
aa(lp81
F0.0
aF0.0
aF0.0
aF0.0
aF0.0
aF0.0
aF0.0
aa(lp82
F169.83395695642918
aF167.8790566217796
aF199.61592720354278
aF178.7005953351556
aF179.60077423751707
aF174.85001214939695
aF166.42823209603844
aa(lp83
F166.79038331588671
aF198.90752946656244
aF171.0880034617122
aF163.8436132117842
aF163.81829268606313
aF165.93539945448438
aF165.47511073151645
aa(lp84
F162.07631602224808
aF162.09758535307228
aF193.4964773060889
aF161.680366576484
aF161.5536497992523
aF162.22958418716988
aF161.6091497315575
aa(lp85
F179.28512690407015
aF168.0756363909196
aF199.22531244207244
aF177.1328349099546
aF179.72974478483502
aF183.2534250961118
aF171.96534132449582
aa(lp86
F168.49100346714621
aF198.94358853541317
aF167.86674375642608
aF167.52651162034965
aF170.43426440815176
aF166.91851787442914
aF166.64677624179686
aa(lp87
F122.59794387303225
aF93.94745505584912
aF188.2215560537681
aF126.15740324923816
aF95.30728397609839
aF121.41520410271656
aF90.58267389249033
aa(lp88
F165.44288341233295
aF161.38952800067233
aF192.91407279983827
aF161.2041068990918
aF163.5612354772753
aF161.0158227236911
aF165.95863367444468
aa(lp89
F162.25171922881944
aF163.46914123408408
aF190.05453525370757
aF162.3137073503292
aF162.15449389196306
aF163.73469520384478
aF161.8839878824628
aa(lp90
F17.578276424280705
aF18.65566203611991
aF170.16466280936424
aF32.59955094508891
aF58.82076629468115
aF0.0
aF32.47973700686049
aa(lp91
F207.80953855644293
aF183.3810253052003
aF184.4859516197167
aF179.11918684288764
aF176.85869373124888
aF189.24750514287334
aF182.36179413729042
aa(lp92
F206.14241238392339
aF181.42986548752896
aF174.13668517332647
aF177.08754823944457
aF174.28768950031608
aF176.3926781648159
aF178.04918695186376
aa(lp93
F172.94921742498644
aF172.66849852040292
aF203.74238248032535
aF148.8747641904987
aF163.0484931973268
aF162.9302010368014
aF161.61460295923604
aa(lp94
F208.1157832339446
aF177.1558595042908
aF186.41954522060084
aF179.64781059696276
aF179.88663007549007
aF179.254034127885
aF180.8377170387856
aa(lp95
F208.04697864659238
aF176.6029430399222
aF176.48344408630933
aF178.12522930249125
aF178.72332968264345
aF178.8413423892756
aF181.88987848987668
aa(lp96
F49.532609233918635
aF34.492433948660306
aF63.077833501184806
aF0.0
aF181.91256331062965
aF27.144391308087883
aF37.55416337559771
aa(lp97
F200.18372027692448
aF172.2358743552684
aF172.24780393291007
aF174.16816694630262
aF170.9441448036635
aF174.84826196716622
aF171.82952930127692
aa(lp98
F197.25940206698635
aF153.4940331881649
aF164.3820492738935
aF172.87326242482249
aF162.11375860029366
aF174.45317373843685
aF175.46324681693966
aa(lp99
F111.75192790634706
aF90.60829516746185
aF123.37744518960038
aF151.6757133547362
aF69.06185387552924
aF100.9628034381178
aF99.73359435703617
aa(lp100
F0.0
aF0.0
aF0.0
aF0.0
aF0.0
aF0.0
aF0.0
aa(lp101
F0.0
aF0.0
aF0.0
aF0.0
aF0.0
aF0.0
aF0.0
aa(lp102
F0.0
aF0.0
aF0.0
aF0.0
aF0.0
aF0.0
aF0.0
aa(lp103
F0.0
aF0.0
aF0.0
aF0.0
aF0.0
aF0.0
aF0.0
aa(lp104
F0.0
aF0.0
aF0.0
aF0.0
aF0.0
aF0.0
aF0.0
aa(lp105
F0.0
aF0.0
aF0.0
aF0.0
aF0.0
aF0.0
aF0.0
aa(lp106
F0.0
aF0.0
aF0.0
aF0.0
aF0.0
aF0.0
aF0.0
aa(lp107
F0.0
aF0.0
aF0.0
aF0.0
aF0.0
aF0.0
aF0.0
aa(lp108
F0.0
aF0.0
aF0.0
aF0.0
aF0.0
aF0.0
aF0.0
aa(lp109
F166.02936414553665
aF162.18068963331126
aF170.50708340328293
aF167.34933657630285
aF162.9239562295133
aF162.90918242735876
aF197.15562157942347
aa(lp110
F165.43023286406995
aF165.313477076868
aF165.38091365972653
aF195.99561848392779
aF165.25751997332242
aF167.5608192110182
aF167.24069907134555
aa(lp111
F117.91362268789844
aF104.43426361657907
aF198.99089048287254
aF162.11995068427433
aF111.182994392373
aF135.55118736144246
aF101.47125062225074
aa(lp112
F173.36885090522344
aF169.3778294070684
aF167.12854711882838
aF200.68362506575488
aF172.80486788366534
aF170.47364454555992
aF173.2056964881423
aa(lp113
F168.1787879584877
aF168.30824001707506
aF168.35369021168393
aF172.0496954015701
aF170.16055272139903
aF168.31557927160156
aF200.74601215762794
aa(lp114
F94.39411260380321
aF104.77590672393845
aF74.44214358674886
aF90.42922514979058
aF163.488192164626
aF119.8171196133372
aF109.38224941578218
aa(lp115
F150.87030453350832
aF144.1797551255543
aF164.6944339479321
aF199.14485736558237
aF136.710904961694
aF162.23818221869283
aF157.40779227171686
aa(lp116
F34.526898211600795
aF46.490185538743305
aF82.98868058117665
aF187.41837336875724
aF33.67251376487253
aF62.649309472048984
aF73.4920245023578
aa(lp117
F61.700430418184155
aF73.6075455544305
aF72.8298949435252
aF185.99734014102648
aF82.26851996980628
aF107.5876290380897
aF36.58360469982785
aa(lp118
F177.69367128053588
aF177.53861716567178
aF174.1239344442127
aF204.70949816207724
aF177.59447273557203
aF175.90860189574985
aF173.75641587380997
aa(lp119
F175.87061497869104
aF175.47479101857735
aF177.93621376442823
aF204.57563489184662
aF175.14221436049846
aF175.78248080255585
aF178.562667563463
aa(lp120
F207.90697042721564
aF178.8036590534203
aF176.71661673292445
aF176.6171807659348
aF159.7723061686822
aF176.63778116613992
aF176.5999577428604
aa(lp121
F208.2750584948016
aF180.36625512903862
aF178.86195693467442
aF177.29923184786418
aF178.15379517820426
aF179.33975965175554
aF176.12294561738753
aa(lp122
F207.44856278983687
aF152.15846290468156
aF151.0104037598753
aF140.37814208876011
aF166.43146569955425
aF160.17211081041168
aF183.38833153598478
aa(lp123
F136.39646102574022
aF80.66694203005909
aF203.23978425251627
aF86.90485401920235
aF115.3062859660876
aF126.34039023561148
aF145.72148584965174
aa(lp124
F204.89158419827749
aF145.4693010903927
aF120.4038281169353
aF146.80588879969693
aF146.4297938777473
aF159.8165967913724
aF151.68654428227921
aa(lp125
F36.46870889356143
aF102.25181630344335
aF175.37624787402547
aF18.717199448213908
aF29.043176700283134
aF49.20835322890059
aF-0.5
aa(lp126
F189.70027679739582
aF18.28706442858002
aF20.172550020094896
aF64.8960516182785
aF64.0317192911091
aF19.002030917239207
aF49.50583810277138
aa(lp127
F0.0
aF0.0
aF0.0
aF0.0
aF0.0
aF0.0
aF0.0
aa(lp128
F0.0
aF0.0
aF0.0
aF0.0
aF0.0
aF0.0
aF0.0
aa(lp129
F0.0
aF0.0
aF0.0
aF0.0
aF0.0
aF0.0
aF0.0
aa(lp130
F0.0
aF0.0
aF0.0
aF0.0
aF0.0
aF0.0
aF0.0
aa(lp131
F0.0
aF0.0
aF0.0
aF0.0
aF0.0
aF0.0
aF0.0
aa(lp132
F0.0
aF0.0
aF0.0
aF0.0
aF0.0
aF0.0
aF0.0
aa(lp133
F0.0
aF0.0
aF0.0
aF0.0
aF0.0
aF0.0
aF0.0
aa(lp134
F0.0
aF0.0
aF0.0
aF0.0
aF0.0
aF0.0
aF0.0
aa(lp135
F0.0
aF0.0
aF0.0
aF0.0
aF0.0
aF0.0
aF0.0
aa(lp136
F160.36788452190302
aF161.05451663813068
aF198.59709797849467
aF162.67319448352256
aF163.57227636012817
aF162.06226759544555
aF160.47218660238673
aa(lp137
F162.79912647085362
aF162.75401214272765
aF193.23234777212082
aF134.58326742314287
aF162.67822777958352
aF162.71713162594165
aF162.59648204389487
aa(lp138
F125.82280775843101
aF128.03751397321042
aF189.4433825041133
aF132.0217490002894
aF136.60874389413843
aF153.2657045509235
aF135.30295523924764
aa(lp139
F165.8735474517337
aF163.1151759126211
aF163.01437925752984
aF162.66201421102232
aF198.36300496185822
aF166.05515336812473
aF164.88445178784065
aa(lp140
F116.67758244774961
aF191.0936544880539
aF123.31901905987142
aF113.47005918518246
aF97.76207440450895
aF56.1874843809432
aF117.82944144671194
aa(lp141
F12.479111169479964
aF31.84458678516303
aF164.6032752087779
aF-0.5
aF4.255061856371322
aF33.463484568558506
aF1.3892494461709186
aa(lp142
F0.0
aF0.0
aF0.0
aF0.0
aF0.0
aF0.0
aF0.0
aa(lp143
F0.0
aF0.0
aF0.0
aF0.0
aF0.0
aF0.0
aF0.0
aa(lp144
F0.0
aF0.0
aF0.0
aF0.0
aF0.0
aF0.0
aF0.0
aa(lp145
F203.21421370519974
aF172.38770873655488
aF174.13078598919702
aF173.4716789655684
aF174.8923248493786
aF172.83626154822835
aF176.7559245856575
aa(lp146
F200.78215971088045
aF151.73898634340412
aF147.4578503453758
aF173.72677525731365
aF163.8502654474037
aF145.58337308330462
aF158.44433721165566
aa(lp147
F194.60393039434175
aF53.709553968252095
aF111.25219199837647
aF76.03223850198732
aF107.91365127491773
aF91.49144820811344
aF78.43149638890482
aa(lp148
F205.84755010502948
aF173.85078374862044
aF171.32592012365217
aF172.64827941945282
aF175.13889211216508
aF177.85686195784888
aF175.8845635730888
aa(lp149
F199.40707545941405
aF98.77867217529376
aF103.72735646671322
aF53.593935965861505
aF111.7155453853176
aF105.38015602190576
aF101.06382058392745
aa(lp150
F17.92028309314706
aF0.0
aF19.833418557726016
aF0.0
aF191.03849977910932
aF19.31526181985627
aF36.19030120652235
aa(lp151
F0.0
aF0.0
aF0.0
aF0.0
aF0.0
aF0.0
aF0.0
aa(lp152
F0.0
aF0.0
aF0.0
aF0.0
aF0.0
aF0.0
aF0.0
aa(lp153
F0.0
aF0.0
aF0.0
aF0.0
aF0.0
aF0.0
aF0.0
aa(lp154
F0.0
aF0.0
aF0.0
aF0.0
aF0.0
aF0.0
aF0.0
aa(lp155
F0.0
aF0.0
aF0.0
aF0.0
aF0.0
aF0.0
aF0.0
aa(lp156
F0.0
aF0.0
aF0.0
aF0.0
aF0.0
aF0.0
aF0.0
aa(lp157
F0.0
aF0.0
aF0.0
aF0.0
aF0.0
aF0.0
aF0.0
aa(lp158
F0.0
aF0.0
aF0.0
aF0.0
aF0.0
aF0.0
aF0.0
aa(lp159
F0.0
aF0.0
aF0.0
aF0.0
aF0.0
aF0.0
aF0.0
aa(lp160
F0.0
aF0.0
aF0.0
aF0.0
aF0.0
aF0.0
aF0.0
aa(lp161
F0.0
aF0.0
aF0.0
aF0.0
aF0.0
aF0.0
aF0.0
aa(lp162
F0.0
aF0.0
aF0.0
aF0.0
aF0.0
aF0.0
aF0.0
aa(lp163
F162.23746229942185
aF186.21788970884717
aF158.76439566304296
aF167.89580481667377
aF166.32268072015702
aF162.11776262174232
aF161.39133850891648
aa(lp164
F162.95890453551007
aF177.20767009416647
aF162.68348139844954
aF162.8859468949257
aF162.9155212234458
aF163.0621624898302
aF162.6816365915649
aa(lp165
F0.0
aF0.0
aF0.0
aF0.0
aF0.0
aF0.0
aF0.0
aa(lp166
F165.18020515671864
aF161.87068477133684
aF164.20896534877895
aF163.34930929519695
aF196.57132836347427
aF161.27030635621946
aF165.5959906509169
aa(lp167
F168.64009165571034
aF198.74543626143753
aF166.13348933293352
aF165.8675915456649
aF166.0037862080082
aF166.2524328160712
aF166.06060956811564
aa(lp168
F0.0
aF0.0
aF0.0
aF0.0
aF0.0
aF0.0
aF0.0
aa(lp169
F151.98486358466855
aF154.01578098041122
aF150.90363349563796
aF181.31770603600003
aF152.97153204946784
aF151.3133439579714
aF152.7540696636148
aa(lp170
F104.76694608436672
aF183.23876708014174
aF101.08520001981668
aF72.66546788107445
aF91.60175557932152
aF69.99744612349535
aF97.13507411841148
aa(lp171
F0.0
aF0.0
aF0.0
aF0.0
aF0.0
aF0.0
aF0.0
aa(lp172
F193.78997853577295
aF163.0282669738575
aF162.7934203116259
aF164.175409157662
aF164.64094074284557
aF163.85201972453902
aF165.07916199708308
aa(lp173
F173.14753230829908
aF203.94811166014426
aF172.92239794017635
aF165.59156656148477
aF172.60570307858632
aF173.24089506133856
aF173.23969783213732
aa(lp174
F0.0
aF0.0
aF0.0
aF0.0
aF0.0
aF0.0
aF0.0
aa(lp175
F204.9649344525497
aF172.75362031119803
aF175.95213886869647
aF171.78282957015392
aF174.56044471210524
aF177.9180982516717
aF174.73694376969812
aa(lp176
F205.47566761539542
aF176.35388705829084
aF169.90107081677706
aF155.98235492709836
aF168.80518823114355
aF167.28633179499124
aF175.45788310923328
aa(lp177
F0.0
aF0.0
aF0.0
aF0.0
aF0.0
aF0.0
aF0.0
aa(lp178
F185.6274099584868
aF163.80880288929552
aF163.39801606092823
aF163.79414441423367
aF163.4814165031038
aF165.8803643454725
aF163.68185420139915
aa(lp179
F188.59935170918104
aF21.831301436492815
aF77.4538755694788
aF84.85407159524586
aF36.20233569147601
aF79.26130331800026
aF36.797865899607466
aa(lp180
F0.0
aF0.0
aF0.0
aF0.0
aF0.0
aF0.0
aF0.0
aa(lp181
F0.0
aF0.0
aF0.0
aF0.0
aF0.0
aF0.0
aF0.0
aa(lp182
F0.0
aF0.0
aF0.0
aF0.0
aF0.0
aF0.0
aF0.0
aa(lp183
F0.0
aF0.0
aF0.0
aF0.0
aF0.0
aF0.0
aF0.0
aa(lp184
F0.0
aF0.0
aF0.0
aF0.0
aF0.0
aF0.0
aF0.0
aa(lp185
F0.0
aF0.0
aF0.0
aF0.0
aF0.0
aF0.0
aF0.0
aa(lp186
F0.0
aF0.0
aF0.0
aF0.0
aF0.0
aF0.0
aF0.0
aa(lp187
F0.0
aF0.0
aF0.0
aF0.0
aF0.0
aF0.0
aF0.0
aa(lp188
F0.0
aF0.0
aF0.0
aF0.0
aF0.0
aF0.0
aF0.0
aa(lp189
F0.0
aF0.0
aF0.0
aF0.0
aF0.0
aF0.0
aF0.0
aa(lp190
F160.9414505763653
aF160.27136097225733
aF165.6758735441953
aF190.46492345987707
aF163.46374633969862
aF166.24506026410512
aF164.01803004261455
aa(lp191
F101.3426946180667
aF62.86267409174332
aF90.47387801747524
aF171.39361739906926
aF32.11873398480969
aF33.4535076066672
aF49.106912734948324
aa(lp192
F0.0
aF0.0
aF0.0
aF0.0
aF0.0
aF0.0
aF0.0
aa(lp193
F161.8435830661569
aF161.8089030170992
aF161.5550057618409
aF191.13060065466382
aF166.2036814215831
aF161.8966076708822
aF163.58475595817254
aa(lp194
F48.31226529710145
aF185.4721686052837
aF95.54452603961866
aF73.07916359465392
aF33.71403945809649
aF100.37950361974137
aF31.970870947310473
aa(lp195
F0.0
aF0.0
aF0.0
aF0.0
aF0.0
aF0.0
aF0.0
aa(lp196
F131.33009404670437
aF173.83490945950624
aF119.07415694802295
aF142.12073018642195
aF120.4526750051061
aF120.87635100181132
aF108.67002403034618
aa(lp197
F0.0
aF35.30908734077706
aF17.82587393778138
aF34.26568146545653
aF31.020458073645884
aF0.0
aF166.88528799638357
aa(lp198
F0.0
aF0.0
aF0.0
aF0.0
aF0.0
aF0.0
aF0.0
aa(lp199
F198.85975668771118
aF175.9055615116706
aF177.11900480674484
aF172.92690582241113
aF173.76376766423493
aF172.84831117017728
aF172.2997521976662
aa(lp200
F63.13011389532431
aF122.32204069290344
aF64.58343637465435
aF195.5601275250847
aF119.2180829989629
aF135.32485301966
aF67.9771951307072
aa(lp201
F0.0
aF0.0
aF0.0
aF0.0
aF0.0
aF0.0
aF0.0
aa(lp202
F198.51780178950685
aF160.47370654490115
aF170.93308338116694
aF166.8878932139471
aF168.20759899312912
aF165.3830008710944
aF173.11420447175323
aa(lp203
F33.67550242166329
aF95.74113062645002
aF46.85108966794137
aF190.87785708207676
aF43.24159726695292
aF43.50416362801047
aF64.23341841014513
aa(lp204
F0.0
aF0.0
aF0.0
aF0.0
aF0.0
aF0.0
aF0.0
aa(lp205
F177.9695969211313
aF146.071051484174
aF127.85078091055203
aF163.1099272139728
aF112.7149196390691
aF145.54047821791292
aF123.93402539018639
aa(lp206
F177.32609561115007
aF0.0
aF0.0
aF0.0
aF0.0
aF0.0
aF18.487763075875066
aa(lp207
F0.0
aF0.0
aF0.0
aF0.0
aF0.0
aF0.0
aF0.0
aa(lp208
F0.0
aF0.0
aF0.0
aF0.0
aF0.0
aF0.0
aF0.0
aa(lp209
F0.0
aF0.0
aF0.0
aF0.0
aF0.0
aF0.0
aF0.0
aa(lp210
F0.0
aF0.0
aF0.0
aF0.0
aF0.0
aF0.0
aF0.0
aa(lp211
F0.0
aF0.0
aF0.0
aF0.0
aF0.0
aF0.0
aF0.0
aa(lp212
F0.0
aF0.0
aF0.0
aF0.0
aF0.0
aF0.0
aF0.0
aa(lp213
F0.0
aF0.0
aF0.0
aF0.0
aF0.0
aF0.0
aF0.0
aa(lp214
F0.0
aF0.0
aF0.0
aF0.0
aF0.0
aF0.0
aF0.0
aa(lp215
F0.0
aF0.0
aF0.0
aF0.0
aF0.0
aF0.0
aF0.0
aa(lp216
F0.0
aF0.0
aF0.0
aF0.0
aF0.0
aF0.0
aF0.0
aa(lp217
F150.2652973263598
aF180.05010070863173
aF150.33443085397982
aF150.06795831859617
aF150.3056287249642
aF150.22349066097226
aF149.73773052643202
aa(lp218
F-0.1
aF75.56662183759644
aF44.45470849948497
aF29.125879188905948
aF32.702524257256336
aF45.34365923064969
aF153.73027913750832
aa(lp219
F0.0
aF0.0
aF0.0
aF0.0
aF0.0
aF0.0
aF0.0
aa(lp220
F138.4196669935627
aF120.52857943365973
aF121.25714927107632
aF141.80466280590758
aF191.42254486302394
aF129.60487560316494
aF105.59886077794911
aa(lp221
F19.50099836872357
aF193.25983044968507
aF46.56972768292316
aF34.83463491584649
aF19.82642393829238
aF32.68108228428334
aF32.14926859394338
aa(lp222
F0.0
aF0.0
aF0.0
aF0.0
aF0.0
aF0.0
aF0.0
aa(lp223
F0.0
aF0.0
aF0.0
aF0.0
aF0.0
aF0.0
aF0.0
aa(lp224
F0.0
aF0.0
aF0.0
aF0.0
aF0.0
aF0.0
aF0.0
aa(lp225
F0.0
aF0.0
aF0.0
aF0.0
aF0.0
aF0.0
aF0.0
aa(lp226
F188.83597066706352
aF141.67871120054676
aF115.49624844336384
aF159.07668174643362
aF141.78128333260995
aF141.6967239366876
aF155.9843056578639
aa(lp227
F61.90169487876948
aF193.06683052523945
aF36.35312005856771
aF-0.5
aF49.474080429900866
aF63.785621307956006
aF36.06412438592521
aa(lp228
F0.0
aF0.0
aF0.0
aF0.0
aF0.0
aF0.0
aF0.0
aa(lp229
F194.8899984520018
aF107.69304765704081
aF82.5384154970167
aF74.29960194266229
aF83.1965255759209
aF86.81688188509345
aF92.22979026607189
aa(lp230
F192.05934328769808
aF18.224313766558986
aF34.86824927867971
aF51.51357730589937
aF0.0
aF38.82141240483112
aF18.86740703616577
aa(lp231
F0.0
aF0.0
aF0.0
aF0.0
aF0.0
aF0.0
aF0.0
aa(lp232
F0.0
aF0.0
aF0.0
aF0.0
aF0.0
aF0.0
aF0.0
aa(lp233
F0.0
aF0.0
aF0.0
aF0.0
aF0.0
aF0.0
aF0.0
aa(lp234
F0.0
aF0.0
aF0.0
aF0.0
aF0.0
aF0.0
aF0.0
aa(lp235
F0.0
aF0.0
aF0.0
aF0.0
aF0.0
aF0.0
aF0.0
aa(lp236
F0.0
aF0.0
aF0.0
aF0.0
aF0.0
aF0.0
aF0.0
aa(lp237
F0.0
aF0.0
aF0.0
aF0.0
aF0.0
aF0.0
aF0.0
aa(lp238
F0.0
aF0.0
aF0.0
aF0.0
aF0.0
aF0.0
aF0.0
aa(lp239
F0.0
aF0.0
aF0.0
aF0.0
aF0.0
aF0.0
aF0.0
aa(lp240
F0.0
aF0.0
aF0.0
aF0.0
aF0.0
aF0.0
aF0.0
aa(lp241
F0.0
aF0.0
aF0.0
aF0.0
aF0.0
aF0.0
aF0.0
aa(lp242
F0.0
aF0.0
aF0.0
aF0.0
aF0.0
aF0.0
aF0.0
aa(lp243
F0.0
aF0.0
aF0.0
aF0.0
aF0.0
aF0.0
aF0.0
aa.