(lp0
(lp1
F5.9175652791466575
aF2.534715786150139
aF4.219028012629309
aF2.5414900160640532
aF3.8373383528497325
aF2.565622655064486
aF11.884306061776172
aa(lp2
F18.14648013939866
aF25.097326502778316
aF15.041900491339195
aF14.839440412965846
aF14.440339561806034
aF14.958360607572109
aF17.053579066476072
aa(lp3
F1.6751289330710026
aF1.2316180169233175
aF10.334599756344435
aF1.869117628822686
aF1.8708288341425459
aF1.858265662352249
aF0.8961004132424597
aa(lp4
F14.992796958136616
aF13.60895241031066
aF13.719264340487964
aF13.649325998472207
aF25.09866463743276
aF16.782996606119475
aF15.625879181277075
aa(lp5
F17.808996696822327
aF28.447969628319697
aF15.794688191624225
aF11.704449657559499
aF16.65267072236486
aF18.061300017359855
aF14.73995013637034
aa(lp6
F10.36388697556367
aF7.7228573384819414
aF7.666641450581905
aF4.801400540305942
aF21.87341376891571
aF7.651864239402887
aF7.706139822891106
aa(lp7
F1.7852962882419376
aF1.9594698477508168
aF1.9623245748434612
aF8.362485712214102
aF1.6727056323693867
aF2.5260918087385433
aF1.7116784335846864
aa(lp8
F13.395225387264803
aF26.998719810743435
aF9.778831098466771
aF13.036207341595734
aF13.272833720015786
aF14.48308572993994
aF13.399724451702177
aa(lp9
F1.0437874507889078
aF1.057513567355755
aF13.866435539214361
aF1.1362977842776105
aF0.2544173072239708
aF1.1411582900867818
aF0.9177127531259768
aa(lp10
F21.58150313982506
aF16.998916348884983
aF18.3805173733968
aF15.376350589509718
aF15.356841812382587
aF15.47361309759533
aF16.79351720293073
aa(lp11
F33.51367056082201
aF27.21326900797525
aF22.48295312013016
aF23.53939315254129
aF23.308340049845388
aF26.963384320830222
aF27.256687583847228
aa(lp12
F18.595080818150166
aF10.030084366808234
aF13.797138249599925
aF13.722936376458252
aF13.791403839201823
aF13.12827013739652
aF13.175496093880213
aa(lp13
F34.80510068787693
aF25.576136510100604
aF21.45437904405199
aF23.546214447248346
aF25.93309299100094
aF26.49643920670313
aF22.94329513879185
aa(lp14
F37.39295411178026
aF29.333962791934525
aF18.207946923052504
aF18.375440894242274
aF21.416928541312988
aF25.751512502705864
aF23.21495642011397
aa(lp15
F34.11129507532089
aF7.63853180706116
aF17.781949552933828
aF9.462712064006823
aF21.634128979301778
aF24.700779038984248
aF11.96511617788983
aa(lp16
F20.98645176021311
aF14.05665105206815
aF14.685581643474515
aF13.284418468741624
aF9.754906620888416
aF13.556369946705955
aF13.415830721232886
aa(lp17
F32.09278567479654
aF15.738694063032046
aF14.480590518927148
aF16.697855185323007
aF16.71628484631129
aF16.342783389414528
aF17.3963206851145
aa(lp18
F20.060008769202067
aF0.0
aF3.695792519932958
aF7.921018326258885
aF1.7271213380991863
aF3.116844304576605
aF3.709140886031687
aa(lp19
F-0.2
aF0.0
aF3.4807170056397796
aF0.0
aF0.0
aF0.0
aF0.0
aa(lp20
F0.0
aF0.0
aF0.0
aF0.0
aF4.339495827978221
aF0.0
aF0.0
aa(lp21
F0.0
aF-1.0
aF0.0
aF19.02768818509604
aF0.0
aF0.0
aF0.0
aa(lp22
F0.0
aF0.0
aF0.0
aF0.0
aF0.0
aF0.0
aF2.239520055883905
aa(lp23
F0.0
aF0.0
aF0.0
aF0.0
aF0.0
aF0.0
aF0.0
aa(lp24
F0.0
aF0.0
aF0.0
aF0.0
aF26.178971645365273
aF0.0
aF0.0
aa(lp25
F0.0
aF21.70252842589644
aF0.0
aF0.0
aF-1.0
aF0.0
aF-1.0
aa(lp26
F-0.2
aF0.0
aF17.692141826159624
aF0.0
aF-1.0
aF0.0
aF0.09090392253374394
aa(lp27
F0.0
aF0.0
aF0.0
aF5.2908359234717075
aF-1.0
aF0.0
aF-0.6345211328123499
aa(lp28
F15.07704354408277
aF11.808019634136219
aF15.050858778305146
aF26.56291004269833
aF12.637157586119084
aF16.667722931249404
aF13.47478874633401
aa(lp29
F17.457109499794
aF27.630335305776246
aF17.409598869485578
aF18.288558563935975
aF15.392001915459563
aF15.421540151258498
aF15.63582599850641
aa(lp30
F9.5243137221587
aF10.498170586899237
aF12.926997934954711
aF24.84046592788177
aF9.271059456075152
aF9.906749115342544
aF9.036920768359835
aa(lp31
F13.7055058825827
aF12.8301216744686
aF12.476381493348
aF19.282973675374762
aF27.844682285795372
aF19.12134493928048
aF13.236214785956763
aa(lp32
F8.486671423894297
aF0.0
aF2.3252163851648198
aF25.888510006730208
aF0.0
aF0.007226025193165897
aF5.951920229647475
aa(lp33
F11.367401252066863
aF-1.0
aF4.600026168878035
aF21.49719492047023
aF9.966460250384634
aF6.770434211564876
aF3.384552354898699
aa(lp34
F14.870941223641795
aF7.965524455272074
aF6.958733049924051
aF25.12436564212588
aF6.623614038371413
aF9.007600515731752
aF7.444653140438167
aa(lp35
F0.0
aF27.42867782215272
aF0.0
aF0.0
aF6.04621114490687
aF0.0
aF8.465774579879579
aa(lp36
F-0.2
aF-1.0
aF2.603422297221542
aF24.255146394355005
aF-1.0
aF6.972783877021263
aF0.0
aa(lp37
F31.651755796708194
aF22.304842762110837
aF22.894368926994083
aF26.09548635251133
aF23.574720857027245
aF26.527512299963302
aF25.377337919770763
aa(lp38
F33.928605216746945
aF23.924301938280585
aF21.055546903575156
aF26.318155057122457
aF12.172494840009694
aF11.180466217839168
aF19.278142077784224
aa(lp39
F31.892081393308555
aF10.440803000175212
aF16.35802161440694
aF15.847146364208097
aF16.673871613432873
aF16.986686026026106
aF18.49142743849013
aa(lp40
F36.03036235284791
aF11.608084395481773
aF19.027754022293475
aF17.74667372800618
aF19.222600454937954
aF21.228153299764855
aF13.192798984765789
aa(lp41
F17.19849999509272
aF17.059344933665148
aF11.658836072951104
aF9.95925254746241
aF9.863764509103294
aF13.665996572495521
aF29.137666371530685
aa(lp42
F30.637163060419557
aF-1.0
aF0.0
aF10.148768355255191
aF5.570078973480084
aF13.174202366899756
aF0.0
aa(lp43
F34.36774388646135
aF10.617348069538616
aF9.694589802384385
aF15.042488644778889
aF9.365508254188585
aF10.008694833461906
aF4.456759610140668
aa(lp44
F35.59445429851414
aF4.117894583066545
aF4.476544773699261
aF6.074697530026626
aF3.6363546143485
aF10.751574576934397
aF-1.0
aa(lp45
F0.0
aF2.490710520066845
aF0.0
aF29.608945930628344
aF1.8088821048318238
aF0.0
aF2.421976885544505
aa(lp46
F0.0
aF0.0
aF0.0
aF0.0
aF0.0
aF0.0
aF0.0
aa(lp47
F0.0
aF0.0
aF0.0
aF0.0
aF0.0
aF0.0
aF0.0
aa(lp48
F0.0
aF0.0
aF0.0
aF0.0
aF0.0
aF0.0
aF21.48457354842593
aa(lp49
F0.0
aF0.0
aF0.0
aF0.0
aF0.0
aF0.0
aF4.5557651700928075
aa(lp50
F0.0
aF0.0
aF0.0
aF0.0
aF0.0
aF0.0
aF0.0
aa(lp51
F0.0
aF-1.0
aF0.0
aF23.368846358344303
aF0.0
aF0.0
aF0.0
aa(lp52
F0.0
aF23.270930454443175
aF0.0
aF0.0
aF0.0
aF0.0
aF0.0
aa(lp53
F0.0
aF27.814974303574655
aF0.0
aF0.0
aF0.0
aF0.0
aF-0.05472056828298233
aa(lp54
F0.0
aF0.0
aF0.0
aF24.030694409860885
aF-1.0
aF0.0
aF0.0
aa(lp55
F2.014405224546141
aF2.010397516531872
aF1.9954841909358765
aF1.2670657111820036
aF8.26140489901867
aF2.002027819165611
aF0.9796344193510755
aa(lp56
F14.417547317665354
aF23.20122682397092
aF13.16823600301473
aF13.549399993818827
aF13.227178344328706
aF13.22098123606848
aF10.112811984094328
aa(lp57
F1.6064870444656763
aF0.4210765070844621
aF2.4605585818866293
aF0.9975385977751403
aF9.904823208800519
aF1.32700434410395
aF1.2953938036762647
aa(lp58
F6.998603654253705
aF13.090208414047705
aF3.647608105252494
aF7.423029474052964
aF30.33444553168163
aF5.468587811485587
aF8.086263099287025
aa(lp59
F9.124537650944935
aF10.628546471134161
aF5.648889576742378
aF7.586061298816202
aF28.505516853338715
aF13.569055037638746
aF0.0
aa(lp60
F0.0
aF-1.0
aF0.0
aF-1.0
aF24.03626382077621
aF3.9489562075350118
aF-1.0
aa(lp61
F1.1755886674879905
aF1.1643071030910652
aF12.91157795131078
aF-1.3232081180187842
aF-1.5436824275041519
aF1.1763837207851058
aF-0.39733747207226977
aa(lp62
F0.0
aF24.808949492719744
aF5.530304867299353
aF-1.0
aF1.330898486583309
aF0.27791943282700193
aF0.0
aa(lp63
F0.0
aF0.0
aF0.0
aF0.0
aF0.0
aF0.0
aF0.0
aa(lp64
F20.482782959118044
aF13.3399381763005
aF13.330710416824987
aF11.914824723417505
aF13.227772032140727
aF13.098360529017055
aF12.559512524850348
aa(lp65
F31.71745304671252
aF16.363870361074383
aF20.015434178563726
aF18.42685267552445
aF16.538246686309442
aF19.748200120241066
aF18.5747537335221
aa(lp66
F20.051992168338128
aF5.992171388284498
aF6.766487839725343
aF5.646370455537959
aF0.0
aF7.333679469546802
aF5.5742742801736
aa(lp67
F35.986321435970275
aF5.520414179949623
aF13.861219366322626
aF14.102899686606808
aF13.785898892455327
aF12.623956862754692
aF0.0
aa(lp68
F34.83768830568353
aF11.283672559444735
aF12.290194657723374
aF10.962975440807478
aF0.0
aF5.801467048142562
aF0.0
aa(lp69
F0.0
aF3.4162624793945753
aF3.7059055315848504
aF0.0
aF29.767243271963103
aF0.0
aF0.0
aa(lp70
F20.957378329992324
aF4.09305973397694
aF6.81544982716955
aF0.0
aF1.117799478852443
aF3.0501503056559907
aF3.2243760133818515
aa(lp71
F31.14811228306812
aF0.3288195383721684
aF0.0
aF3.913375000280853
aF-1.0
aF0.0
aF7.59194122236108
aa(lp72
F0.0
aF0.0
aF0.0
aF0.0
aF0.0
aF0.0
aF0.0
aa(lp73
F0.0
aF0.0
aF0.0
aF0.0
aF0.0
aF0.0
aF17.21977276550918
aa(lp74
F0.0
aF0.0
aF18.184270361678088
aF0.0
aF0.0
aF0.0
aF-1.0
aa(lp75
F0.0
aF-1.0
aF0.0
aF0.0
aF17.921118195280417
aF0.0
aF0.0
aa(lp76
F-0.2
aF0.0
aF0.0
aF0.0
aF0.0
aF0.0
aF23.463544768240606
aa(lp77
F0.0
aF0.0
aF0.0
aF0.0
aF0.0
aF0.0
aF15.189103786108998
aa(lp78
F0.0
aF0.0
aF0.0
aF0.0
aF22.427925351948147
aF0.0
aF0.0
aa(lp79
F0.0
aF0.0
aF18.21868548638635
aF0.0
aF0.0
aF0.0
aF0.0
aa(lp80
F0.0
aF27.22196751595439
aF0.0
aF0.0
aF0.0
aF0.0
aF0.0
aa(lp81
F0.0
aF0.0
aF0.0
aF0.0
aF0.0
aF0.0
aF0.0
aa(lp82
F14.258246528057178
aF13.333146509487577
aF29.38811940937853
aF13.471501255580755
aF14.586075075205287
aF14.664339777475139
aF14.32460421737835
aa(lp83
F13.784327194455516
aF26.34852545295807
aF19.048451026748406
aF7.801505411433238
aF16.682259333109887
aF15.13533422307778
aF11.079138858116742
aa(lp84
F7.190177026982125
aF8.610897543865933
aF27.245357009647194
aF9.796312681596353
aF12.5571103995234
aF15.050665576203587
aF10.858858662025074
aa(lp85
F15.694945675785299
aF14.476615645971899
aF15.949559203208883
aF12.805220791179215
aF28.946497080586475
aF15.719127608905865
aF14.363773058480337
aa(lp86
F12.872119016865732
aF7.975950465497233
aF10.78722263157524
aF3.9207557588434048
aF10.373689295571316
aF13.060949001958196
aF27.250156681705995
aa(lp87
F4.317454574096361
aF0.0
aF28.421970743668147
aF1.9523185699738748
aF0.0
aF0.0
aF0.8028951415649767
aa(lp88
F8.904654715816854
aF11.100607725616028
aF23.55509765662193
aF11.641808321585389
aF12.335463311323537
aF12.023172535401173
aF12.358847415076792
aa(lp89
F3.239034559913018
aF3.6386397587740795
aF21.02977860899753
aF5.217492831120303
aF-0.5922986724710331
aF0.005819569095892563
aF6.844959667847995
aa(lp90
F-0.2
aF0.0
aF18.589104868612743
aF0.0
aF3.3293275086551115
aF0.0
aF-0.9396888068105933
aa(lp91
F34.163551760486165
aF24.581023595183737
aF26.71239286959335
aF24.435457916636636
aF23.689574564843785
aF27.26864918687604
aF25.802291887295866
aa(lp92
F33.771673388620684
aF20.000167255189567
aF9.26148154548158
aF8.489743232868774
aF5.356006811078214
aF22.73871945643078
aF14.81830886504477
aa(lp93
F35.31696722743406
aF7.822432669822749
aF6.888144435595196
aF9.18234214700832
aF4.942601192234965
aF14.640961786085708
aF14.316451930259486
aa(lp94
F35.895235298428815
aF14.951865333848406
aF23.948030417710054
aF19.557838983430862
aF14.53910383750501
aF21.397346579490588
aF20.103924192669485
aa(lp95
F32.683250391932866
aF11.299657895007012
aF5.316929334253874
aF8.643602948402341
aF0.0
aF5.577533890896368
aF12.607305027413453
aa(lp96
F34.92797538298853
aF-1.1987371404738862
aF18.27257164298883
aF11.0558406086965
aF5.427185606567878
aF8.912181419681609
aF4.276638934317839
aa(lp97
F32.076512730805376
aF17.288776624479976
aF10.10418439934229
aF17.051372882774572
aF8.276170619604695
aF18.082822322794666
aF16.562084258904722
aa(lp98
F30.440832651882015
aF13.442835028413135
aF4.3263516152895205
aF7.553524939998182
aF4.448527896213672
aF0.0
aF0.0
aa(lp99
F0.0
aF0.7139656579585285
aF28.21437778334586
aF8.287199589030713
aF4.87856237498001
aF1.1010396236988864
aF-0.3821278411452873
aa(lp100
F0.0
aF0.0
aF0.0
aF4.152531316224555
aF0.0
aF0.0
aF0.0
aa(lp101
F0.0
aF0.0
aF0.0
aF0.0
aF0.0
aF0.0
aF0.0
aa(lp102
F0.0
aF0.0
aF0.0
aF0.0
aF19.647792220074205
aF0.0
aF0.0
aa(lp103
F0.0
aF0.0
aF0.0
aF0.0
aF0.0
aF0.0
aF0.0
aa(lp104
F0.0
aF0.0
aF0.0
aF0.0
aF0.0
aF0.0
aF0.0
aa(lp105
F0.0
aF0.0
aF26.03941951913577
aF0.0
aF0.0
aF0.0
aF0.0
aa(lp106
F0.0
aF23.17252610306476
aF0.0
aF0.0
aF0.0
aF0.0
aF0.0
aa(lp107
F0.0
aF0.0
aF0.0
aF19.464864552211615
aF0.0
aF0.0
aF0.0
aa(lp108
F0.0
aF0.0
aF0.0
aF16.842504765870796
aF0.0
aF0.0
aF0.0
aa(lp109
F13.31947098110162
aF16.340022752205474
aF17.98029612319873
aF29.15630453741564
aF13.884998500999334
aF16.97351000514761
aF12.862859646689174
aa(lp110
F0.0
aF24.419262224260812
aF0.0
aF0.0
aF0.0
aF0.0
aF3.487788194921791
aa(lp111
F7.991561589643938
aF-0.20673361345292252
aF23.957756484089415
aF6.442761423820058
aF0.0
aF9.724950321318573
aF0.0
aa(lp112
F8.242311192634059
aF6.521539267172866
aF29.186193346035594
aF13.012949702500132
aF13.003906464684498
aF9.533693555620065
aF8.076443389236463
aa(lp113
F4.799717967583276
aF27.461978933049465
aF6.002168791033303
aF6.670325619750791
aF0.0
aF0.0
aF5.567223632009658
aa(lp114
F-0.2
aF-1.0
aF0.0
aF28.490465960994086
aF3.4451517397503184
aF0.0
aF-0.9988986513116288
aa(lp115
F-0.2
aF0.0
aF0.0
aF30.454077824255467
aF0.0
aF5.065557885028174
aF0.0
aa(lp116
F-0.2
aF5.0735336437684495
aF0.0
aF29.181073977584532
aF-1.0
aF0.0
aF0.0
aa(lp117
F0.0
aF-1.0
aF0.0
aF25.01455778583531
aF0.0
aF0.0
aF-1.0
aa(lp118
F35.70053712737123
aF14.03451393274932
aF26.55724241361574
aF22.263654109526755
aF17.863626587387902
aF7.1504692426070005
aF23.06950820064535
aa(lp119
F6.412719191131462
aF11.450948717450224
aF10.93024421624006
aF14.88366156399315
aF14.592225840506964
aF17.66568436370269
aF28.93411453547798
aa(lp120
F34.02422389192302
aF4.701962703770345
aF6.276529993918835
aF5.966804018673849
aF7.817118133793436
aF6.025084350784957
aF8.454486950492797
aa(lp121
F35.16898567230827
aF13.575944420493345
aF10.365511101610732
aF14.35263924881953
aF13.713344103561173
aF18.675999305875955
aF10.776674004073831
aa(lp122
F35.383145188497515
aF3.9628759006291627
aF12.472966662995994
aF0.0
aF10.237185059876339
aF10.880116294049433
aF0.0
aa(lp123
F35.81871578770574
aF0.0
aF0.0
aF0.0
aF0.0
aF0.0
aF0.0
aa(lp124
F0.0
aF3.9299311710373304
aF4.306874675070227
aF10.015536548177495
aF3.729851332307053
aF5.68107713982569
aF26.547651492443098
aa(lp125
F0.0
aF0.0
aF0.00015866514460476469
aF5.189227352455239
aF2.913120510100123
aF0.0
aF24.131670568324243
aa(lp126
F34.976670857422874
aF0.0
aF0.0
aF0.0
aF0.0
aF0.0
aF0.0
aa(lp127
F0.0
aF0.0
aF0.0
aF3.5469203799651403
aF0.0
aF0.0
aF0.0
aa(lp128
F0.0
aF0.0
aF0.0
aF0.0
aF0.0
aF0.0
aF0.0
aa(lp129
F-0.2
aF0.0
aF0.0
aF21.692392113104297
aF0.0
aF0.0
aF0.0
aa(lp130
F0.0
aF0.0
aF0.0
aF0.0
aF0.0
aF0.0
aF6.001949801984575
aa(lp131
F0.0
aF0.0
aF0.0
aF0.0
aF0.0
aF0.0
aF0.0
aa(lp132
F0.0
aF0.0
aF0.0
aF0.0
aF0.0
aF0.0
aF25.285450503117964
aa(lp133
F0.0
aF0.0
aF24.539174014047664
aF0.0
aF0.0
aF0.0
aF0.0
aa(lp134
F-0.2
aF0.0
aF26.186495160234138
aF0.0
aF0.0
aF0.0
aF0.0
aa(lp135
F-0.2
aF-1.0
aF0.0
aF23.020188327314
aF0.0
aF0.0
aF0.0
aa(lp136
F12.574026509373534
aF6.633192703774758
aF27.24197113836729
aF12.12742300197738
aF12.591781924637743
aF8.01680066233007
aF12.665507379825893
aa(lp137
F3.0311813854526934
aF22.12287846320442
aF0.15453128150849596
aF2.4172144546808774
aF3.1265109277504113
aF0.0
aF-1.0
aa(lp138
F0.23506303015954716
aF0.0
aF24.561559657473236
aF-1.0
aF8.001359110969728
aF7.354863667800805
aF0.0
aa(lp139
F5.602644186730745
aF2.6691072865846066
aF28.469734105740873
aF9.918705631333914
aF11.118582072362962
aF6.252172106417565
aF11.236495144641733
aa(lp140
F0.0
aF0.0
aF25.88970444462762
aF0.0
aF8.088139251512862
aF0.0
aF0.0
aa(lp141
F-0.2
aF0.0
aF24.448128999180476
aF0.0
aF0.0
aF0.0
aF0.0
aa(lp142
F1.043840631061821
aF0.0
aF20.96140358579997
aF-1.0
aF-1.0
aF0.0
aF-1.0
aa(lp143
F0.0
aF19.001444982382434
aF0.0
aF0.0
aF0.0
aF0.0
aF-1.0
aa(lp144
F0.0
aF0.0
aF0.0
aF0.0
aF0.0
aF0.0
aF0.0
aa(lp145
F32.854282607998115
aF14.209506614903272
aF12.600333060630494
aF9.953630734425747
aF7.609147018523494
aF20.202173155119787
aF11.596830175488499
aa(lp146
F10.330810005677268
aF3.3457930772612943
aF28.869130135234045
aF7.685576089448066
aF4.7568058064514736
aF6.567514419477124
aF0.0
aa(lp147
F30.692739617157585
aF0.0
aF0.0
aF0.0
aF0.0
aF0.0
aF0.0
aa(lp148
F32.962358652949476
aF0.0
aF16.968106670593766
aF3.836897404535482
aF11.168739293362002
aF6.051489168337018
aF4.518396594230284
aa(lp149
F33.52335857586309
aF0.0
aF0.0
aF-1.0
aF0.0
aF0.0
aF0.0
aa(lp150
F0.0
aF0.0
aF0.0
aF0.0
aF29.854915239600327
aF0.0
aF-1.0
aa(lp151
F0.0
aF2.184167833237771
aF27.996667232401244
aF3.8822537709699123
aF3.510657970953731
aF5.8845429772508435
aF0.0
aa(lp152
F28.814349727284142
aF0.0
aF0.0
aF0.0
aF0.0
aF0.0
aF0.0
aa(lp153
F0.0
aF0.0
aF0.0
aF0.0
aF0.0
aF0.0
aF0.0
aa(lp154
F-0.2
aF0.0
aF28.770500884641066
aF-1.0
aF0.0
aF0.0
aF0.0
aa(lp155
F0.0
aF29.09962019066078
aF0.0
aF0.0
aF0.0
aF0.0
aF0.0
aa(lp156
F0.0
aF0.0
aF24.06093802057787
aF0.0
aF0.0
aF0.0
aF0.0
aa(lp157
F0.0
aF0.0
aF0.0
aF-1.0
aF0.0
aF0.0
aF22.748235210469
aa(lp158
F-0.2
aF0.0
aF0.0
aF-1.0
aF26.412291357564754
aF0.0
aF0.0
aa(lp159
F-0.2
aF0.0
aF27.963564814653104
aF0.0
aF0.0
aF0.0
aF0.0
aa(lp160
F-0.2
aF0.0
aF28.91993853237967
aF3.6614952621709396
aF-1.0
aF0.0
aF2.6057906539228743
aa(lp161
F0.0
aF0.0
aF25.40408759424181
aF0.0
aF-1.0
aF0.0
aF-0.34426006003938225
aa(lp162
F0.0
aF0.0
aF0.0
aF0.0
aF0.0
aF0.0
aF0.0
aa(lp163
F1.8057827901812455
aF8.365055376539388
aF1.271884302214453
aF1.8949055903984917
aF1.889136198062582
aF1.8727960603048446
aF1.526869962274451
aa(lp164
F6.4060340584667355
aF26.482102327982915
aF11.316085875909597
aF4.7152668597314165
aF9.678801149360563
aF15.366901308355288
aF15.05513908794934
aa(lp165
F1.089043445919157
aF-0.29896211641348996
aF-0.3674682641256486
aF0.4241965736984065
aF12.61562883658876
aF0.4237351994167941
aF0.39121544341989567
aa(lp166
F8.011885110304286
aF7.763244368111303
aF7.596857924490857
aF4.799118974343689
aF26.378475881484935
aF4.8362040485951825
aF5.979706592365774
aa(lp167
F-0.2
aF29.806942371337318
aF-1.0
aF3.525291384522027
aF0.0
aF4.654694721309675
aF0.0
aa(lp168
F0.8773855601588105
aF0.0
aF0.0
aF1.1257921850142787
aF21.220491386286152
aF0.0
aF-0.9713644406253972
aa(lp169
F1.6047491289804916
aF14.631716691624167
aF0.6407770279836793
aF1.9849955011816718
aF-0.011084198127957648
aF2.0069350501702155
aF1.0074785546049898
aa(lp170
F3.576608883970176
aF27.242047068136515
aF2.1734317073561207
aF5.3265831067170275
aF2.1640696972766995
aF4.011809116291801
aF-0.3842478667031455
aa(lp171
F0.0
aF0.0
aF0.0
aF0.0
aF0.0
aF0.0
aF0.0
aa(lp172
F17.163598568553528
aF14.638995518145082
aF10.731824534368299
aF13.742068479384375
aF14.616980266428902
aF14.745313663954803
aF14.821444816304094
aa(lp173
F33.86418101610141
aF9.831987090392913
aF8.174676976851904
aF0.0
aF4.87193164525223
aF17.50030644694618
aF12.218279865402657
aa(lp174
F19.97736789727458
aF0.0
aF5.151018310855459
aF0.0
aF3.881607382775642
aF0.0
aF-1.0
aa(lp175
F31.89029318501254
aF9.642121350422206
aF13.365370444370452
aF12.11089802225682
aF18.087339150091125
aF19.911643051153654
aF7.939164322926077
aa(lp176
F35.37793096729006
aF6.70624631182372
aF0.0
aF4.158685252785626
aF6.619468932576708
aF7.446621145818039
aF-0.9969001598800364
aa(lp177
F0.0
aF1.631106808471903
aF1.053732428953952
aF2.8154882137147226
aF24.74955318656132
aF2.8256710975748436
aF2.092848556178468
aa(lp178
F21.93879564542879
aF12.402758662869637
aF4.312962627422324
aF0.0
aF1.7843623510458055
aF3.225194487351089
aF8.927861644652463
aa(lp179
F32.54788354874162
aF4.584716303883229
aF0.20952675732586634
aF4.669755570271906
aF-1.0
aF0.0
aF8.21564777518104
aa(lp180
F0.0
aF0.0
aF0.0
aF0.0
aF0.0
aF0.0
aF0.0
aa(lp181
F-0.2
aF20.480522472265015
aF0.0
aF0.0
aF0.0
aF0.0
aF-1.0
aa(lp182
F0.0
aF0.0
aF-1.0
aF0.0
aF0.0
aF0.0
aF12.958129090398533
aa(lp183
F0.0
aF0.0
aF0.0
aF19.08083652556803
aF0.0
aF0.0
aF0.0
aa(lp184
F0.0
aF20.90678428066252
aF-1.0
aF0.0
aF0.0
aF0.0
aF0.0
aa(lp185
F-0.2
aF0.0
aF0.0
aF21.671889985943857
aF0.0
aF0.0
aF0.0
aa(lp186
F0.0
aF0.0
aF-1.0
aF19.73515139243959
aF0.0
aF0.0
aF0.0
aa(lp187
F0.0
aF19.87091988454767
aF0.0
aF0.0
aF0.0
aF0.0
aF0.0
aa(lp188
F-0.2
aF28.949536785981046
aF0.0
aF0.0
aF0.0
aF0.0
aF0.0
aa(lp189
F0.0
aF0.0
aF0.0
aF0.0
aF0.0
aF0.0
aF0.0
aa(lp190
F13.108155325640553
aF10.285192336147595
aF8.528556097849421
aF24.340198257155635
aF8.265973549885064
aF13.348025044569326
aF10.628580750878145
aa(lp191
F10.938964987041466
aF28.510897043864368
aF10.83455296882363
aF6.027786025874978
aF4.662724730794284
aF11.409664886836865
aF7.870729996095633
aa(lp192
F3.51707652717125
aF2.872047168346609
aF4.364926546911025
aF22.13365397208033
aF1.1452215230147544
aF4.049017685600071
aF0.0
aa(lp193
F-0.2
aF6.010640491004915
aF7.305754676574397
aF22.759111537128792
aF7.749796751719112
aF0.0
aF0.0
aa(lp194
F7.260344322478556
aF30.22543191869091
aF0.0
aF0.0
aF0.0
aF0.0
aF0.0
aa(lp195
F-0.2
aF-1.0
aF-1.0
aF18.402039531527734
aF0.0
aF0.0
aF-0.2692752071235579
aa(lp196
F1.4261564102101676
aF3.6056561705084245
aF0.0
aF22.525516422523484
aF1.684464051413608
aF0.863462196218674
aF2.006799457458221
aa(lp197
F0.0
aF22.650906129258814
aF0.0
aF0.0
aF0.0
aF0.0
aF-1.0
aa(lp198
F0.0
aF0.0
aF0.0
aF0.0
aF0.0
aF0.0
aF0.0
aa(lp199
F30.742513090864243
aF14.461743791260904
aF13.818163382104206
aF17.119166179467445
aF16.196459078089973
aF13.940985109188956
aF14.278034763788273
aa(lp200
F34.92165122671632
aF7.983612091517464
aF11.499220994422494
aF10.819170191936053
aF0.0
aF6.3210162472921905
aF5.254794209813497
aa(lp201
F30.22778728539178
aF-1.0
aF7.57887373319479
aF0.0
aF4.265455079247598
aF0.0
aF5.71455268732941
aa(lp202
F28.02858043786855
aF0.0
aF11.673099044267033
aF0.0
aF0.0
aF10.056221211346838
aF6.246559662395576
aa(lp203
F35.88350495328996
aF0.0
aF0.0
aF0.0
aF0.0
aF0.0
aF0.0
aa(lp204
F27.526288141260096
aF0.0
aF-1.0
aF0.0
aF0.0
aF5.148297442520126
aF0.0
aa(lp205
F29.484353630491366
aF6.183148671493342
aF0.0
aF0.0
aF1.3125415968102951
aF6.318396108424896
aF-1.0
aa(lp206
F0.0
aF0.0
aF0.0
aF8.89801481928314
aF-0.08186108655801264
aF0.0
aF0.0
aa(lp207
F0.0
aF0.0
aF0.0
aF0.0
aF0.0
aF0.0
aF0.0
aa(lp208
F0.0
aF22.356991764224972
aF-1.0
aF0.0
aF0.0
aF0.0
aF0.0
aa(lp209
F0.0
aF0.0
aF0.0
aF0.0
aF0.0
aF0.0
aF21.715591336591242
aa(lp210
F-0.2
aF-1.0
aF0.0
aF0.0
aF21.251088920593638
aF0.0
aF-1.0
aa(lp211
F0.0
aF0.0
aF-1.0
aF0.0
aF28.64129911029356
aF0.0
aF-1.0
aa(lp212
F0.0
aF0.0
aF-1.0
aF0.0
aF0.0
aF0.0
aF25.378423984693892
aa(lp213
F0.0
aF0.0
aF0.0
aF24.058976569995938
aF0.0
aF0.0
aF0.0
aa(lp214
F-0.2
aF0.0
aF-1.0
aF24.794931473124137
aF-1.0
aF0.0
aF-1.0
aa(lp215
F-0.2
aF25.88555542323973
aF0.0
aF0.0
aF0.0
aF0.0
aF0.0
aa(lp216
F0.0
aF0.0
aF0.0
aF0.0
aF0.0
aF0.0
aF0.0
aa(lp217
F1.6202933423905825
aF1.6232647922052788
aF0.9296351007717978
aF0.46760898176566323
aF10.061432675278116
aF1.6223859188797751
aF1.5903442704663686
aa(lp218
F3.633425791586445
aF22.095163293850757
aF6.19094780441605
aF2.10881995538461
aF4.156700766651825
aF0.0
aF2.5870520073151684
aa(lp219
F0.0
aF0.0
aF0.0
aF0.0
aF0.0
aF0.0
aF0.0
aa(lp220
F3.0977603869400605
aF6.601780931008001
aF3.341042465852542
aF2.1835347890651606
aF25.217017519700963
aF0.0
aF-1.0492078831098581
aa(lp221
F-0.2
aF0.0
aF-1.0
aF-1.0
aF18.907881740788916
aF0.0
aF-0.5250383087454763
aa(lp222
F0.0
aF0.0
aF0.0
aF0.0
aF0.0
aF0.0
aF0.0
aa(lp223
F0.0
aF0.0
aF0.0
aF0.0
aF0.0
aF0.0
aF0.0
aa(lp224
F0.0
aF0.0
aF0.0
aF0.0
aF0.0
aF0.0
aF0.0
aa(lp225
F0.0
aF0.0
aF0.0
aF0.0
aF0.0
aF0.0
aF0.0
aa(lp226
F17.2387175847346
aF2.3139589556976756
aF1.773094213296789
aF2.1960149087757403
aF11.449471578007355
aF9.625231461270193
aF8.078370978920352
aa(lp227
F32.186848768699384
aF0.0
aF0.0
aF0.0
aF0.0
aF10.483067961715195
aF7.8969452324431515
aa(lp228
F0.0
aF0.0
aF0.0
aF0.0
aF0.0
aF0.0
aF0.0
aa(lp229
F32.45034170242943
aF4.514886862240252
aF0.0
aF0.0
aF0.0
aF0.0
aF0.0
aa(lp230
F0.0
aF2.7776226372231365
aF-1.0
aF0.0
aF27.26290733478433
aF0.0
aF0.0
aa(lp231
F0.0
aF0.0
aF0.0
aF0.0
aF0.0
aF0.0
aF0.0
aa(lp232
F0.0
aF0.0
aF0.0
aF0.0
aF0.0
aF0.0
aF0.0
aa(lp233
F0.0
aF0.0
aF0.0
aF0.0
aF0.0
aF0.0
aF0.0
aa(lp234
F0.0
aF0.0
aF0.0
aF0.0
aF0.0
aF0.0
aF0.0
aa(lp235
F-0.2
aF0.0
aF-1.0
aF-1.0
aF0.0
aF0.0
aF16.16602739725606
aa(lp236
F0.0
aF0.0
aF0.0
aF0.0
aF18.795449312457414
aF0.0
aF0.0
aa(lp237
F0.0
aF0.0
aF0.0
aF0.0
aF0.0
aF0.0
aF0.0
aa(lp238
F0.0
aF0.0
aF-1.0
aF0.0
aF0.0
aF0.0
aF16.19186395301354
aa(lp239
F-0.2
aF0.0
aF-1.0
aF0.0
aF26.538690234119063
aF0.0
aF0.0
aa(lp240
F0.0
aF0.0
aF0.0
aF0.0
aF0.0
aF0.0
aF0.0
aa(lp241
F0.0
aF0.0
aF0.0
aF0.0
aF0.0
aF0.0
aF0.0
aa(lp242
F0.0
aF0.0
aF0.0
aF0.0
aF0.0
aF0.0
aF0.0
aa(lp243
F0.0
aF0.0
aF0.0
aF0.0
aF0.0
aF0.0
aF0.0
aa.