(lp0
(lp1
F5.54139429165051
aF3.6842430660883414
aF4.289532853181611
aF4.734490005186915
aF4.69894914607371
aF3.2599868822541094
aF14.392938110179404
aa(lp2
F16.463181472659873
aF25.79624057974135
aF16.12420688977242
aF14.481624907515863
aF13.459715561833363
aF15.158169253458754
aF13.32924647116576
aa(lp3
F2.49971941280618
aF0.8692708145008353
aF2.897405972437677
aF2.232855645640245
aF14.254926875304369
aF4.560918039491678
aF2.6374801842238327
aa(lp4
F16.057491967536773
aF14.857265431293726
aF15.19757966241465
aF14.071926969322218
aF28.281470905743543
aF16.056416057640035
aF14.057116863561223
aa(lp5
F16.734705642759568
aF15.271605393567327
aF12.048888690567873
aF14.370131123012285
aF26.6823060054552
aF15.367192587039824
aF14.407709663978537
aa(lp6
F5.660285016570694
aF5.437032187878057
aF5.663049823928176
aF9.7321401590721
aF25.675005331874345
aF12.085900680705837
aF7.2223172283015735
aa(lp7
F2.203883607025419
aF2.4058176240034554
aF10.059682404312483
aF2.39222790237557
aF1.5888005640896632
aF2.409482300500265
aF2.0431879801787547
aa(lp8
F13.395394586316673
aF22.505152973999422
aF12.251141201481662
aF13.38236902247755
aF13.648985784657889
aF13.690184728835685
aF15.6857390446511
aa(lp9
F1.7681454116046522
aF0.9358213372879862
aF10.347036275958349
aF3.1011274252797127
aF0.6017687031981799
aF1.9399859301547546
aF1.3519416011705563
aa(lp10
F23.679909999731773
aF14.950828794761012
aF16.252761727579376
aF16.326959460960257
aF16.352804953155122
aF16.078767145635
aF14.99986162423156
aa(lp11
F34.855112513248066
aF28.718327195498418
aF25.216553314173144
aF24.844708672829128
aF23.949645671416356
aF26.534081731323376
aF24.462362419769182
aa(lp12
F22.391970869687945
aF11.96917752933753
aF13.88270641513547
aF14.079693777066035
aF13.587681688035278
aF13.963175236509088
aF12.578375204718586
aa(lp13
F35.616008388173086
aF24.7980921309291
aF24.937824474770398
aF24.08045628503789
aF27.38037568710634
aF27.584654446446685
aF25.74563551511151
aa(lp14
F35.89386982954861
aF28.46657815846965
aF22.70662478827429
aF22.647258204764253
aF24.255951008573515
aF28.34679258399273
aF28.592665971993984
aa(lp15
F35.20984687623638
aF13.159971463157245
aF20.511706706475678
aF13.475277493799638
aF21.77144054178222
aF22.740884909278165
aF11.96511617788983
aa(lp16
F20.19923378327406
aF14.210808286953354
aF14.264077821316144
aF15.739317051464116
aF10.36304362541733
aF13.506400564214372
aF13.570863683954958
aa(lp17
F31.13242321253189
aF19.570021768693532
aF14.480590518927148
aF20.312037536572166
aF16.71628484631129
aF20.946999575847485
aF20.507012422421262
aa(lp18
F18.631320864877914
aF1.956970278283681
aF3.695792519932958
aF12.915269073645309
aF1.7271213380991863
aF3.116844304576605
aF3.709140886031687
aa(lp19
F-0.2
aF0.0
aF3.4807170056397796
aF0.0
aF0.0
aF0.0
aF0.0
aa(lp20
F0.0
aF0.0
aF0.0
aF0.0
aF4.339495827978221
aF0.0
aF0.0
aa(lp21
F0.0
aF-1.0
aF0.0
aF21.686825721152655
aF0.0
aF0.0
aF0.0
aa(lp22
F0.0
aF0.0
aF0.0
aF0.0
aF0.0
aF0.0
aF7.059711044694735
aa(lp23
F0.0
aF0.0
aF0.0
aF0.0
aF0.0
aF0.0
aF0.0
aa(lp24
F0.0
aF0.0
aF0.0
aF0.0
aF25.278419693757662
aF0.0
aF0.0
aa(lp25
F0.0
aF23.19265030023385
aF0.0
aF0.0
aF-1.0
aF0.0
aF-1.0
aa(lp26
F-0.2
aF0.0
aF21.535492589197982
aF0.0
aF-1.0
aF0.0
aF0.09090392253374394
aa(lp27
F0.0
aF0.0
aF0.0
aF17.157022650811456
aF-1.0
aF0.0
aF-0.6345211328123499
aa(lp28
F15.983938294023474
aF14.611121154207119
aF10.978609609823664
aF26.6081381126729
aF12.286990347108471
aF16.972759216329827
aF13.401141521937891
aa(lp29
F16.63864902280863
aF16.68567047311315
aF14.02822291673586
aF25.65416713128875
aF14.343529686937925
aF16.86095857717934
aF16.188828787719356
aa(lp30
F16.583232207133776
aF12.539411570897784
aF13.127883313162856
aF24.164622626009493
aF9.835666436231788
aF14.501650588986656
aF9.036920768359835
aa(lp31
F16.268202867770114
aF11.679887938466326
aF13.450716257844006
aF17.034836788193772
aF28.167934646449382
aF16.79212214694925
aF13.40877925866823
aa(lp32
F15.40418933786785
aF0.0
aF6.820674960043054
aF24.595106040522047
aF6.209893612276822
aF0.007226025193165897
aF5.951920229647475
aa(lp33
F14.169183420020978
aF-1.0
aF4.600026168878035
aF22.546580215460907
aF11.258029745613696
aF11.298074160881596
aF7.27456956583503
aa(lp34
F12.481361008040261
aF8.524487680032774
aF15.933623736238296
aF26.70783620587004
aF11.875276547580183
aF15.62519679974416
aF12.523616835784953
aa(lp35
F4.735135519832563
aF23.921373205236193
aF0.0
aF6.074256472342997
aF11.048396381269988
aF0.0
aF10.497671925959372
aa(lp36
F3.4772402069388484
aF1.5351982341734953
aF2.603422297221542
aF22.240855213158923
aF-1.0
aF6.972783877021263
aF0.0
aa(lp37
F34.97762142239591
aF24.2720241857607
aF24.3159493914802
aF28.737890120732615
aF24.050404798881228
aF28.014889152237146
aF27.29528227646776
aa(lp38
F35.47418470812227
aF27.203276320691327
aF22.173180275183345
aF29.735763238726783
aF21.818220867820628
aF22.94752425819774
aF24.34996164035553
aa(lp39
F33.43790655073802
aF17.591109220475353
aF19.95723471338451
aF17.953606738946007
aF19.40885135170086
aF21.03428963167537
aF22.23281186963335
aa(lp40
F33.76476118249887
aF17.819758889189988
aF20.774847169662966
aF17.74667372800618
aF19.222600454937954
aF21.228153299764855
aF19.033068744292844
aa(lp41
F34.11334683295318
aF17.059344933665148
aF14.208878276621876
aF17.85905351204557
aF12.614806397979804
aF13.665996572495521
aF25.063303411292623
aa(lp42
F30.93008038845772
aF3.3846018287672868
aF0.0
aF10.148768355255191
aF13.609649485919626
aF13.174202366899756
aF4.911997300047018
aa(lp43
F33.75429554678857
aF18.131021865413352
aF13.841039554649372
aF21.32766965209207
aF9.365508254188585
aF17.27317176405625
aF11.400153652100688
aa(lp44
F31.72722115761728
aF4.117894583066545
aF4.476544773699261
aF6.074697530026626
aF7.90275407039732
aF10.751574576934397
aF-1.0
aa(lp45
F32.675589159593244
aF2.490710520066845
aF0.0
aF5.606071262633917
aF5.785682581667878
aF0.0
aF2.421976885544505
aa(lp46
F0.0
aF0.0
aF0.0
aF0.0
aF0.0
aF0.0
aF0.0
aa(lp47
F0.0
aF0.0
aF0.0
aF0.0
aF0.0
aF0.0
aF0.0
aa(lp48
F0.0
aF0.0
aF0.0
aF0.0
aF0.0
aF0.0
aF22.678553322068296
aa(lp49
F0.0
aF0.0
aF0.0
aF0.0
aF0.0
aF0.0
aF4.5557651700928075
aa(lp50
F0.0
aF0.0
aF0.0
aF0.0
aF0.0
aF0.0
aF0.0
aa(lp51
F0.0
aF-1.0
aF0.0
aF26.262567709534558
aF0.0
aF0.0
aF0.0
aa(lp52
F0.0
aF22.987191810275647
aF0.0
aF0.0
aF0.0
aF0.0
aF0.0
aa(lp53
F0.0
aF30.096648307052888
aF0.0
aF0.0
aF0.0
aF0.0
aF-0.05472056828298233
aa(lp54
F0.0
aF0.0
aF0.0
aF25.51046761472138
aF-1.0
aF0.0
aF0.0
aa(lp55
F1.8937038980828904
aF2.0023552966903373
aF2.3939599501069795
aF1.4854029915704274
aF14.758793985439244
aF2.3821094278259234
aF1.9186329339629653
aa(lp56
F15.289685249678
aF22.217896332008785
aF12.546974160113036
aF13.51877531674752
aF13.79727405297752
aF15.400848816608452
aF13.933552746069445
aa(lp57
F1.7762101817372091
aF1.597882649434764
aF1.938633410020289
aF0.6236089168861941
aF12.842237223224583
aF2.2430542205318056
aF1.0080259822590802
aa(lp58
F14.711489396643456
aF14.429567198509876
aF3.958972701682673
aF9.674603945921998
aF27.32438421588187
aF8.538227000297256
aF8.086263099287025
aa(lp59
F11.583662748851074
aF14.561618186304054
aF5.648889576742378
aF7.586061298816202
aF26.283112554024154
aF15.220698440245066
aF3.968453882713901
aa(lp60
F0.0
aF-1.0
aF0.0
aF-1.0
aF23.84470801002433
aF3.9489562075350118
aF-1.0
aa(lp61
F1.2021795827260688
aF1.169154623293261
aF3.0449372854134453
aF-1.3110155097439544
aF-0.9515912884668912
aF1.2302705698425496
aF0.39598330933242226
aa(lp62
F3.7941449319801808
aF24.4457763834287
aF5.530304867299353
aF-1.0
aF1.330898486583309
aF0.27791943282700193
aF1.7395063004654592
aa(lp63
F0.0
aF0.0
aF0.0
aF0.0
aF0.0
aF0.0
aF0.0
aa(lp64
F20.35031265780623
aF14.111284152606384
aF15.056646382364093
aF11.71787327196753
aF14.603512965057039
aF14.84437754196956
aF14.515386050447038
aa(lp65
F33.586897848022204
aF20.577784590554767
aF20.33272031003569
aF20.185618990614323
aF18.114436153682053
aF24.868040815117872
aF20.672523262250866
aa(lp66
F20.301893362074026
aF8.654476043054379
aF14.691026617135183
aF6.5492454025959805
aF3.5333157072086396
aF9.563723422423694
aF8.448263462058906
aa(lp67
F37.1531789647192
aF9.246251446159743
aF15.55981599694682
aF20.46151354879359
aF17.403182802634614
aF12.623956862754692
aF9.885534256377543
aa(lp68
F34.89290505931296
aF14.076740559307009
aF14.772560974953914
aF10.962975440807478
aF0.0
aF14.95741403362279
aF0.0
aa(lp69
F0.0
aF3.4162624793945753
aF3.7059055315848504
aF0.0
aF28.1592261490772
aF0.0
aF0.0
aa(lp70
F24.185006750519598
aF4.09305973397694
aF10.322964853623915
aF0.0
aF1.117799478852443
aF7.302768782892482
aF3.2243760133818515
aa(lp71
F31.031314543593442
aF0.3288195383721684
aF0.0
aF3.913375000280853
aF-1.0
aF0.0
aF7.59194122236108
aa(lp72
F0.0
aF0.0
aF0.0
aF0.0
aF0.0
aF0.0
aF0.0
aa(lp73
F0.0
aF0.0
aF0.0
aF0.0
aF0.0
aF0.0
aF18.964618879369844
aa(lp74
F0.0
aF0.0
aF17.95251825816109
aF0.0
aF0.0
aF0.0
aF-1.0
aa(lp75
F0.0
aF-1.0
aF0.0
aF0.0
aF22.2387932418646
aF0.0
aF0.0
aa(lp76
F-0.2
aF0.0
aF0.0
aF0.0
aF0.0
aF0.0
aF21.776799981446874
aa(lp77
F0.0
aF0.0
aF0.0
aF0.0
aF0.0
aF0.0
aF24.640915228377963
aa(lp78
F0.0
aF0.0
aF0.0
aF0.0
aF27.5086754034525
aF0.0
aF0.0
aa(lp79
F0.0
aF0.0
aF22.202061931845144
aF0.0
aF2.6581933639603323
aF0.0
aF0.0
aa(lp80
F0.0
aF29.432240575594548
aF0.0
aF0.0
aF0.0
aF0.0
aF0.0
aa(lp81
F0.0
aF0.0
aF0.0
aF0.0
aF0.0
aF0.0
aF0.0
aa(lp82
F17.413497849292266
aF15.871058303689804
aF27.32568264167885
aF13.327022182083457
aF12.739637450676321
aF14.282471615285674
aF12.867852250256572
aa(lp83
F14.840242972085072
aF27.34916836163923
aF15.449179272282056
aF9.664063119936976
aF14.039098272949841
aF15.022794299726225
aF15.460889007953025
aa(lp84
F13.33717773289994
aF10.854136384042729
aF29.229816910756014
aF12.348158618630258
aF11.821120318005411
aF13.33251742761204
aF12.160746607274277
aa(lp85
F16.063877053403466
aF17.217629197023175
aF18.514454430188835
aF15.90775133272482
aF27.622800046584956
aF17.82163787480854
aF15.693877444624302
aa(lp86
F11.96638310379785
aF12.749817243361761
aF10.78722263157524
aF7.798393825360108
aF10.373689295571316
aF15.28406288542557
aF24.993467048989224
aa(lp87
F14.352548161822128
aF3.9157560703431225
aF27.721670145139637
aF1.9523185699738748
aF11.292531043028868
aF4.825869607998822
aF0.8028951415649767
aa(lp88
F14.928907751291447
aF8.031876397553782
aF24.899365377639278
aF13.92113614787656
aF13.27133613160644
aF13.29113704793598
aF15.673053905287599
aa(lp89
F11.327320449901732
aF6.279100159401933
aF24.3460046560195
aF8.5836827688892
aF6.274901030802277
aF0.005819569095892563
aF6.844959667847995
aa(lp90
F-0.2
aF0.0
aF22.489705217461623
aF0.0
aF3.3293275086551115
aF0.0
aF-0.9396888068105933
aa(lp91
F33.67836285524525
aF24.134567363065443
aF28.07975777873822
aF25.540765101113728
aF24.56769102728235
aF28.94100321522013
aF25.52809405838496
aa(lp92
F36.6036785260124
aF20.000167255189567
aF17.222392529330435
aF16.13989850809874
aF20.344554256650667
aF26.95458319069961
aF19.14928725072934
aa(lp93
F34.92885314853424
aF11.42644207463031
aF6.888144435595196
aF9.18234214700832
aF11.424039625400091
aF14.640961786085708
aF14.316451930259486
aa(lp94
F34.313391252206685
aF20.057159196398224
aF28.183696651293307
aF22.018313903094057
aF17.131586241525252
aF26.974377694436132
aF23.380815306973854
aa(lp95
F32.575719386415685
aF11.299657895007012
aF18.197338862830065
aF12.040690326758416
aF6.233038217235656
aF13.773770260494128
aF19.83760444572649
aa(lp96
F34.516386265744245
aF-1.1987371404738862
aF18.27257164298883
aF11.0558406086965
aF5.427185606567878
aF8.912181419681609
aF4.276638934317839
aa(lp97
F31.739872717702763
aF18.956727458565943
aF16.438569682228227
aF17.78635074930123
aF15.602187004249213
aF19.736445783015988
aF20.499288462769396
aa(lp98
F29.762554076421186
aF16.404281844714195
aF9.218663588613833
aF14.136871245306708
aF7.839522220009361
aF10.037450240567576
aF0.0
aa(lp99
F0.0
aF4.756910019108598
aF28.13924365576948
aF8.287199589030713
aF4.87856237498001
aF5.778647126159387
aF-0.3821278411452873
aa(lp100
F0.0
aF0.0
aF0.0
aF7.916558146097147
aF0.0
aF0.0
aF0.0
aa(lp101
F0.0
aF0.0
aF7.177295782178886
aF0.0
aF0.0
aF0.0
aF0.0
aa(lp102
F0.0
aF0.0
aF0.0
aF0.0
aF20.72095133449857
aF0.0
aF0.0
aa(lp103
F0.0
aF0.0
aF0.0
aF0.0
aF0.0
aF0.0
aF0.0
aa(lp104
F0.0
aF0.0
aF0.0
aF0.0
aF0.0
aF0.0
aF0.0
aa(lp105
F0.0
aF0.0
aF27.885556039216215
aF0.0
aF0.0
aF0.0
aF0.0
aa(lp106
F0.0
aF22.28964498604608
aF0.0
aF0.0
aF0.0
aF0.0
aF0.0
aa(lp107
F0.0
aF0.0
aF0.0
aF21.336218069133576
aF0.0
aF0.0
aF0.0
aa(lp108
F0.0
aF0.0
aF0.0
aF20.448366704569143
aF0.0
aF0.0
aF0.0
aa(lp109
F16.796370513099014
aF16.01403005180974
aF26.839043851965048
aF15.738212642450106
aF15.162949968269139
aF15.721635097336442
aF15.806353294990188
aa(lp110
F0.0
aF30.001947207595588
aF0.0
aF0.0
aF0.0
aF0.0
aF3.487788194921791
aa(lp111
F10.883843847188086
aF7.285613498465697
aF28.747672957049097
aF14.274547064812275
aF1.7501408811762056
aF9.724950321318573
aF3.50835386375677
aa(lp112
F17.668909575956107
aF6.521539267172866
aF30.962994745912713
aF13.012949702500132
aF13.003906464684498
aF12.472589967231066
aF12.726759615813672
aa(lp113
F8.188353040134269
aF30.387814870187263
aF6.002168791033303
aF6.670325619750791
aF3.2786785703707277
aF8.729397571923247
aF5.567223632009658
aa(lp114
F4.618029797329926
aF-1.0
aF0.0
aF28.186660296157175
aF3.4451517397503184
aF0.0
aF-0.9988986513116288
aa(lp115
F-0.2
aF4.715527774565081
aF0.0
aF25.802345675463403
aF0.0
aF5.065557885028174
aF0.0
aa(lp116
F-0.2
aF5.0735336437684495
aF0.0
aF30.563100983850088
aF-1.0
aF0.0
aF0.0
aa(lp117
F0.0
aF2.2056632779822065
aF0.0
aF27.295699082041416
aF2.671214207235361
aF0.0
aF-1.0
aa(lp118
F33.29202977746711
aF19.626566144342128
aF26.485157380503097
aF26.83497603824529
aF21.262748764802794
aF15.488444213947515
aF25.95474599931146
aa(lp119
F12.50904828071253
aF18.25141738046382
aF18.188885265335827
aF14.88366156399315
aF18.674197260027103
aF19.63929247440008
aF25.832957777034323
aa(lp120
F34.192310234715514
aF12.693097038597998
aF6.276529993918835
aF10.843200440275279
aF7.817118133793436
aF6.025084350784957
aF8.454486950492797
aa(lp121
F37.12117479972681
aF18.16080275421985
aF10.365511101610732
aF14.35263924881953
aF19.248290935029928
aF18.675999305875955
aF13.248644652815507
aa(lp122
F37.29981952363163
aF9.619606777639174
aF12.472966662995994
aF0.0
aF17.930189745633935
aF10.880116294049433
aF0.0
aa(lp123
F33.91770365149462
aF0.0
aF0.0
aF0.0
aF0.0
aF0.0
aF0.0
aa(lp124
F11.74876617149853
aF3.9299311710373304
aF4.306874675070227
aF31.655054204790517
aF10.144873879847436
aF12.024327608406914
aF14.303057546656838
aa(lp125
F0.0
aF0.0
aF0.00015866514460476469
aF5.189227352455239
aF2.913120510100123
aF0.0
aF26.108247363542052
aa(lp126
F32.032963742011745
aF0.0
aF0.0
aF4.023181542258529
aF0.0
aF0.0
aF0.0
aa(lp127
F0.0
aF0.0
aF0.0
aF7.531116604476254
aF0.0
aF0.0
aF0.0
aa(lp128
F0.0
aF0.0
aF0.0
aF0.0
aF0.0
aF0.0
aF0.0
aa(lp129
F-0.2
aF0.0
aF0.0
aF24.931210873801337
aF0.0
aF0.0
aF0.0
aa(lp130
F0.0
aF0.0
aF0.0
aF0.0
aF0.0
aF0.0
aF6.001949801984575
aa(lp131
F0.0
aF0.0
aF0.0
aF0.0
aF0.0
aF0.0
aF0.0
aa(lp132
F0.0
aF0.0
aF0.0
aF0.0
aF0.0
aF0.0
aF22.59700768699155
aa(lp133
F0.0
aF0.0
aF26.93513003410783
aF0.0
aF0.0
aF0.0
aF0.0
aa(lp134
F-0.2
aF0.0
aF23.96510642867693
aF0.0
aF0.0
aF0.0
aF0.0
aa(lp135
F-0.2
aF-1.0
aF0.0
aF24.81967256833652
aF0.0
aF0.0
aF0.0
aa(lp136
F13.757740050665408
aF6.658497661868006
aF21.748002726724035
aF12.700187660668872
aF13.231461940523968
aF10.917627303433388
aF15.827371185495075
aa(lp137
F3.0311813854526934
aF23.604909018004378
aF0.15453128150849596
aF2.4172144546808774
aF3.1265109277504113
aF0.0
aF-1.0
aa(lp138
F0.23506303015954716
aF0.0
aF22.894265868367594
aF-1.0
aF8.001359110969728
aF7.354863667800805
aF0.0
aa(lp139
F5.602644186730745
aF2.6691072865846066
aF25.200829421133
aF11.9176536675162
aF11.118582072362962
aF13.740509675809125
aF14.445200702121225
aa(lp140
F4.572617628454993
aF0.0
aF28.351926856653968
aF3.548309797333987
aF8.088139251512862
aF0.0
aF0.0
aa(lp141
F-0.2
aF0.0
aF28.380300532284753
aF0.0
aF0.0
aF0.0
aF0.0
aa(lp142
F1.043840631061821
aF0.0
aF19.607083779787835
aF-1.0
aF-1.0
aF0.0
aF-1.0
aa(lp143
F0.0
aF22.763907818325176
aF0.0
aF0.0
aF0.0
aF0.0
aF-1.0
aa(lp144
F0.0
aF0.0
aF0.0
aF0.0
aF0.0
aF0.0
aF0.0
aa(lp145
F30.303989543014715
aF16.15632545497749
aF12.600333060630494
aF15.482370636127897
aF10.69423499345594
aF24.14732398060893
aF14.192465468607843
aa(lp146
F14.120071776228961
aF3.3457930772612943
aF30.280042115614286
aF7.685576089448066
aF9.179617630947968
aF10.18094782302199
aF0.0
aa(lp147
F32.26993065067954
aF4.585439464643471
aF0.0
aF0.0
aF0.0
aF0.0
aF0.0
aa(lp148
F34.39111758332696
aF5.157757660613058
aF21.09205337098578
aF3.836897404535482
aF11.168739293362002
aF10.978919781463102
aF11.952975486315147
aa(lp149
F33.27830141144717
aF0.0
aF0.0
aF-1.0
aF0.0
aF0.0
aF0.0
aa(lp150
F0.0
aF0.0
aF0.0
aF0.0
aF27.917157483231644
aF0.0
aF-1.0
aa(lp151
F0.0
aF2.184167833237771
aF27.18762163114604
aF3.8822537709699123
aF6.392942809765073
aF5.8845429772508435
aF0.0
aa(lp152
F28.33770934824054
aF0.0
aF0.0
aF0.0
aF0.0
aF0.0
aF0.0
aa(lp153
F0.0
aF0.0
aF0.0
aF0.0
aF0.0
aF0.0
aF0.0
aa(lp154
F-0.2
aF0.0
aF28.187858072260802
aF-1.0
aF0.0
aF0.0
aF0.0
aa(lp155
F0.0
aF28.78443830003965
aF0.0
aF0.0
aF0.0
aF0.0
aF0.0
aa(lp156
F0.0
aF0.0
aF24.867806499425022
aF0.0
aF0.0
aF0.0
aF0.0
aa(lp157
F0.0
aF0.0
aF0.0
aF-1.0
aF0.0
aF0.0
aF23.183669661659525
aa(lp158
F-0.2
aF0.0
aF0.0
aF-1.0
aF27.617367347208564
aF0.0
aF0.0
aa(lp159
F-0.2
aF0.0
aF23.91254832408068
aF0.0
aF0.0
aF0.0
aF0.0
aa(lp160
F-0.2
aF0.0
aF28.651040646033735
aF3.6614952621709396
aF-1.0
aF0.0
aF2.6057906539228743
aa(lp161
F0.0
aF0.0
aF28.729366552169623
aF0.0
aF-1.0
aF0.0
aF-0.34426006003938225
aa(lp162
F0.0
aF0.0
aF0.0
aF0.0
aF0.0
aF0.0
aF0.0
aa(lp163
F2.3326845845134416
aF8.327442025754884
aF1.4711678804030268
aF3.4726816145818074
aF2.3374433596362776
aF2.3523642983334803
aF1.9402157530339923
aa(lp164
F6.4060340584667355
aF23.117045820778404
aF14.027378496532624
aF7.897975707430552
aF11.073415908645893
aF13.257315738361758
aF12.071544520526103
aa(lp165
F1.1463657999139725
aF-0.4056029951910063
aF-1.0022295960932068
aF1.1491666420766429
aF1.7600152322327927
aF1.1290168275400876
aF1.4349292368735664
aa(lp166
F4.23705357325445
aF6.883716405521142
aF8.113981689111192
aF8.126609139159253
aF23.80247587873364
aF4.371545417093545
aF6.748270396006599
aa(lp167
F-0.2
aF21.817606570076524
aF3.4644199456721907
aF3.525291384522027
aF2.643404695825413
aF4.654694721309675
aF3.109099097920967
aa(lp168
F0.8773855601588105
aF0.0
aF0.0
aF3.356953164004621
aF24.71865658997155
aF0.0
aF2.7333084264726786
aa(lp169
F1.0841646909307718
aF3.0112719204726353
aF0.8761479700198378
aF1.7736761857824415
aF0.32425517564313
aF1.7705940461260785
aF1.223407896537128
aa(lp170
F3.576608883970176
aF21.348646593852372
aF2.1734317073561207
aF5.3265831067170275
aF2.1640696972766995
aF4.011809116291801
aF1.4821308136218854
aa(lp171
F0.0
aF0.0
aF0.0
aF0.0
aF0.0
aF0.0
aF0.0
aa(lp172
F18.802464456017542
aF13.500877974266187
aF11.597042676915827
aF13.467922854964621
aF13.416588396453564
aF13.522842745456272
aF14.878523157731653
aa(lp173
F31.76778142613098
aF20.395454338072064
aF8.174676976851904
aF4.771559909887684
aF4.87193164525223
aF20.078511148239564
aF15.597192557701234
aa(lp174
F16.221938245045507
aF0.0
aF5.151018310855459
aF0.0
aF3.881607382775642
aF2.6821400856888182
aF-1.0
aa(lp175
F30.814863894165534
aF17.639189292369622
aF14.525502881594925
aF15.636774511855526
aF21.11019535884677
aF21.913869843183022
aF13.902259781344437
aa(lp176
F31.8563011833297
aF15.44298482926148
aF9.620654597012742
aF4.158685252785626
aF11.253923099152235
aF12.265313881480358
aF-0.9969001598800364
aa(lp177
F31.068803384860963
aF1.9000335528893384
aF1.2924714241789699
aF2.274093279859181
aF6.24522817937385
aF2.262603434735765
aF2.092848556178468
aa(lp178
F16.336831378078486
aF13.462812490268513
aF4.312962627422324
aF4.524655491280872
aF1.7843623510458055
aF5.6742728885612514
aF8.927861644652463
aa(lp179
F29.22508039027818
aF4.584716303883229
aF0.20952675732586634
aF4.669755570271906
aF-1.0
aF0.0
aF8.21564777518104
aa(lp180
F0.0
aF0.0
aF0.0
aF0.0
aF0.0
aF0.0
aF0.0
aa(lp181
F-0.2
aF23.077508555760858
aF0.0
aF0.0
aF0.0
aF0.0
aF-1.0
aa(lp182
F0.0
aF0.0
aF-1.0
aF0.0
aF0.0
aF0.0
aF18.091854705042394
aa(lp183
F0.0
aF0.0
aF0.0
aF19.867965972363457
aF0.0
aF0.0
aF0.0
aa(lp184
F0.0
aF22.88964807183514
aF-1.0
aF0.0
aF0.0
aF0.0
aF0.0
aa(lp185
F-0.2
aF0.0
aF0.0
aF22.632772928737314
aF0.0
aF0.0
aF0.0
aa(lp186
F0.0
aF0.0
aF-1.0
aF21.557379079189307
aF5.18318935239515
aF0.0
aF0.0
aa(lp187
F0.0
aF16.50665345536092
aF0.0
aF0.0
aF0.0
aF0.0
aF0.0
aa(lp188
F-0.2
aF28.919079747482183
aF0.0
aF0.0
aF0.0
aF0.0
aF0.0
aa(lp189
F0.0
aF0.0
aF0.0
aF0.0
aF0.0
aF0.0
aF0.0
aa(lp190
F13.345593179966883
aF12.153011964510661
aF11.282199094495718
aF22.709736671287835
aF11.32108641042729
aF13.545711020523118
aF11.862904617275644
aa(lp191
F15.271073949821528
aF28.103361996578414
aF12.907823050534727
aF6.027786025874978
aF7.310726972413422
aF11.409664886836865
aF9.642604049291414
aa(lp192
F3.51707652717125
aF2.872047168346609
aF4.364926546911025
aF22.485748058911746
aF2.7514657171613734
aF4.049017685600071
aF0.0
aa(lp193
F3.3505447051960426
aF15.31660417314584
aF10.866981163266912
aF28.092540250719416
aF7.749796751719112
aF4.2749016180443276
aF3.100079558046666
aa(lp194
F7.260344322478556
aF27.863926856076247
aF4.123766031902355
aF0.0
aF0.0
aF0.0
aF0.0
aa(lp195
F-0.2
aF-1.0
aF-1.0
aF24.351178977561393
aF0.0
aF0.0
aF-0.2692752071235579
aa(lp196
F1.4261564102101676
aF3.6056561705084245
aF0.0
aF22.89229805412831
aF1.684464051413608
aF0.863462196218674
aF2.006799457458221
aa(lp197
F0.0
aF19.824636080823126
aF0.0
aF0.0
aF0.0
aF0.0
aF-1.0
aa(lp198
F0.0
aF0.0
aF0.0
aF0.0
aF0.0
aF0.0
aF0.0
aa(lp199
F31.06860585181771
aF16.655988948795358
aF17.312771114452463
aF21.991050985212453
aF19.615716024286172
aF17.174117794877475
aF19.9464298499393
aa(lp200
F37.09911316063263
aF7.983612091517464
aF14.106783425476866
aF10.819170191936053
aF8.549040414221963
aF15.425082845352708
aF5.254794209813497
aa(lp201
F32.989921033266874
aF-1.0
aF7.57887373319479
aF4.829462308698464
aF4.265455079247598
aF0.0
aF9.336043466143819
aa(lp202
F36.18204142303058
aF0.0
aF11.673099044267033
aF5.577149161138664
aF0.0
aF16.892828222080944
aF10.318135472248565
aa(lp203
F35.26750107937376
aF0.0
aF0.0
aF5.943115678509105
aF0.0
aF0.0
aF0.0
aa(lp204
F31.399512953792907
aF0.0
aF-1.0
aF0.0
aF0.0
aF5.148297442520126
aF0.0
aa(lp205
F29.795361576672352
aF6.183148671493342
aF0.0
aF0.0
aF1.3125415968102951
aF6.318396108424896
aF-1.0
aa(lp206
F0.0
aF0.0
aF0.0
aF29.927080387487695
aF-0.08186108655801264
aF0.0
aF0.0
aa(lp207
F0.0
aF0.0
aF0.0
aF0.0
aF0.0
aF0.0
aF0.0
aa(lp208
F0.0
aF21.325165521809563
aF-1.0
aF0.0
aF0.0
aF0.0
aF0.0
aa(lp209
F0.0
aF0.0
aF0.0
aF0.0
aF0.0
aF0.0
aF16.18312956371109
aa(lp210
F-0.2
aF-1.0
aF0.0
aF0.0
aF17.105007041566257
aF0.0
aF-1.0
aa(lp211
F0.0
aF0.0
aF-1.0
aF0.0
aF24.71431536220051
aF0.0
aF-1.0
aa(lp212
F0.0
aF0.0
aF-1.0
aF0.0
aF0.0
aF0.0
aF25.539115819817667
aa(lp213
F0.0
aF0.0
aF0.0
aF26.45260417256879
aF0.0
aF0.0
aF0.0
aa(lp214
F-0.2
aF0.0
aF-1.0
aF25.275624309777303
aF-1.0
aF0.0
aF-1.0
aa(lp215
F-0.2
aF27.344059111149424
aF0.0
aF0.0
aF0.0
aF0.0
aF0.0
aa(lp216
F0.0
aF0.0
aF0.0
aF0.0
aF0.0
aF0.0
aF0.0
aa(lp217
F1.7867878649653344
aF2.446711183482718
aF0.63017835266276
aF1.4065635401710885
aF8.591513785477382
aF1.866249640379428
aF1.404611178528328
aa(lp218
F7.8379101884112
aF28.20575122634036
aF6.19094780441605
aF7.536914493850952
aF4.156700766651825
aF0.0
aF2.5870520073151684
aa(lp219
F0.0
aF0.0
aF0.0
aF0.0
aF0.0
aF0.0
aF0.0
aa(lp220
F2.5790890756172344
aF2.595511757740979
aF2.2742216165354914
aF2.1835347890651606
aF21.068948468323967
aF3.814050638942147
aF-1.0492078831098581
aa(lp221
F3.615166261679004
aF0.0
aF-1.0
aF-1.0
aF22.139338379848386
aF0.0
aF-0.5250383087454763
aa(lp222
F0.0
aF0.0
aF0.0
aF0.0
aF0.0
aF0.0
aF0.0
aa(lp223
F0.0
aF0.0
aF0.0
aF0.0
aF0.0
aF0.0
aF0.0
aa(lp224
F0.0
aF0.0
aF0.0
aF0.0
aF0.0
aF0.0
aF0.0
aa(lp225
F0.0
aF0.0
aF0.0
aF0.0
aF0.0
aF0.0
aF0.0
aa(lp226
F15.914042347645433
aF8.226314634121628
aF3.4940164219957923
aF2.1960149087757403
aF11.449471578007355
aF9.625231461270193
aF8.078370978920352
aa(lp227
F34.25165496099991
aF0.0
aF4.380326897387797
aF4.2163292063103865
aF0.0
aF14.887183450653037
aF16.19248517641821
aa(lp228
F0.0
aF0.0
aF0.0
aF0.0
aF0.0
aF0.0
aF0.0
aa(lp229
F30.15183343075427
aF4.514886862240252
aF0.0
aF0.0
aF5.642727513201963
aF0.0
aF0.0
aa(lp230
F0.0
aF2.7776226372231365
aF-1.0
aF0.0
aF29.33683611959829
aF0.0
aF0.0
aa(lp231
F0.0
aF0.0
aF0.0
aF0.0
aF0.0
aF0.0
aF0.0
aa(lp232
F0.0
aF0.0
aF0.0
aF0.0
aF0.0
aF0.0
aF0.0
aa(lp233
F0.0
aF0.0
aF0.0
aF0.0
aF0.0
aF0.0
aF0.0
aa(lp234
F0.0
aF0.0
aF0.0
aF0.0
aF0.0
aF0.0
aF0.0
aa(lp235
F-0.2
aF0.0
aF-1.0
aF-1.0
aF0.0
aF0.0
aF16.87850088440257
aa(lp236
F0.0
aF0.0
aF0.0
aF0.0
aF20.04791412810008
aF0.0
aF0.0
aa(lp237
F0.0
aF0.0
aF0.0
aF0.0
aF0.0
aF0.0
aF0.0
aa(lp238
F0.0
aF0.0
aF-1.0
aF0.0
aF0.0
aF0.0
aF21.313701044682798
aa(lp239
F-0.2
aF0.0
aF-1.0
aF0.0
aF28.8835524033191
aF0.0
aF0.0
aa(lp240
F0.0
aF0.0
aF0.0
aF0.0
aF0.0
aF0.0
aF0.0
aa(lp241
F0.0
aF0.0
aF0.0
aF0.0
aF0.0
aF0.0
aF0.0
aa(lp242
F0.0
aF0.0
aF0.0
aF0.0
aF0.0
aF0.0
aF0.0
aa(lp243
F0.0
aF0.0
aF0.0
aF0.0
aF0.0
aF0.0
aF0.0
aa.