(lp0
(lp1
F4.5716586630937455
aF2.878072806888066
aF3.9841664816398135
aF2.85001151351022
aF2.8778267831386115
aF2.821475748558665
aF9.294302803669378
aa(lp2
F14.928219802198296
aF24.7648410740143
aF14.406634055439344
aF14.67879741182216
aF14.408579373153378
aF14.783067598269371
aF11.923085713241747
aa(lp3
F2.595245187794388
aF1.4142702608127327
aF8.77694398120684
aF2.0722024935762873
aF2.0630798459348036
aF2.0922650470336306
aF1.0857838711379548
aa(lp4
F14.093825077644878
aF12.76244608517715
aF13.265313078639442
aF17.480622500563012
aF24.67503773285099
aF16.01347695990504
aF12.933177994520289
aa(lp5
F18.287054476373683
aF19.20458568023749
aF15.794688191624225
aF10.846916070625774
aF26.76326836869046
aF19.5831083016822
aF17.85509155639938
aa(lp6
F5.660285016570694
aF5.437032187878057
aF5.663049823928176
aF5.678437767904753
aF20.08796144668071
aF5.7434097620650055
aF4.994097500265219
aa(lp7
F2.767754391531594
aF2.846964617396901
aF2.5402395144610312
aF10.335027421998232
aF2.243810807156594
aF2.520258043366782
aF2.3702218954005514
aa(lp8
F16.07083150078951
aF25.630251317516226
aF12.723964808417968
aF13.285872037635432
aF14.874143426298097
aF18.65769112911839
aF18.400966072061752
aa(lp9
F2.2108717669488676
aF1.0943210594553383
aF1.750713902299493
aF8.825828100787994
aF0.9112551581692792
aF2.24576558588165
aF1.3518962034327402
aa(lp10
F22.006564224174216
aF15.864732973310762
aF15.750815860471663
aF15.86952514177191
aF15.768629551189218
aF15.928349689089984
aF15.531329035838052
aa(lp11
F33.887019787231296
aF29.40550456264604
aF24.964047609313013
aF23.765214400796044
aF23.412653813938455
aF27.400148805536535
aF24.389931038102873
aa(lp12
F20.823963734050224
aF11.565312260945017
aF15.192421443901956
aF13.74611244404198
aF13.941799710802025
aF14.183214230514423
aF12.425630231960639
aa(lp13
F35.256426774027865
aF25.927050965299504
aF22.091652937924124
aF23.58026376559013
aF27.850539986915866
aF29.131776305969353
aF22.94329513879185
aa(lp14
F36.03898518305691
aF28.467918886156433
aF19.419190482056088
aF22.647258204764253
aF24.255951008573515
aF27.47476743906195
aF24.127430708758624
aa(lp15
F20.682742585821725
aF7.63853180706116
aF20.511706706475678
aF13.475277493799638
aF23.78576583790052
aF21.557381669097797
aF11.96511617788983
aa(lp16
F19.32716700073462
aF14.854440529567297
aF14.12036033091539
aF13.284418468741624
aF10.276593420102925
aF13.556369946705955
aF13.749390270293684
aa(lp17
F33.55230160811249
aF17.543590359432226
aF14.480590518927148
aF18.993087891985667
aF16.71628484631129
aF19.029353580178974
aF20.41379908308179
aa(lp18
F18.189295896403706
aF1.956970278283681
aF3.695792519932958
aF7.921018326258885
aF1.7271213380991863
aF3.116844304576605
aF3.709140886031687
aa(lp19
F-0.2
aF0.0
aF3.4807170056397796
aF0.0
aF0.0
aF0.0
aF0.0
aa(lp20
F0.0
aF0.0
aF0.0
aF0.0
aF4.339495827978221
aF0.0
aF0.0
aa(lp21
F0.0
aF-1.0
aF0.0
aF20.84939619254862
aF0.0
aF0.0
aF0.0
aa(lp22
F0.0
aF0.0
aF0.0
aF0.0
aF0.0
aF0.0
aF2.239520055883905
aa(lp23
F0.0
aF0.0
aF0.0
aF0.0
aF0.0
aF0.0
aF0.0
aa(lp24
F0.0
aF0.0
aF0.0
aF0.0
aF29.107637950916452
aF0.0
aF0.0
aa(lp25
F0.0
aF20.611930379246264
aF0.0
aF0.0
aF-1.0
aF0.0
aF-1.0
aa(lp26
F-0.2
aF0.0
aF20.00056707412523
aF0.0
aF-1.0
aF0.0
aF0.09090392253374394
aa(lp27
F0.0
aF0.0
aF0.0
aF12.603212174808343
aF-1.0
aF0.0
aF-0.6345211328123499
aa(lp28
F14.189693271989594
aF12.433079985157125
aF13.34934053854024
aF22.176234570070996
aF13.391126899958735
aF14.162291876642403
aF14.092244625268648
aa(lp29
F16.984422447915122
aF25.29056052600089
aF14.50669394298904
aF18.083004690552887
aF16.591432594240395
aF17.053914288428917
aF17.06865759202345
aa(lp30
F16.0675959392443
aF11.034905738227971
aF15.312510299502236
aF18.20489487614048
aF9.455530055810417
aF14.497650233739629
aF9.036920768359835
aa(lp31
F15.641119731645912
aF11.835461223789643
aF12.136985163725967
aF27.035495575519874
aF15.682896569368257
aF15.613201607508934
aF13.40877925866823
aa(lp32
F11.535770852923061
aF0.0
aF6.820674960043054
aF23.38773206744672
aF0.0
aF0.007226025193165897
aF5.951920229647475
aa(lp33
F14.169183420020978
aF-1.0
aF4.600026168878035
aF20.84492429497785
aF11.258029745613696
aF6.770434211564876
aF3.384552354898699
aa(lp34
F13.886051951185582
aF8.524487680032774
aF10.959852845364429
aF26.15990450120848
aF13.138037293449166
aF14.150111132925023
aF9.235026654524221
aa(lp35
F0.0
aF26.158493561601947
aF0.0
aF0.0
aF8.98953739093782
aF0.0
aF10.497671925959372
aa(lp36
F3.4772402069388484
aF1.5351982341734953
aF2.603422297221542
aF21.201974965380334
aF-1.0
aF6.972783877021263
aF0.0
aa(lp37
F32.85972306824355
aF24.48808983457198
aF23.111807943316784
aF26.862203440030715
aF24.050404798881228
aF27.437400783858727
aF26.838222829501625
aa(lp38
F33.26921894899916
aF27.203276320691327
aF22.173180275183345
aF27.43421241520517
aF19.121903576085572
aF22.94752425819774
aF24.091096419650533
aa(lp39
F28.86586053731059
aF14.88264830541135
aF17.647930554892135
aF15.847146364208097
aF19.27493148354757
aF19.384252492418582
aF21.38054407409748
aa(lp40
F33.415135178471076
aF15.99751876100753
aF20.68724624207895
aF17.74667372800618
aF19.222600454937954
aF21.228153299764855
aF15.855697362727934
aa(lp41
F32.149439911842556
aF17.059344933665148
aF14.208878276621876
aF14.381349115767577
aF9.863764509103294
aF13.665996572495521
aF23.242969863890565
aa(lp42
F27.640453155820314
aF3.3846018287672868
aF0.0
aF10.148768355255191
aF10.007447183048873
aF13.174202366899756
aF0.0
aa(lp43
F32.46895023892593
aF15.216314552966786
aF11.30444474861814
aF21.32766965209207
aF9.365508254188585
aF17.27317176405625
aF7.771464973867407
aa(lp44
F32.89361332282501
aF4.117894583066545
aF4.476544773699261
aF6.074697530026626
aF3.6363546143485
aF10.751574576934397
aF-1.0
aa(lp45
F30.685991410002174
aF2.490710520066845
aF0.0
aF5.606071262633917
aF5.785682581667878
aF0.0
aF2.421976885544505
aa(lp46
F0.0
aF0.0
aF0.0
aF0.0
aF0.0
aF0.0
aF0.0
aa(lp47
F0.0
aF0.0
aF0.0
aF0.0
aF0.0
aF0.0
aF0.0
aa(lp48
F0.0
aF0.0
aF0.0
aF0.0
aF0.0
aF0.0
aF21.00245194514111
aa(lp49
F0.0
aF0.0
aF0.0
aF0.0
aF0.0
aF0.0
aF4.5557651700928075
aa(lp50
F0.0
aF0.0
aF0.0
aF0.0
aF0.0
aF0.0
aF0.0
aa(lp51
F0.0
aF-1.0
aF0.0
aF24.5633941511106
aF0.0
aF0.0
aF0.0
aa(lp52
F0.0
aF20.66207918423131
aF0.0
aF0.0
aF0.0
aF0.0
aF0.0
aa(lp53
F0.0
aF28.959094759600564
aF0.0
aF0.0
aF0.0
aF0.0
aF-0.05472056828298233
aa(lp54
F0.0
aF0.0
aF0.0
aF25.794301664667067
aF-1.0
aF0.0
aF0.0
aa(lp55
F1.8652919867963345
aF2.0864102722842732
aF2.063039977824485
aF1.9176456010838585
aF7.114294937930328
aF3.6820732336912556
aF1.1082224200175386
aa(lp56
F14.330027640412013
aF22.079676907225643
aF12.577959292602353
aF14.77377955126533
aF13.77270723900072
aF15.1811928718284
aF15.172595220729754
aa(lp57
F2.123164131462544
aF0.44642689567293453
aF8.85974773176654
aF0.8200318577522671
aF1.8309265809219397
aF1.8246897453663513
aF0.3366034001977018
aa(lp58
F15.243885551964295
aF16.12879053399508
aF3.958972701682673
aF9.674603945921998
aF26.553678745640916
aF5.468587811485587
aF8.086263099287025
aa(lp59
F9.124537650944935
aF10.628546471134161
aF5.648889576742378
aF7.586061298816202
aF28.57986274823298
aF13.569055037638746
aF0.0
aa(lp60
F0.0
aF-1.0
aF0.0
aF-1.0
aF18.587934255311577
aF3.9489562075350118
aF-1.0
aa(lp61
F1.3500456725838534
aF1.3354600826274385
aF2.435386691767368
aF-1.212477636637889
aF-1.2935847447152458
aF1.241038940514179
aF0.35630166563411014
aa(lp62
F3.7941449319801808
aF19.506736984426087
aF5.530304867299353
aF-1.0
aF1.330898486583309
aF0.27791943282700193
aF1.7395063004654592
aa(lp63
F0.0
aF0.0
aF0.0
aF0.0
aF0.0
aF0.0
aF0.0
aa(lp64
F17.194139830496546
aF14.348117167999401
aF14.347792491003567
aF11.71787327196753
aF14.302902931378759
aF14.205669684806033
aF13.815934208309551
aa(lp65
F29.85850942869807
aF19.19508760562288
aF19.639307583530186
aF20.185618990614323
aF16.538246686309442
aF23.579443375089816
aF19.752174330044348
aa(lp66
F18.2037176539297
aF7.676638977971593
aF10.199080028712487
aF5.646370455537959
aF0.0
aF9.563723422423694
aF5.5742742801736
aa(lp67
F32.1508914260707
aF5.520414179949623
aF15.55981599694682
aF16.473311489491326
aF17.403182802634614
aF12.623956862754692
aF0.0
aa(lp68
F33.08235152429894
aF14.076740559307009
aF14.772560974953914
aF10.962975440807478
aF0.0
aF10.995498244596408
aF0.0
aa(lp69
F0.0
aF3.4162624793945753
aF3.7059055315848504
aF0.0
aF27.944231943428402
aF0.0
aF0.0
aa(lp70
F16.943152724837333
aF4.09305973397694
aF6.81544982716955
aF0.0
aF1.117799478852443
aF5.162362756326632
aF3.2243760133818515
aa(lp71
F30.325084781640392
aF0.3288195383721684
aF0.0
aF3.913375000280853
aF-1.0
aF0.0
aF7.59194122236108
aa(lp72
F0.0
aF0.0
aF0.0
aF0.0
aF0.0
aF0.0
aF0.0
aa(lp73
F0.0
aF0.0
aF0.0
aF0.0
aF0.0
aF0.0
aF16.555778118378022
aa(lp74
F0.0
aF0.0
aF19.321297552548245
aF0.0
aF0.0
aF0.0
aF-1.0
aa(lp75
F0.0
aF-1.0
aF0.0
aF0.0
aF22.41756090425108
aF0.0
aF0.0
aa(lp76
F-0.2
aF0.0
aF0.0
aF0.0
aF0.0
aF0.0
aF20.258144707892463
aa(lp77
F0.0
aF0.0
aF0.0
aF0.0
aF0.0
aF0.0
aF22.446662294936548
aa(lp78
F0.0
aF0.0
aF0.0
aF0.0
aF25.11211173897099
aF0.0
aF0.0
aa(lp79
F0.0
aF0.0
aF20.67647972922774
aF0.0
aF2.6581933639603323
aF0.0
aF0.0
aa(lp80
F0.0
aF27.440144890847606
aF0.0
aF0.0
aF0.0
aF0.0
aF0.0
aa(lp81
F0.0
aF0.0
aF0.0
aF0.0
aF0.0
aF0.0
aF0.0
aa(lp82
F14.338024381857984
aF15.389443548801463
aF27.99065458294021
aF11.629223055005145
aF13.022858646145316
aF15.995527895692618
aF13.06855944473731
aa(lp83
F13.784327194455516
aF16.461149032726183
aF24.515870961489814
aF10.340121876138099
aF15.623610669500618
aF16.465407092352713
aF15.942235635782108
aa(lp84
F7.190177026982125
aF10.854136384042729
aF23.236430908511664
aF11.827839727153748
aF12.5571103995234
aF14.749652264679517
aF13.548679699393002
aa(lp85
F16.96455045311299
aF13.395222042572623
aF26.22875960697608
aF14.738395758627187
aF16.968928471633735
aF16.861929162731983
aF17.054406381604828
aa(lp86
F11.96638310379785
aF12.749817243361761
aF10.78722263157524
aF3.9207557588434048
aF10.373689295571316
aF12.047003498790021
aF24.17286261494967
aa(lp87
F4.317454574096361
aF0.0
aF30.39427840280107
aF1.9523185699738748
aF0.0
aF4.825869607998822
aF0.8028951415649767
aa(lp88
F8.904654715816854
aF8.514472065006874
aF20.625439571377456
aF15.592491496261502
aF12.335463311323537
aF13.606923563247245
aF14.67930825247564
aa(lp89
F6.314835551212157
aF3.6386397587740795
aF21.287168354642922
aF5.217492831120303
aF4.280637591257273
aF0.005819569095892563
aF6.844959667847995
aa(lp90
F-0.2
aF0.0
aF22.366243640005706
aF0.0
aF3.3293275086551115
aF0.0
aF-0.9396888068105933
aa(lp91
F34.170331031088836
aF23.364045888350013
aF27.50912739571684
aF25.178445284698185
aF24.276634763513393
aF26.72327620313852
aF23.860721038762783
aa(lp92
F32.66438666171637
aF20.000167255189567
aF13.472529645009951
aF8.489743232868774
aF15.42396932604676
aF26.95458319069961
aF17.22167970893573
aa(lp93
F32.53990522108352
aF7.822432669822749
aF6.888144435595196
aF9.18234214700832
aF11.424039625400091
aF14.640961786085708
aF14.316451930259486
aa(lp94
F33.568030810746215
aF18.881942012772747
aF27.821090759838437
aF20.625102117550544
aF14.53910383750501
aF22.794443906414887
aF21.500139314860665
aa(lp95
F31.419119439579028
aF11.299657895007012
aF10.867250676144764
aF12.040690326758416
aF0.0
aF10.232833038064786
aF12.607305027413453
aa(lp96
F36.575154167293036
aF-1.1987371404738862
aF18.27257164298883
aF11.0558406086965
aF5.427185606567878
aF8.912181419681609
aF4.276638934317839
aa(lp97
F31.248677010844183
aF18.21174311167558
aF13.570862758963774
aF17.051372882774572
aF11.438535216935946
aF18.082822322794666
aF19.352883727210838
aa(lp98
F30.487358868596097
aF13.442835028413135
aF4.3263516152895205
aF11.429601255694447
aF7.839522220009361
aF5.617169290213652
aF0.0
aa(lp99
F0.0
aF4.756910019108598
aF27.466000080104138
aF8.287199589030713
aF4.87856237498001
aF1.1010396236988864
aF-0.3821278411452873
aa(lp100
F0.0
aF0.0
aF0.0
aF4.152531316224555
aF0.0
aF0.0
aF0.0
aa(lp101
F0.0
aF0.0
aF7.177295782178886
aF0.0
aF0.0
aF0.0
aF0.0
aa(lp102
F0.0
aF0.0
aF0.0
aF0.0
aF20.0981089273931
aF0.0
aF0.0
aa(lp103
F0.0
aF0.0
aF0.0
aF0.0
aF0.0
aF0.0
aF0.0
aa(lp104
F0.0
aF0.0
aF0.0
aF0.0
aF0.0
aF0.0
aF0.0
aa(lp105
F0.0
aF0.0
aF24.99074274144631
aF0.0
aF0.0
aF0.0
aF0.0
aa(lp106
F0.0
aF18.962272324192043
aF0.0
aF0.0
aF0.0
aF0.0
aF0.0
aa(lp107
F0.0
aF0.0
aF0.0
aF18.478791957953725
aF0.0
aF0.0
aF0.0
aa(lp108
F0.0
aF0.0
aF0.0
aF21.539501386417353
aF0.0
aF0.0
aF0.0
aa(lp109
F16.211104981176117
aF15.43755131797397
aF28.638061453973222
aF16.24632837632716
aF16.244486031316086
aF16.22994295916071
aF16.066006377369188
aa(lp110
F0.0
aF20.68073741887133
aF0.0
aF0.0
aF0.0
aF0.0
aF3.487788194921791
aa(lp111
F7.991561589643938
aF3.6946231863865298
aF23.998560710565272
aF6.442761423820058
aF1.7501408811762056
aF9.724950321318573
aF0.0
aa(lp112
F16.40510992419567
aF6.521539267172866
aF28.161617337714333
aF13.012949702500132
aF13.003906464684498
aF9.533693555620065
aF7.960152640247918
aa(lp113
F8.188353040134269
aF27.296990019836656
aF6.002168791033303
aF6.670325619750791
aF0.0
aF0.0
aF5.567223632009658
aa(lp114
F4.618029797329926
aF-1.0
aF0.0
aF19.418186729860853
aF3.4451517397503184
aF0.0
aF-0.9988986513116288
aa(lp115
F-0.2
aF0.0
aF0.0
aF25.4019590919057
aF0.0
aF5.065557885028174
aF0.0
aa(lp116
F-0.2
aF5.0735336437684495
aF0.0
aF28.076817374028558
aF-1.0
aF0.0
aF0.0
aa(lp117
F0.0
aF2.2056632779822065
aF0.0
aF18.151655558709617
aF2.671214207235361
aF0.0
aF-1.0
aa(lp118
F34.277648378468236
aF15.654865204504132
aF27.499491860220083
aF23.645906469753484
aF19.810888140954752
aF11.825520132269995
aF25.95474599931146
aa(lp119
F6.412719191131462
aF11.450948717450224
aF14.926229221361265
aF14.88366156399315
aF15.343682992974276
aF19.63929247440008
aF27.17541957836022
aa(lp120
F31.7952435674001
aF9.26042720953264
aF6.276529993918835
aF10.843200440275279
aF7.817118133793436
aF6.025084350784957
aF8.454486950492797
aa(lp121
F34.35558296614589
aF18.16080275421985
aF10.365511101610732
aF14.35263924881953
aF16.816615065751066
aF18.675999305875955
aF13.248644652815507
aa(lp122
F32.69018716682951
aF9.619606777639174
aF12.472966662995994
aF0.0
aF10.237185059876339
aF10.880116294049433
aF0.0
aa(lp123
F29.33230487391392
aF0.0
aF0.0
aF0.0
aF0.0
aF0.0
aF0.0
aa(lp124
F7.1380786113863754
aF3.9299311710373304
aF4.306874675070227
aF10.015536548177495
aF8.480198032506138
aF9.165641738300216
aF26.666063264687235
aa(lp125
F0.0
aF0.0
aF0.00015866514460476469
aF5.189227352455239
aF2.913120510100123
aF0.0
aF24.227551125571168
aa(lp126
F27.098803934995438
aF0.0
aF0.0
aF4.023181542258529
aF0.0
aF0.0
aF0.0
aa(lp127
F0.0
aF0.0
aF0.0
aF7.531116604476254
aF0.0
aF0.0
aF0.0
aa(lp128
F0.0
aF0.0
aF0.0
aF0.0
aF0.0
aF0.0
aF0.0
aa(lp129
F-0.2
aF0.0
aF0.0
aF22.82083593178158
aF0.0
aF0.0
aF0.0
aa(lp130
F0.0
aF0.0
aF0.0
aF0.0
aF0.0
aF0.0
aF6.001949801984575
aa(lp131
F0.0
aF0.0
aF0.0
aF0.0
aF0.0
aF0.0
aF0.0
aa(lp132
F0.0
aF0.0
aF0.0
aF0.0
aF0.0
aF0.0
aF25.324685302943884
aa(lp133
F0.0
aF0.0
aF24.92277930963329
aF0.0
aF0.0
aF0.0
aF0.0
aa(lp134
F-0.2
aF0.0
aF25.125996868007853
aF0.0
aF0.0
aF0.0
aF0.0
aa(lp135
F-0.2
aF-1.0
aF0.0
aF24.518913684216866
aF0.0
aF0.0
aF0.0
aa(lp136
F14.737338661667435
aF6.658497661868006
aF23.085345661452486
aF12.700187660668872
aF13.746586722979442
aF10.917627303433388
aF11.144375117258742
aa(lp137
F3.0311813854526934
aF23.147060318551745
aF0.15453128150849596
aF2.4172144546808774
aF3.1265109277504113
aF0.0
aF-1.0
aa(lp138
F0.23506303015954716
aF0.0
aF20.760096932936815
aF-1.0
aF8.001359110969728
aF7.354863667800805
aF0.0
aa(lp139
F5.602644186730745
aF2.6691072865846066
aF22.527218070352077
aF9.918705631333914
aF11.118582072362962
aF8.671661648640749
aF13.208487680219843
aa(lp140
F0.0
aF0.0
aF24.056412342413793
aF3.548309797333987
aF8.088139251512862
aF0.0
aF0.0
aa(lp141
F-0.2
aF0.0
aF21.80954735120002
aF0.0
aF0.0
aF0.0
aF0.0
aa(lp142
F1.043840631061821
aF0.0
aF18.86289207629836
aF-1.0
aF-1.0
aF0.0
aF-1.0
aa(lp143
F0.0
aF20.806936937527507
aF0.0
aF0.0
aF0.0
aF0.0
aF-1.0
aa(lp144
F0.0
aF0.0
aF0.0
aF0.0
aF0.0
aF0.0
aF0.0
aa(lp145
F29.559728964620167
aF16.15632545497749
aF12.600333060630494
aF9.953630734425747
aF10.69423499345594
aF20.202173155119787
aF11.596830175488499
aa(lp146
F10.330810005677268
aF3.3457930772612943
aF26.51675065440267
aF7.685576089448066
aF9.179617630947968
aF6.567514419477124
aF0.0
aa(lp147
F28.155705483886642
aF0.0
aF0.0
aF0.0
aF0.0
aF0.0
aF0.0
aa(lp148
F29.31409717284598
aF5.157757660613058
aF19.86712649324343
aF3.836897404535482
aF11.168739293362002
aF10.978919781463102
aF11.952975486315147
aa(lp149
F33.05424285648418
aF0.0
aF0.0
aF-1.0
aF0.0
aF0.0
aF0.0
aa(lp150
F0.0
aF0.0
aF0.0
aF0.0
aF28.093837511658105
aF0.0
aF-1.0
aa(lp151
F0.0
aF2.184167833237771
aF27.388208276397556
aF3.8822537709699123
aF6.392942809765073
aF5.8845429772508435
aF0.0
aa(lp152
F29.296530588036845
aF0.0
aF0.0
aF0.0
aF0.0
aF0.0
aF0.0
aa(lp153
F0.0
aF0.0
aF0.0
aF0.0
aF0.0
aF0.0
aF0.0
aa(lp154
F-0.2
aF0.0
aF28.681624920685636
aF-1.0
aF0.0
aF0.0
aF0.0
aa(lp155
F0.0
aF26.15778203731577
aF0.0
aF0.0
aF0.0
aF0.0
aF0.0
aa(lp156
F0.0
aF0.0
aF26.022526149073055
aF0.0
aF0.0
aF0.0
aF0.0
aa(lp157
F0.0
aF0.0
aF0.0
aF-1.0
aF0.0
aF0.0
aF25.506895965575097
aa(lp158
F-0.2
aF0.0
aF0.0
aF-1.0
aF26.49070606841247
aF0.0
aF0.0
aa(lp159
F-0.2
aF0.0
aF26.83806137348019
aF0.0
aF0.0
aF0.0
aF0.0
aa(lp160
F-0.2
aF0.0
aF26.73517771360133
aF3.6614952621709396
aF-1.0
aF0.0
aF2.6057906539228743
aa(lp161
F0.0
aF0.0
aF25.910055090624564
aF0.0
aF-1.0
aF0.0
aF-0.34426006003938225
aa(lp162
F0.0
aF0.0
aF0.0
aF0.0
aF0.0
aF0.0
aF0.0
aa(lp163
F1.8785954404509215
aF2.0894277908092467
aF0.970986696965887
aF8.7787981968434
aF2.0962449892543766
aF2.0603915118315332
aF2.1448539884318842
aa(lp164
F6.4060340584667355
aF21.22956897268185
aF15.607112016879814
aF7.897975707430552
aF9.352617562900722
aF13.803952247357095
aF13.754036306190354
aa(lp165
F-0.08849925186367319
aF-0.11305726628757135
aF-0.3674682641256486
aF5.423026295572788
aF1.2231455271638434
aF0.09516493466169927
aF0.9457905241883364
aa(lp166
F4.23705357325445
aF4.356423478908626
aF5.988904360629784
aF4.414032073879687
aF21.447856907288813
aF4.371545417093545
aF3.376139836043661
aa(lp167
F-0.2
aF28.22731050344104
aF-1.0
aF3.525291384522027
aF2.643404695825413
aF4.654694721309675
aF0.0
aa(lp168
F0.8773855601588105
aF0.0
aF0.0
aF1.1257921850142787
aF23.17571783364076
aF0.0
aF-0.9713644406253972
aa(lp169
F1.1454265065332254
aF15.420841931660243
aF0.7113920943683834
aF2.5019973396830686
aF1.446979834613186
aF1.9849314494205972
aF0.5529534597048589
aa(lp170
F3.576608883970176
aF27.467721396706835
aF2.1734317073561207
aF5.3265831067170275
aF2.1640696972766995
aF4.011809116291801
aF-0.3842478667031455
aa(lp171
F0.0
aF0.0
aF0.0
aF0.0
aF0.0
aF0.0
aF0.0
aa(lp172
F15.563435879731431
aF14.121629021877252
aF11.537916339536979
aF15.044737584780357
aF14.153605791266381
aF14.02781154040418
aF13.936523028741993
aa(lp173
F31.223395792050997
aF17.648241108243163
aF8.174676976851904
aF4.771559909887684
aF4.87193164525223
aF17.50030644694618
aF15.597192557701234
aa(lp174
F19.48230553748092
aF0.0
aF5.151018310855459
aF0.0
aF3.881607382775642
aF0.0
aF-1.0
aa(lp175
F30.9236559088058
aF16.005337492197732
aF14.525502881594925
aF15.636774511855526
aF18.087339150091125
aF18.120952607879147
aF10.919935613517609
aa(lp176
F34.17994219075367
aF6.70624631182372
aF0.0
aF4.158685252785626
aF11.253923099152235
aF7.446621145818039
aF-0.9969001598800364
aa(lp177
F33.540655443966344
aF1.9000335528893384
aF1.2924714241789699
aF2.274093279859181
aF6.24522817937385
aF2.262603434735765
aF2.092848556178468
aa(lp178
F23.418192148635807
aF12.402758662869637
aF4.312962627422324
aF0.0
aF1.7843623510458055
aF5.6742728885612514
aF8.927861644652463
aa(lp179
F32.56523398014966
aF4.584716303883229
aF0.20952675732586634
aF4.669755570271906
aF-1.0
aF0.0
aF8.21564777518104
aa(lp180
F0.0
aF0.0
aF0.0
aF0.0
aF0.0
aF0.0
aF0.0
aa(lp181
F-0.2
aF17.752339072311045
aF0.0
aF0.0
aF0.0
aF0.0
aF-1.0
aa(lp182
F0.0
aF0.0
aF-1.0
aF0.0
aF0.0
aF0.0
aF14.331547638683405
aa(lp183
F0.0
aF0.0
aF0.0
aF19.935076385542338
aF0.0
aF0.0
aF0.0
aa(lp184
F0.0
aF22.458797380701196
aF-1.0
aF0.0
aF0.0
aF0.0
aF0.0
aa(lp185
F-0.2
aF0.0
aF0.0
aF20.224189866501145
aF0.0
aF0.0
aF0.0
aa(lp186
F0.0
aF0.0
aF-1.0
aF21.349699848541693
aF0.0
aF0.0
aF0.0
aa(lp187
F0.0
aF22.90635054537017
aF0.0
aF0.0
aF0.0
aF0.0
aF0.0
aa(lp188
F-0.2
aF28.64256021089615
aF0.0
aF0.0
aF0.0
aF0.0
aF0.0
aa(lp189
F0.0
aF0.0
aF0.0
aF0.0
aF0.0
aF0.0
aF0.0
aa(lp190
F15.631668647248102
aF12.10430013146961
aF9.670095942914855
aF22.70505028619671
aF7.958976180899231
aF14.272935920546772
aF10.628580750878145
aa(lp191
F13.73696823231495
aF22.464671832297842
aF10.83455296882363
aF6.027786025874978
aF4.662724730794284
aF11.409664886836865
aF9.642604049291414
aa(lp192
F3.51707652717125
aF2.872047168346609
aF4.364926546911025
aF23.70669557692614
aF1.1452215230147544
aF4.049017685600071
aF0.0
aa(lp193
F-0.2
aF15.31660417314584
aF10.866981163266912
aF24.814596117559354
aF7.749796751719112
aF0.0
aF0.0
aa(lp194
F7.260344322478556
aF27.9148096843847
aF0.0
aF0.0
aF0.0
aF0.0
aF0.0
aa(lp195
F-0.2
aF-1.0
aF-1.0
aF17.769627048938425
aF0.0
aF0.0
aF-0.2692752071235579
aa(lp196
F1.4261564102101676
aF3.6056561705084245
aF0.0
aF20.05722890590338
aF1.684464051413608
aF0.863462196218674
aF2.006799457458221
aa(lp197
F0.0
aF29.01594845642807
aF0.0
aF0.0
aF0.0
aF0.0
aF-1.0
aa(lp198
F0.0
aF0.0
aF0.0
aF0.0
aF0.0
aF0.0
aF0.0
aa(lp199
F32.71306761395837
aF14.461743791260904
aF13.818163382104206
aF17.119166179467445
aF17.89363902263737
aF17.174117794877475
aF18.24401516701644
aa(lp200
F31.91860256885974
aF7.983612091517464
aF14.106783425476866
aF10.819170191936053
aF8.549040414221963
aF6.3210162472921905
aF5.254794209813497
aa(lp201
F29.73769156671245
aF-1.0
aF7.57887373319479
aF0.0
aF4.265455079247598
aF0.0
aF5.71455268732941
aa(lp202
F31.844844971490986
aF0.0
aF11.673099044267033
aF0.0
aF0.0
aF16.892828222080944
aF6.246559662395576
aa(lp203
F34.344637058582926
aF0.0
aF0.0
aF5.943115678509105
aF0.0
aF0.0
aF0.0
aa(lp204
F27.1530720114706
aF0.0
aF-1.0
aF0.0
aF0.0
aF5.148297442520126
aF0.0
aa(lp205
F30.423667640592924
aF6.183148671493342
aF0.0
aF0.0
aF1.3125415968102951
aF6.318396108424896
aF-1.0
aa(lp206
F0.0
aF0.0
aF0.0
aF30.04508932820532
aF-0.08186108655801264
aF0.0
aF0.0
aa(lp207
F0.0
aF0.0
aF0.0
aF0.0
aF0.0
aF0.0
aF0.0
aa(lp208
F0.0
aF14.586168393098847
aF-1.0
aF0.0
aF0.0
aF0.0
aF0.0
aa(lp209
F0.0
aF0.0
aF0.0
aF0.0
aF0.0
aF0.0
aF21.831329053082847
aa(lp210
F-0.2
aF-1.0
aF0.0
aF0.0
aF21.271703954942147
aF0.0
aF-1.0
aa(lp211
F0.0
aF0.0
aF-1.0
aF0.0
aF27.608077859664387
aF0.0
aF-1.0
aa(lp212
F0.0
aF0.0
aF-1.0
aF0.0
aF0.0
aF0.0
aF24.58012642643716
aa(lp213
F0.0
aF0.0
aF0.0
aF26.301116880502217
aF0.0
aF0.0
aF0.0
aa(lp214
F-0.2
aF0.0
aF-1.0
aF26.07633226209899
aF-1.0
aF0.0
aF-1.0
aa(lp215
F-0.2
aF27.638293800575905
aF0.0
aF0.0
aF0.0
aF0.0
aF0.0
aa(lp216
F0.0
aF0.0
aF0.0
aF0.0
aF0.0
aF0.0
aF0.0
aa(lp217
F1.7446228479387473
aF6.085737780299909
aF1.1924823424955253
aF0.408632978588249
aF2.4288840092954374
aF2.4135598346145235
aF1.1006975391100684
aa(lp218
F3.633425791586445
aF22.131273735828728
aF6.19094780441605
aF2.10881995538461
aF4.156700766651825
aF0.0
aF2.5870520073151684
aa(lp219
F0.0
aF0.0
aF0.0
aF0.0
aF0.0
aF0.0
aF0.0
aa(lp220
F2.5790890756172344
aF2.595511757740979
aF2.2742216165354914
aF2.1835347890651606
aF24.386173596213855
aF0.0
aF-1.0492078831098581
aa(lp221
F-0.2
aF0.0
aF-1.0
aF-1.0
aF25.789920182079747
aF0.0
aF-0.5250383087454763
aa(lp222
F0.0
aF0.0
aF0.0
aF0.0
aF0.0
aF0.0
aF0.0
aa(lp223
F0.0
aF0.0
aF0.0
aF0.0
aF0.0
aF0.0
aF0.0
aa(lp224
F0.0
aF0.0
aF0.0
aF0.0
aF0.0
aF0.0
aF0.0
aa(lp225
F0.0
aF0.0
aF0.0
aF0.0
aF0.0
aF0.0
aF0.0
aa(lp226
F16.875504463666648
aF5.68744423570267
aF1.773094213296789
aF2.1960149087757403
aF11.449471578007355
aF9.625231461270193
aF8.078370978920352
aa(lp227
F30.24923584868004
aF0.0
aF4.380326897387797
aF4.2163292063103865
aF0.0
aF10.483067961715195
aF13.638636449223995
aa(lp228
F0.0
aF0.0
aF0.0
aF0.0
aF0.0
aF0.0
aF0.0
aa(lp229
F33.596542308365
aF4.514886862240252
aF0.0
aF0.0
aF0.0
aF0.0
aF0.0
aa(lp230
F0.0
aF2.7776226372231365
aF-1.0
aF0.0
aF28.42315387258214
aF0.0
aF0.0
aa(lp231
F0.0
aF0.0
aF0.0
aF0.0
aF0.0
aF0.0
aF0.0
aa(lp232
F0.0
aF0.0
aF0.0
aF0.0
aF0.0
aF0.0
aF0.0
aa(lp233
F0.0
aF0.0
aF0.0
aF0.0
aF0.0
aF0.0
aF0.0
aa(lp234
F0.0
aF0.0
aF0.0
aF0.0
aF0.0
aF0.0
aF0.0
aa(lp235
F-0.2
aF0.0
aF-1.0
aF-1.0
aF0.0
aF0.0
aF17.476566557785738
aa(lp236
F0.0
aF0.0
aF0.0
aF0.0
aF21.687203877603316
aF0.0
aF0.0
aa(lp237
F0.0
aF0.0
aF0.0
aF0.0
aF0.0
aF0.0
aF0.0
aa(lp238
F0.0
aF0.0
aF-1.0
aF0.0
aF0.0
aF0.0
aF23.3164516469938
aa(lp239
F-0.2
aF0.0
aF-1.0
aF0.0
aF24.9762376828171
aF0.0
aF0.0
aa(lp240
F0.0
aF0.0
aF0.0
aF0.0
aF0.0
aF0.0
aF0.0
aa(lp241
F0.0
aF0.0
aF0.0
aF0.0
aF0.0
aF0.0
aF0.0
aa(lp242
F0.0
aF0.0
aF0.0
aF0.0
aF0.0
aF0.0
aF0.0
aa(lp243
F0.0
aF0.0
aF0.0
aF0.0
aF0.0
aF0.0
aF0.0
aa.