(ilinear_regression
LinearRegression
p0
(dp1
S'_weights'
p2
(lp3
F-11.684320708080497
aF2.5997482860116254
aF7.506555761853673
aF1.7436289928496442
aF1.4281084639425703
aF8.106189774449263
aF1.038865022015348
aF3.0777380618208885
aF10.193894718321012
aF-0.35453828040404234
aF2.176021589344196
aF6.337897503617841
aF1.9164458397212418
aF2.140968905955119
aF6.575033094700342
aF3.564437552323583
aF2.02273006689151
aF9.709874373394534
aF0.3679542398426839
aF0.24064649699148083
aF9.366675899681175
aF0.36763749056413153
aF0.8757045668931839
aF11.329823443685918
aF-0.2686358094900658
aF0.5426526957514006
aF7.668395606050607
aF2.1269376973192595
aF1.1702101897348245
aF7.06189132420055
aF2.7301505229329135
aF0.26585881162270925
aF8.553148680452379
aF2.6760808656173416
aF0.515708879480636
aF9.10101008497513
aF1.7918838707477682
aF-5.2492339171852915
aF17.282725824578286
aF-0.8832447943319486
aF1.0273282474166148
aF9.186868910390166
aF1.828239431885909
aF1.6724194446226344
aF7.805807027899156
aF1.0533533017369592
aF2.6557948038930737
aF8.706462680031784
aF0.12990384423633994
aF1.2774017990167108
aF10.058924550003947
aF0.6482964001034419
aF1.4920998262215803
aF10.512470150374908
aF-0.23497790339783906
aF1.2239100986562403
aF9.045409086717692
aF0.19915962883824084
aF2.494179538633807
aF8.83672770052372
aF2.1179066006879412
aF2.7819096703383694
aF6.199906351467398
aF1.2611416440016587
aF2.3770176672867134
aF8.25193470351247
aF1.8047568527743456
aF3.099277655657808
aF10.172759658392215
aF-1.1580463611503196
aF1.3727921762695963
aF8.002451321052726
aF3.498705282909138
aF2.1648186234467515
aF6.683056274256221
aF2.012650834392413
aF-4.606973240648193
aF0.9229943814305103
aF1.4767918514402008
aF4.150092504639564
aF3.1423896216980003
aF4.313443579669372
aF4.380365633289969
aF2.3341286744701173
aF5.491531856360116
aF-2.1489467975402494
aF-2.339338045531197
aF2.7228052884449134
aF-0.663003556194137
aF0.36901470678430853
aF0.70601870756973
aF-1.0381246972671747
aF-0.87709605745353
aF2.172241884847416
aF-0.8570444464029259
aF1.9608189851223286
aF0.8828104051325805
aF0.8492784604697832
aF0.2877658186630032
aF-0.18407501868540876
aF-0.45571440535410734
aF-0.17205844378870427
aF0.8598986999742186
aF-0.6555788868408847
aF1.5478252190855926
aF5.187378251013667
aF-2.3030656574359893
aF-1.4353891625810686
aF2.3326783643367093
aF0.2936249088488447
aF0.5378428436665128
aF-0.05166754970123777
aF2.2565433739744556
aF-0.9704875303974985
aF1.3447532042436967
aF0.2964319541199416
aF0.6874644259376336
aF-0.7120279888764853
aF-0.8877841147755758
aF-0.9745350155909551
aF-0.14916992938570606
aF-0.8072554551041478
aF-0.7665148212848354
aF0.25117177944047797
aF-0.05358839865397802
aF1.158562968209397
aF7.261661188542557
aF-1.4248395310102708
aF-0.5636322047826698
aF1.1621375600156927
aF0.2236945127148045
aF0.5493516364789567
aF0.3862964490185574
aF2.553753404304771
aF0.6504187211812853
aF0.9151707206173952
aF0.454728752265275
aF1.8891928514203495
aF0.08558755738812551
aF-0.8487153392222948
aF0.6073540241402191
aF0.07082288052844299
aF0.8082460607794495
aF-0.8267192657941367
aF0.18420564825174401
aF-0.47078922686535885
aF1.132649028218012
aF4.224174585198492
aF-1.0447622206768867
aF4.004469208798077
aF1.6604227137754706
aF0.5678854994307079
aF0.7095087731918511
aF0.361647859074278
aF0.8255543426278676
aF-0.5169940958734567
aF0.4472721843102317
aF0.0156716026006265
aF0.34395076842427824
aF0.8042071022627479
aF0.19625508262677016
aF0.3553426929305612
aF0.5748660269822514
aF-0.7294949692296702
aF-0.5352463778368723
aF-0.43133957763787834
aF0.534870772362783
aF0.3503532524081914
aF4.079063903276228
aF0.0820509975315627
aF3.9384121816001376
aF1.3370624386796826
aF0.7571886802964853
aF0.9022545860316711
aF0.1744861936346509
aF-0.392390119958618
aF-0.4637137916744203
aF0.19807010693357832
aF0.609531696266421
aF0.6959416063587903
aF0.1297731534933606
aF-0.8942558840415653
aF0.4418116681905693
aF0.6072959669885687
aF-0.5532337573988224
aF0.760802744763599
aF0.6697932938883784
aF0.033434585728279176
aF0.6445055169494551
aF2.256301676081147
aF-1.4133850696055414
aF-5.085741994611955
aF2.192695334184614
aF-0.7535738954210548
aF1.3272245296351026
aF0.378995357084823
aF5.646587201416462
aF-0.180140934118304
aF3.594681617310941
aF0.07095848903361968
aF2.201217010336747
aF-0.8011028261738682
aF-0.1561645532453635
aF0.2347176669065063
aF-0.8750816518438562
aF0.4369805509018505
aF-0.9899273670270567
aF-0.21376291224032573
aF-0.36573132322881685
aF1.614205953043313
aF4.054669106538805
aF-0.5683763783003767
aF-2.111922955516665
aF3.011009244528477
aF-0.14836543120712248
aF2.5829416027778254
aF-0.23582404513140354
aF2.6717640582120725
aF-0.7821402470905372
aF0.5989665296363087
aF0.6650113954469152
aF-0.7572173896034701
aF-0.39925779610254186
aF-0.1656452257752723
aF-0.927021085860742
aF-0.9014006048298342
aF0.03351048005833346
aF-0.30109338818792253
aF-0.1806455659976125
aF0.9380310961241625
aF1.3906537019893108
aF10.032454755371312
aF-0.7762772688904355
aF-1.7664458617891583
aF0.245917021110647
aF0.9092580305059266
aF2.352516984043357
aF0.13604518216117456
aF0.618240351142121
aF0.13671331892832228
aF0.3515887707858335
aF0.9021881286618059
aF0.2403343095843435
aF-0.42739901780171974
aF-0.29792526871110625
aF-0.9469254923118915
aF0.18422416029622202
aF0.28498895738517005
aF-0.5842400597253294
aF0.4492623502744204
aF-0.03306605922438011
aF1.0484848275580325
aF4.142802531679246
aF0.6844397535898115
aF6.350854165560962
aF1.1575641934644105
aF1.4438507002028802
aF1.5360556829646634
aF-0.2372297980886433
aF1.6017085909539428
aF0.7582341231226484
aF-1.2060403640886672
aF-0.9180426695078385
aF-1.250765939897516
aF-0.38765130103379564
aF-0.2562726612190833
aF-0.02939054932841234
aF-0.06485230755105409
aF-0.8918336080720857
aF-0.48097819656988383
aF-0.00742352343173347
aF-0.4567175498705762
aF0.683854105770803
aF2.6058035706455
aF0.40346612851418273
aF6.88355637657957
aF0.5514175992906956
aF0.9043158551856552
aF0.753668681410519
aF0.6548343347339793
aF-0.24996547795430646
aF-0.2753683853258111
aF-0.11050864301523654
aF-0.2418966479440825
aF-0.8558292947116896
aF-0.16316830900934787
aF0.3636465701769176
aF0.7841558172844676
aF0.16271685580239348
aF-0.4466326422916991
aF0.08169904627471114
aF-0.5693848778941606
aF0.4884800539535268
aF3.781844236514564
aF-1.587951845496868
aF3.8251103384237144
aF-3.6059336277047955
aF6.37822462745292
aF1.653040021753453
aF4.763327399280568
aF0.7508262651759607
aF-0.10244754452926498
aF0.9690972774709534
aF-2.1771067615357738
aF0.9872555551169566
aF-1.0013522317704775
aF0.03132240338685022
aF0.4066762486400277
aF0.2575241798254846
aF0.11893516388170355
aF0.6244637353067308
aF0.622114511003891
aF-0.23437507706951788
aF0.027056081219775763
aF5.062698000775931
aF-1.0191972886403127
aF4.14011081951362
aF-3.8205976521001412
aF9.623189630508577
aF3.0229496598310344
aF6.0290416086724825
aF0.1413025027924497
aF-4.917678766776976
aF-0.4980976120604055
aF-2.6323291982143853
aF0.867116041761655
aF-0.6613766165003577
aF-0.2821285724968503
aF-0.12102016232860868
aF-0.5085109685069507
aF-0.5336620679731499
aF-0.9087851009186232
aF0.8973406302471985
aF-0.3294864137932867
aF0.864768872657816
aF24.159467129586467
aF-2.9555908332384493
aF-1.4033264100788057
aF-3.6779553647131342
aF-4.31990275532194
aF-0.564942348943196
aF1.0067409653888788
aF-0.07855946583253193
aF0.49493954890496217
aF-0.42494103138774353
aF-0.10918968735569146
aF0.3758440925518267
aF-0.3778121741789069
aF-0.8728491719680411
aF-0.053282903345462485
aF0.8286097693626457
aF0.9582571621958862
aF0.09841020720444815
aF-0.2644360756591444
aF0.8408759929877467
aF0.13522300362081419
aF1.253548774342419
aF0.5978979396463262
aF1.592599314059841
aF6.6168313970685375
aF-0.09897276588354526
aF-0.05333909579352282
aF0.8084550294348865
aF0.34504136945620223
aF2.2309777431939364
aF-0.03742885725240108
aF-0.06025318711308729
aF0.010252525148795266
aF-1.6009882232657646
aF0.6616118301660967
aF-0.7914938414214161
aF-0.9469535691862458
aF-0.22933050295615565
aF0.26063704273086463
aF-0.28975365307388357
aF0.07993899219416534
aF0.8957071965824035
aF-0.35383876822872357
aF-1.1824868073118968
aF0.23469762085181833
aF6.348003482181462
aF-0.9256449064262092
aF-0.2997642131208378
aF-0.21586966594447463
aF-0.45586120164240085
aF4.081754971731904
aF-0.052827424213409024
aF1.156391814077539
aF0.24939867289479234
aF1.2015175448126394
aF0.8651783330708316
aF0.3742106426638623
aF-0.5621774760515585
aF-0.808917224285044
aF-0.1211830365334503
aF-0.2035695046584447
aF-0.09980946371884403
aF0.0366136609558938
aF1.8142808376909139
aF-2.716164962856708
aF4.044732419850953
aF-5.048756769349634
aF0.35208490524957975
aF-0.2762954708970352
aF2.986057915976422
aF-0.8849499575690829
aF2.3628640131604848
aF-0.7418967723788366
aF3.475548841069768
aF-0.30107213886419837
aF3.563380147299939
aF-0.37459337167383344
aF-0.34023200757511707
aF-0.04029002071427312
aF-0.8185600494446366
aF-0.06924203796424311
aF-0.6128869507405423
aF0.8160551124287843
aF-0.1848790058108829
aF2.036483565078696
aF-4.481093278980443
aF4.902548315421168
aF-1.4116556051279303
aF0.5085734375155841
aF-0.3326596586314869
aF2.380674600754275
aF-0.32367930322632343
aF1.515212057568554
aF0.3215103674755584
aF2.9678127900707505
aF-0.8738841925488474
aF3.0448075307452664
aF-0.07461180272686296
aF0.8240980506186273
aF0.6902532333844424
aF-0.874255989507623
aF0.18059379320851687
aF0.7249036594654434
aF0.009541807806631386
aF-0.8241459041062866
aF2.818055220585032
aF-3.523421992949082
aF8.501251849070803
aF1.4338596758714655
aF0.4397072425443859
aF-0.5028997043898186
aF1.020138632603494
aF0.4934658922367039
aF-1.6990688637160476
aF-0.9480226879717846
aF1.2436620158212481
aF-0.8961036793816666
aF0.5295632217163839
aF0.28420591078692015
aF0.9426254705910944
aF0.7975023288256002
aF-0.13345969498369592
aF-0.6191203665940193
aF0.14242927187681031
aF-0.6781659419508883
aF-0.0438778813746763
aF1.317878917550911
aF-0.7375382895356736
aF1.2874029428678695
aF5.9976460188910865
aF-0.42232730488052644
aF-0.31535968726601626
aF0.35396009682219964
aF0.2670781192532359
aF3.0767272636173026
aF0.5087105312683748
aF0.16268029864589295
aF-0.938694407224341
aF-0.24553770459276406
aF-0.563257449073371
aF0.5895675721377609
aF0.64379795083114
aF-0.8211703363613396
aF0.2712349679188777
aF-0.5378418360877923
aF-0.2833224612421261
aF-0.9435064299233928
aF0.5180352288308512
aF-0.4550999005029475
aF-0.11693700870686857
aF6.447906789579915
aF0.05440103347632369
aF-0.4467986572753582
aF-0.3984868426977403
aF-0.5635940904595309
aF2.2287166064354675
aF0.593399415554769
aF1.1557211111455667
aF0.5710592070433078
aF1.401950098160675
aF-0.7580651990437512
aF-0.6264221697964121
aF0.3594269188946748
aF-0.42181095076024255
aF-0.25676239749897656
aF-0.6630000721177927
aF0.18008972608614382
aF0.02853507284985346
aF2.1348279946693203
aF-1.1630409928485446
aF3.222657240060001
aF-1.3850842648942812
aF-1.3065506107639198
aF-0.157328485298527
aF2.382171125871199
aF-0.4748702696193565
aF1.4765183932823363
aF0.563793652245205
aF2.6597968598143256
aF-0.37353514712931957
aF2.8519301574937406
aF0.2731998414100665
aF0.31889428990649393
aF0.47042662413539493
aF-0.6831056007420586
aF-0.7784507079097585
aF0.19756465339488294
aF0.010762849163941546
aF-0.897898676421583
aF1.4247079239536211
aF-1.8524539235807962
aF4.554502530461676
aF0.657774660012451
aF-1.1796890306738868
aF-0.73630857261211
aF0.9960913144909481
aF0.24510759298286855
aF4.759626036582197
aF-0.35555766668383115
aF3.0799383194730505
aF-0.008380870743623037
aF2.1270610908786214
aF0.33358235588446683
aF-0.008975460434490268
aF-0.952331601243346
aF0.3312961351359378
aF-0.4940550858724033
aF0.16429486998409804
aF0.08852619585380972
aF-0.19112402201030743
aF0.7203106722331205
aF-1.850391501532021
aF4.115396322325189
aF2.217264371388955
aF-1.4028743389532108
aF-1.4910587877569794
aF-1.3092119702170286
aF0.9738690460226216
aF5.14597012362472
aF-0.030291574942290955
aF2.605765336822733
aF0.9332353149913983
aF2.8598494655116378
aF-0.5004621172652626
aF-0.11228743641342276
aF-0.8570080333113732
aF-0.24642167091086553
aF-0.7856409624378857
aF0.07378874518572132
aF0.6664348970945411
aF-0.378318961335127
aF1.2463870099538212
aF-0.8659430207236577
aF4.284264644108877
aF5.601735102027649
aF1.9797805868485558
aF0.349276127717992
aF0.48538246621594294
aF0.1044839580795851
aF0.11288061105379842
aF-0.3651794921664915
aF0.16190240772319967
aF0.3588535467752032
aF-1.0626198402333389
aF0.8359852477952607
aF0.9485488786370697
aF-0.07832776316754075
aF0.542927301053207
aF0.577255077532046
aF-0.5623443618256614
aF-0.5944413188871223
aF0.10107323446272876
aF0.12526475609851764
aF-0.55999975323257
aF2.0336038022267093
aF4.455069487670288
aF1.5698396485536708
aF-0.2260789433893533
aF-0.13379900897390243
aF0.37332370093882217
aF-0.9057336124916109
aF-0.34555896466283276
aF1.061655711092829
aF0.6316651427868665
aF1.924922388643822
aF-0.5271465983741663
aF0.780362348315965
aF-0.938912338099982
aF0.04287992975722732
aF0.5691419627972574
aF-0.13996588309253788
aF-0.9892671060923655
aF-0.28475149655002174
asS'_inputs'
p4
I608
sb.