(ilinear_regression
LinearRegression
p0
(dp1
S'_weights'
p2
(lp3
F-0.23366394810506158
aF0.37430081655552006
aF1.9696233203758784
aF-1.944647856192636
aF-0.9811990026178067
aF1.4630690856950663
aF-1.3593635826451587
aF0.5353003899841214
aF2.518333058206487
aF-1.5871957084300632
aF-0.580294636756158
aF-0.33156359777366545
aF-0.10843359276264827
aF0.7087438980009061
aF0.059164494450687985
aF0.061874400549613684
aF-0.27182361745175676
aF3.728538530962636
aF-2.8068129933586086
aF-3.00000483124226
aF2.3188676262201544
aF-0.7945596677167251
aF-1.0978923381391283
aF4.283298617414491
aF-2.699170838163094
aF-1.5349440235066643
aF0.18114067813531562
aF0.24113258451596356
aF-0.378089122064641
aF-0.48240843185974286
aF0.37209283081599853
aF-2.9000333630438497
aF1.6618090986382332
aF1.2826558621220736
aF-3.205771486568268
aF2.247916703210484
aF0.915800858585473
aF-12.039280077755148
aF12.622115225172323
aF-0.8832447943319486
aF-1.1393814879736326
aF1.0413366352310205
aF0.6898246824582338
aF-0.4083823041639503
aF0.10339619056477894
aF-0.614090872118428
aF0.20418473587381905
aF2.7247465255555214
aF-2.88742669324468
aF-0.9140457658020334
aF3.461208603501233
aF-2.0131968485517584
aF-1.4450031640841532
aF3.244030319126743
aF-1.4800918418204834
aF-0.9673687190102771
aF1.5791323115411373
aF-1.5939415382942341
aF0.42248203042878635
aF1.549558383690344
aF0.026116665749314205
aF-0.3978534990901412
aF1.043614819871138
aF-1.853460414949876
aF-0.2501724278123266
aF2.1981167068200094
aF-0.9648918154103561
aF1.046342766090911
aF3.449590593382844
aF-3.8325991665492403
aF-0.7696509932983115
aF0.7909804380319296
aF1.4019625755208522
aF0.04146436626244205
aF-0.052681951457029697
aF-0.5789134426867645
aF-6.660172350381993
aF-1.8007189110434703
aF0.2272420666155251
aF2.399826151054028
aF1.1122404629918836
aF3.3066325216721615
aF3.7433976306360535
aF-0.0058507171610317835
aF2.4626991882385245
aF-2.2212920724551592
aF-3.8158211778202364
aF0.6076261024516427
aF-0.4039677039798335
aF-0.34692409328249557
aF0.70601870756973
aF-1.386983778485377
aF-0.87709605745353
aF1.5685774369149028
aF-0.8570444464029259
aF0.9524083550991853
aF0.8828104051325805
aF0.8492784604697832
aF0.2877658186630032
aF-0.18407501868540876
aF-0.45571440535410734
aF-0.17205844378870427
aF0.8598986999742186
aF-0.6555788868408847
aF-0.25957697317390976
aF3.711441776851041
aF-3.099605384743813
aF-2.750594686575697
aF0.2333609244424808
aF-0.14263478457767875
aF-0.2443686176755331
aF-0.05166754970123777
aF0.8511659385648586
aF-0.9704875303974985
aF0.955979989600072
aF0.2964319541199416
aF-0.25616917159796476
aF-0.7120279888764853
aF-0.8877841147755758
aF-0.9745350155909551
aF-0.14916992938570606
aF-0.8072554551041478
aF-0.7665148212848354
aF0.25117177944047797
aF-0.05358839865397802
aF-1.061084640277847
aF3.225701661530025
aF-2.872988443812064
aF-0.5362975632691241
aF-1.0797748114300814
aF-0.09422369680179579
aF0.14135727973007003
aF0.3862964490185574
aF2.4290526094927127
aF0.6504187211812853
aF0.38230006097275077
aF0.454728752265275
aF1.7403538904000817
aF0.08558755738812551
aF-0.8487153392222948
aF0.6073540241402191
aF0.07082288052844299
aF0.8082460607794495
aF-0.8267192657941367
aF0.18420564825174401
aF-0.47078922686535885
aF-1.1841561886148457
aF3.8158157153909475
aF-1.946201537707987
aF2.000756320086334
aF-0.3093496093098688
aF0.45945993607749525
aF0.34855079410392037
aF0.361647859074278
aF-1.7998084518103352
aF-0.5169940958734567
aF0.07346051825328725
aF0.0156716026006265
aF-0.03805937314700862
aF0.8042071022627479
aF0.19625508262677016
aF0.3553426929305612
aF0.5748660269822514
aF-0.7294949692296702
aF-0.5352463778368723
aF-0.43133957763787834
aF0.534870772362783
aF-1.2417132595220786
aF1.9147470594080254
aF-1.0327156928979093
aF3.107257496684771
aF-1.671261977039873
aF1.0517302711720518
aF0.44906190428350756
aF0.1744861936346509
aF-2.126052334968353
aF-0.4637137916744203
aF0.13194640243536812
aF0.609531696266421
aF-0.08564899637392183
aF0.1297731534933606
aF-0.8942558840415653
aF0.4418116681905693
aF0.6072959669885687
aF-0.5532337573988224
aF0.760802744763599
aF0.6697932938883784
aF0.033434585728279176
aF-0.38725470512145593
aF-0.09918942713030691
aF-1.250022554138348
aF-6.767125818811768
aF1.9015566131175494
aF-0.9708584017470966
aF-1.3255703704873958
aF0.378995357084823
aF3.734340415959775
aF-0.180140934118304
aF2.60912997948714
aF0.07095848903361968
aF1.7148494351713774
aF-0.8011028261738682
aF-0.1561645532453635
aF0.2347176669065063
aF-0.8750816518438562
aF0.4369805509018505
aF-0.9899273670270567
aF-0.21376291224032573
aF-0.36573132322881685
aF-0.5738584883597695
aF2.585645898716093
aF-2.241846686398252
aF-5.356051360522361
aF2.909570136886076
aF-0.029434388210964505
aF-0.7011779530680022
aF-0.23582404513140354
aF2.6455375387994553
aF-0.7821402470905372
aF0.3404703124239961
aF0.6650113954469152
aF-0.08183743013337416
aF-0.39925779610254186
aF-0.1656452257752723
aF-0.927021085860742
aF-0.9014006048298342
aF0.03351048005833346
aF-0.30109338818792253
aF-0.1806455659976125
aF0.9380310961241625
aF-0.6480510298898623
aF8.870975781437188
aF-2.96176191096562
aF-4.014444366413345
aF-3.53989257637094
aF-0.4067652565760705
aF0.17201612028006644
aF0.13604518216117456
aF2.4549934299134475
aF0.13671331892832228
aF1.5278734495617343
aF0.9021881286618059
aF0.6926403929001537
aF-0.42739901780171974
aF-0.29792526871110625
aF-0.9469254923118915
aF0.18422416029622202
aF0.28498895738517005
aF-0.5842400597253294
aF0.4492623502744204
aF-0.03306605922438011
aF-1.3253587248965444
aF1.2738652393722287
aF-1.3998053347773662
aF4.935341433057145
aF-0.9973029836417829
aF0.46616829524590164
aF1.3358654893411364
aF-0.2372297980886433
aF1.515527850586571
aF0.7582341231226484
aF-1.1389879423509344
aF-0.9180426695078385
aF-0.6070159399252846
aF-0.38765130103379564
aF-0.2562726612190833
aF-0.02939054932841234
aF-0.06485230755105409
aF-0.8918336080720857
aF-0.48097819656988383
aF-0.00742352343173347
aF-0.4567175498705762
aF-1.3969639381503145
aF0.40540728040532137
aF-0.9200844425691878
aF4.975637260307454
aF-1.2925614996520307
aF0.7361400924123014
aF0.3040118982822375
aF0.6548343347339793
aF-2.559699880654235
aF-0.2753683853258111
aF-0.419802082214042
aF-0.2418966479440825
aF0.28703745357173327
aF-0.16316830900934787
aF0.3636465701769176
aF0.7841558172844676
aF0.16271685580239348
aF-0.4466326422916991
aF0.08169904627471114
aF-0.5693848778941606
aF0.4884800539535268
aF1.1030124523838905
aF-1.0231532585619985
aF2.6795871005437557
aF-5.855260105550252
aF3.6889496926048966
aF0.5441960856823634
aF0.1324410514132317
aF0.7508262651759607
aF-1.725681470996725
aF0.9690972774709534
aF0.4614942705260111
aF0.9872555551169566
aF0.4705120343675896
aF0.03132240338685022
aF0.4066762486400277
aF0.2575241798254846
aF0.11893516388170355
aF0.6244637353067308
aF0.622114511003891
aF-0.23437507706951788
aF0.027056081219775763
aF1.983885783955047
aF-1.6298104812564789
aF2.748931872722073
aF-4.339816981529791
aF5.651792732409097
aF2.1042634423921456
aF2.1414708295571825
aF0.1413025027924497
aF-3.632513008997029
aF-0.4980976120604055
aF-0.996950449473568
aF0.867116041761655
aF-0.6551003026840171
aF-0.2821285724968503
aF-0.12102016232860868
aF-0.5085109685069507
aF-0.5336620679731499
aF-0.9087851009186232
aF0.8973406302471985
aF-0.3294864137932867
aF0.864768872657816
aF16.400539246551165
aF-3.7641222554819547
aF-3.2749444640590553
aF-3.485563834164683
aF-3.83031235526025
aF-1.3572948486663674
aF0.10553213378630404
aF-0.07855946583253193
aF0.49493954890496217
aF-0.42494103138774353
aF-0.10918968735569146
aF0.3758440925518267
aF-0.3778121741789069
aF-0.8728491719680411
aF-0.053282903345462485
aF0.8286097693626457
aF0.9582571621958862
aF0.09841020720444815
aF-0.2644360756591444
aF0.8408759929877467
aF0.13522300362081419
aF-1.5341661326832872
aF-1.0239235589869222
aF-0.22374819061533616
aF5.184630491971044
aF-0.4578139974509588
aF-0.29409346638217315
aF0.13461803033656597
aF0.34504136945620223
aF1.181606248483878
aF-0.03742885725240108
aF-0.8377680383267528
aF0.010252525148795266
aF-2.2932412206326815
aF0.6616118301660967
aF-0.7914938414214161
aF-0.9469535691862458
aF-0.22933050295615565
aF0.26063704273086463
aF-0.28975365307388357
aF0.07993899219416534
aF0.8957071965824035
aF-2.1874212151847248
aF-2.3990668577998435
aF-1.3143021781371913
aF5.786127324490911
aF-1.4236691712918645
aF-1.074119384747112
aF-1.3435970526408312
aF-0.45586120164240085
aF3.24051533966584
aF-0.052827424213409024
aF0.07426674571071294
aF0.24939867289479234
aF-0.7646292374189636
aF0.8651783330708316
aF0.3742106426638623
aF-0.5621774760515585
aF-0.808917224285044
aF-0.1211830365334503
aF-0.2035695046584447
aF-0.09980946371884403
aF0.0366136609558938
aF0.21263000388380113
aF-3.160173368617252
aF3.1285476624473665
aF-6.298789618221098
aF-0.07391406153783547
aF-0.7803739250044052
aF-0.39461616403620575
aF-0.8849499575690829
aF1.7542319473494954
aF-0.7418967723788366
aF1.974945717499111
aF-0.30107213886419837
aF2.7445869234554476
aF-0.37459337167383344
aF-0.34023200757511707
aF-0.04029002071427312
aF-0.8185600494446366
aF-0.06924203796424311
aF-0.6128869507405423
aF0.8160551124287843
aF-0.1848790058108829
aF0.16771258411010784
aF-3.4783002013160758
aF3.5009747227882215
aF-2.696284368247076
aF-0.7936815189874363
aF-0.3592180103870371
aF-0.4953069707864638
aF-0.32367930322632343
aF0.7708308953192912
aF0.3215103674755584
aF1.398227678825472
aF-0.8738841925488474
aF1.6650921831186383
aF-0.07461180272686296
aF0.8240980506186273
aF0.6902532333844424
aF-0.874255989507623
aF0.18059379320851687
aF0.7249036594654434
aF0.009541807806631386
aF-0.8241459041062866
aF-0.3585879956693717
aF-3.786328316824994
aF3.3847462566633175
aF-0.19004077760789803
aF-1.5543884912566952
aF-1.1836773523137516
aF-0.5266526838103461
aF0.4934658922367039
aF0.06713599016774235
aF-0.9480226879717846
aF1.9326403207890928
aF-0.8961036793816666
aF1.025343587044007
aF0.28420591078692015
aF0.9426254705910944
aF0.7975023288256002
aF-0.13345969498369592
aF-0.6191203665940193
aF0.14242927187681031
aF-0.6781659419508883
aF-0.0438778813746763
aF-1.297293216362826
aF-1.7649837333065386
aF0.45662647431167874
aF4.126139475130346
aF-1.5598408647108168
aF-0.8479945572021877
aF-0.7630531743395758
aF0.2670781192532359
aF1.5336161227804592
aF0.5087105312683748
aF-0.3765994493671676
aF-0.938694407224341
aF-0.48174128478967343
aF-0.563257449073371
aF0.5895675721377609
aF0.64379795083114
aF-0.8211703363613396
aF0.2712349679188777
aF-0.5378418360877923
aF-0.2833224612421261
aF-0.9435064299233928
aF-2.0665483256499027
aF-2.1817128206364496
aF-0.9613914639250511
aF4.3542332171424105
aF-1.1712544102394273
aF-0.8690790279743452
aF-1.1360763378206034
aF-0.5635940904595309
aF1.733407399773837
aF0.593399415554769
aF0.5827605928090077
aF0.5710592070433078
aF0.654412874990018
aF-0.7580651990437512
aF-0.6264221697964121
aF0.3594269188946748
aF-0.42181095076024255
aF-0.25676239749897656
aF-0.6630000721177927
aF0.18008972608614382
aF0.02853507284985346
aF-0.2810603246645702
aF-1.6746381467621991
aF1.6215379423321605
aF-2.0061546629575107
aF-3.4359964701408146
aF-0.8848284589829998
aF-0.37445667656625437
aF-0.4748702696193565
aF0.7514585301175547
aF0.563793652245205
aF2.7499332884252525
aF-0.37353514712931957
aF2.799445636607848
aF0.2731998414100665
aF0.31889428990649393
aF0.47042662413539493
aF-0.6831056007420586
aF-0.7784507079097585
aF0.19756465339488294
aF0.010762849163941546
aF-0.897898676421583
aF-0.579075952876482
aF-1.511326999768037
aF1.1903555881041874
aF-0.4380492838155987
aF-2.2646445959275088
aF-0.7322751552809957
aF-0.7821062576056265
aF0.24510759298286855
aF3.2129328930964953
aF-0.35555766668383115
aF2.2848007061849067
aF-0.008380870743623037
aF1.9999826468978723
aF0.33358235588446683
aF-0.008975460434490268
aF-0.952331601243346
aF0.3312961351359378
aF-0.4940550858724033
aF0.16429486998409804
aF0.08852619585380972
aF-0.19112402201030743
aF-1.4208962493643005
aF-2.1258313245597424
aF1.046412064043133
aF0.4698787141720048
aF-1.6867749535456102
aF-1.8222983981868806
aF-1.6451866321890258
aF0.9738690460226216
aF3.8158070599402634
aF-0.030291574942290955
aF1.711581961165273
aF0.9332353149913983
aF1.8176706919956702
aF-0.5004621172652626
aF-0.11228743641342276
aF-0.8570080333113732
aF-0.24642167091086553
aF-0.7856409624378857
aF0.07378874518572132
aF0.6664348970945411
aF-0.378318961335127
aF-1.116413864589231
aF-1.7261979559934908
aF0.9355071715836396
aF3.889447414897405
aF1.7879820427780337
aF-0.05117657432752293
aF-0.6783122487709787
aF0.1044839580795851
aF-0.5979136799355168
aF-0.3651794921664915
aF-0.43436288165596326
aF0.3588535467752032
aF-1.1661700892700817
aF0.8359852477952607
aF0.9485488786370697
aF-0.07832776316754075
aF0.542927301053207
aF0.577255077532046
aF-0.5623443618256614
aF-0.5944413188871223
aF0.10107323446272876
aF-1.8038122009559814
aF-1.2545886055830942
aF0.1103510470657098
aF2.5839579820305727
aF1.1936749259828145
aF-0.17760549207640564
aF-0.4655018439364358
aF0.37332370093882217
aF-2.574600272861351
aF-0.34555896466283276
aF-0.06165396884716091
aF0.6316651427868665
aF0.34386614540319904
aF-0.5271465983741663
aF0.780362348315965
aF-0.938912338099982
aF0.04287992975722732
aF0.5691419627972574
aF-0.13996588309253788
aF-0.9892671060923655
aF-0.28475149655002174
asS'_inputs'
p4
I608
sb.