(ilinear_regression
LinearRegression
p0
(dp1
S'_weights'
p2
(lp3
F-12.44746475046505
aF2.314641065272509
aF7.701728050148888
aF2.5967079676775784
aF1.3443776570190968
aF7.831755025943974
aF2.160174619828515
aF3.0031446593063915
aF9.722277927324086
aF0.9548159554914962
aF1.1644109125576587
aF6.064699051023803
aF3.9643990114859724
aF3.217651996967908
aF5.254790539131521
aF4.571141059263354
aF2.1289090646732687
aF9.251975864396066
aF1.4828177934436433
aF-0.3360994390000246
aF8.343350003697772
aF2.7308533649235613
aF1.5116948285751206
aF11.674337665954456
aF-0.485996251056039
aF0.4778474910796791
aF7.491929295649215
aF3.1313532547765957
aF2.2905379251867197
aF6.60670221437759
aF2.828155939687996
aF-0.28655069159248864
aF7.912140294743282
aF4.632642796925859
aF-0.42660453437620305
aF9.797708935849531
aF2.8006424761148603
aF-3.933429610123502
aF16.730065559899206
aF-0.8832447943319486
aF1.7969190140448117
aF8.67656257946981
aF2.3320990385621148
aF2.8410679057117707
aF7.799062111374207
aF0.6545937995569293
aF3.601772404036059
aF8.83100931948392
aF-0.17747635297495984
aF2.666646032243171
aF9.35939903196935
aF0.721721727295337
aF2.3639909791244818
aF10.737498655630057
aF-0.568753519172042
aF2.318233508711391
aF8.464525152777648
aF0.4488641951070633
aF3.6269588990818926
aF7.83032492292051
aF2.754674060226932
aF2.9615046983845006
aF5.402767167640608
aF2.6418298421664628
aF3.34590608442296
aF7.299898084103657
aF2.551049097431297
aF4.643455880440497
aF8.80730510739287
aF-0.5736259925484531
aF2.599262409938098
aF6.612833830098313
aF4.424996582578608
aF3.0867770180130103
aF5.098110780654806
aF3.4387819758116103
aF-4.585647923791153
aF2.7413700020214655
aF1.5825398422083308
aF4.567793264158533
aF3.7539824579796095
aF3.3470794375995063
aF3.135131293727408
aF2.5440361235793523
aF4.5816258837110775
aF0.1796684449753791
aF-3.666923759793701
aF2.5858260274713873
aF-0.35122272185604547
aF1.7188652544662466
aF0.70601870756973
aF-0.8636046060595699
aF-0.87709605745353
aF1.4207842695632384
aF-0.8570444464029259
aF1.4752174258231125
aF0.8828104051325805
aF0.8492784604697832
aF0.2877658186630032
aF-0.18407501868540876
aF-0.45571440535410734
aF-0.17205844378870427
aF0.8598986999742186
aF-0.6555788868408847
aF1.9857181720277568
aF5.668803808019168
aF-0.37799163865555024
aF-1.7117882665980755
aF1.5734169738104173
aF-0.5118981333652215
aF1.5471591480675186
aF-0.05166754970123777
aF2.5116496056352218
aF-0.9704875303974985
aF0.7479115638112726
aF0.2964319541199416
aF-0.2201814192782304
aF-0.7120279888764853
aF-0.8877841147755758
aF-0.9745350155909551
aF-0.14916992938570606
aF-0.8072554551041478
aF-0.7665148212848354
aF0.25117177944047797
aF-0.05358839865397802
aF1.3260332154097698
aF5.974794259124402
aF-0.28755279134677764
aF0.9831197278728045
aF0.4592199585380506
aF-0.5300532772767723
aF0.6600786397424915
aF0.3862964490185574
aF3.010318875026314
aF0.6504187211812853
aF0.7408204433934729
aF0.454728752265275
aF2.151418098411244
aF0.08558755738812551
aF-0.8487153392222948
aF0.6073540241402191
aF0.07082288052844299
aF0.8082460607794495
aF-0.8267192657941367
aF0.18420564825174401
aF-0.47078922686535885
aF0.9339879035180253
aF3.8966416131007104
aF0.48128427854535666
aF4.368750368153804
aF1.6627280765822723
aF0.5141476611881561
aF0.9340189421328983
aF0.361647859074278
aF0.5703630411566366
aF-0.5169940958734567
aF0.4262154357120093
aF0.0156716026006265
aF-0.15386839440750005
aF0.8042071022627479
aF0.19625508262677016
aF0.3553426929305612
aF0.5748660269822514
aF-0.7294949692296702
aF-0.5352463778368723
aF-0.43133957763787834
aF0.534870772362783
aF1.1666803789831601
aF2.2517030662209487
aF1.3329714980270337
aF4.917758743587239
aF2.396720360687854
aF1.4522924460132294
aF1.3390751799567528
aF0.1744861936346509
aF-0.5706958334517589
aF-0.4637137916744203
aF-0.8812497561971361
aF0.609531696266421
aF-0.6941044082853395
aF0.1297731534933606
aF-0.8942558840415653
aF0.4418116681905693
aF0.6072959669885687
aF-0.5532337573988224
aF0.760802744763599
aF0.6697932938883784
aF0.033434585728279176
aF1.828723791165767
aF2.0381611598458544
aF-0.5020406821175901
aF-6.594187693482247
aF3.9788400273637134
aF-1.1297063915254713
aF0.7165467303365918
aF0.378995357084823
aF5.409784440300357
aF-0.180140934118304
aF3.421483333674245
aF0.07095848903361968
aF2.206051253098837
aF-0.8011028261738682
aF-0.1561645532453635
aF0.2347176669065063
aF-0.8750816518438562
aF0.4369805509018505
aF-0.9899273670270567
aF-0.21376291224032573
aF-0.36573132322881685
aF2.2872470032349463
aF4.5422318939945425
aF-0.8816621606590576
aF-5.088412715566946
aF5.475193362334582
aF0.528973551991872
aF3.3825248604127576
aF-0.23582404513140354
aF2.4311043457676487
aF-0.7821402470905372
aF0.09747633412986981
aF0.6650113954469152
aF-1.0638580931466644
aF-0.39925779610254186
aF-0.1656452257752723
aF-0.927021085860742
aF-0.9014006048298342
aF0.03351048005833346
aF-0.30109338818792253
aF-0.1806455659976125
aF0.9380310961241625
aF2.8375635338418492
aF11.373945939025528
aF-1.1701834421529218
aF-1.5058950685413095
aF-1.514366099465034
aF0.027767858574775164
aF2.0123404801845677
aF0.13604518216117456
aF0.8886505488810196
aF0.13671331892832228
aF0.5047118025507578
aF0.9021881286618059
aF0.9068492833383821
aF-0.42739901780171974
aF-0.29792526871110625
aF-0.9469254923118915
aF0.18422416029622202
aF0.28498895738517005
aF-0.5842400597253294
aF0.4492623502744204
aF-0.03306605922438011
aF0.6009174751732906
aF2.5608613481667684
aF0.5010276562966023
aF8.234591777421947
aF1.3249357395531316
aF1.5083047832163052
aF3.100915949661172
aF-0.2372297980886433
aF1.0500553610882197
aF0.7582341231226484
aF-1.4090135113962015
aF-0.9180426695078385
aF-1.2004983948094594
aF-0.38765130103379564
aF-0.2562726612190833
aF-0.02939054932841234
aF-0.06485230755105409
aF-0.8918336080720857
aF-0.48097819656988383
aF-0.00742352343173347
aF-0.4567175498705762
aF0.8337754841104527
aF2.7825727741227047
aF0.7499168757293899
aF6.95836970891619
aF1.0277209552644038
aF0.8940543355769602
aF1.2211055305333478
aF0.6548343347339793
aF-0.7348225130445324
aF-0.2753683853258111
aF-0.8672854842155043
aF-0.2418966479440825
aF-0.5324847228933828
aF-0.16316830900934787
aF0.3636465701769176
aF0.7841558172844676
aF0.16271685580239348
aF-0.4466326422916991
aF0.08169904627471114
aF-0.5693848778941606
aF0.4884800539535268
aF4.109893820149454
aF0.6450381451493022
aF4.623682278334314
aF-5.248272797713422
aF6.924790729459881
aF1.1104411130354688
aF3.9131525230842272
aF0.7508262651759607
aF-0.9045398708047484
aF0.9690972774709534
aF-1.7741560551751854
aF0.9872555551169566
aF-0.7101312307468126
aF0.03132240338685022
aF0.4066762486400277
aF0.2575241798254846
aF0.11893516388170355
aF0.6244637353067308
aF0.622114511003891
aF-0.23437507706951788
aF0.027056081219775763
aF4.791298394788496
aF1.1039240801934664
aF4.1927518638932115
aF-1.997001832760687
aF10.043420390828693
aF2.568201187734462
aF4.233235471913488
aF0.1413025027924497
aF-5.1739386187882745
aF-0.4980976120604055
aF-2.819170110364528
aF0.867116041761655
aF-1.3527665879837532
aF-0.2821285724968503
aF-0.12102016232860868
aF-0.5085109685069507
aF-0.5336620679731499
aF-0.9087851009186232
aF0.8973406302471985
aF-0.3294864137932867
aF0.864768872657816
aF26.011443424998873
aF-2.193760030405095
aF-2.2203986709595642
aF-3.113166201143383
aF-3.9516404705678263
aF-1.5441319622198892
aF0.01928833536242465
aF-0.07855946583253193
aF0.49493954890496217
aF-0.42494103138774353
aF-0.10918968735569146
aF0.3758440925518267
aF-0.3778121741789069
aF-0.8728491719680411
aF-0.053282903345462485
aF0.8286097693626457
aF0.9582571621958862
aF0.09841020720444815
aF-0.2644360756591444
aF0.8408759929877467
aF0.13522300362081419
aF1.264309982009088
aF0.0043704463880837804
aF2.0158259054463774
aF8.557599278730908
aF0.5147883224368577
aF0.18991604173907767
aF0.0931348402296718
aF0.34504136945620223
aF2.2726764605213385
aF-0.03742885725240108
aF-0.3967545866882118
aF0.010252525148795266
aF-2.4659657227389618
aF0.6616118301660967
aF-0.7914938414214161
aF-0.9469535691862458
aF-0.22933050295615565
aF0.26063704273086463
aF-0.28975365307388357
aF0.07993899219416534
aF0.8957071965824035
aF0.7730813345924078
aF-0.6150168269597399
aF-0.042540892083861234
aF6.709306476018284
aF0.16273855175200155
aF-0.766339237585445
aF-0.6930297537847209
aF-0.45586120164240085
aF4.207507404142115
aF-0.052827424213409024
aF0.450144897823336
aF0.24939867289479234
aF0.6220531610932127
aF0.8651783330708316
aF0.3742106426638623
aF-0.5621774760515585
aF-0.808917224285044
aF-0.1211830365334503
aF-0.2035695046584447
aF-0.09980946371884403
aF0.0366136609558938
aF2.2379057044119643
aF-1.8479808413827883
aF5.6143965083994045
aF-6.295148529605575
aF0.21712976375316403
aF-0.813023170412766
aF3.4241578026237183
aF-0.8849499575690829
aF2.4440704617058095
aF-0.7418967723788366
aF3.3034145852986336
aF-0.30107213886419837
aF3.035953634787465
aF-0.37459337167383344
aF-0.34023200757511707
aF-0.04029002071427312
aF-0.8185600494446366
aF-0.06924203796424311
aF-0.6128869507405423
aF0.8160551124287843
aF-0.1848790058108829
aF2.8254291098270845
aF-2.746969643453829
aF6.5591621878260735
aF-2.5801210703374333
aF0.21275743791538643
aF-0.7194786121283874
aF2.007279829683159
aF-0.32367930322632343
aF1.5298171737655315
aF0.3215103674755584
aF2.409457925429771
aF-0.8738841925488474
aF2.396513458271093
aF-0.07461180272686296
aF0.8240980506186273
aF0.6902532333844424
aF-0.874255989507623
aF0.18059379320851687
aF0.7249036594654434
aF0.009541807806631386
aF-0.8241459041062866
aF3.9530905034692188
aF-1.6071268107936738
aF8.970986978353157
aF0.8366893367749489
aF-0.64263239610675
aF-0.9750015521319311
aF-0.7060900271487128
aF0.4934658922367039
aF-1.168883930869083
aF-0.9480226879717846
aF1.4610073721090122
aF-0.8961036793816666
aF0.9019518658855299
aF0.28420591078692015
aF0.9426254705910944
aF0.7975023288256002
aF-0.13345969498369592
aF-0.6191203665940193
aF0.14242927187681031
aF-0.6781659419508883
aF-0.0438778813746763
aF1.462855095831015
aF-0.10300608812937037
aF2.2054104796144633
aF6.625292554537258
aF0.7928566118989419
aF-0.7564312039634926
aF-1.0585805829406632
aF0.2670781192532359
aF3.2138578387762773
aF0.5087105312683748
aF-0.31913792182396195
aF-0.938694407224341
aF-0.8244401892959983
aF-0.563257449073371
aF0.5895675721377609
aF0.64379795083114
aF-0.8211703363613396
aF0.2712349679188777
aF-0.5378418360877923
aF-0.2833224612421261
aF-0.9435064299233928
aF1.4003486294118312
aF-0.5557248361631443
aF1.1654073434780663
aF5.982894144716539
aF0.04355968923742892
aF0.007818659562496652
aF-0.7690179456702266
aF-0.5635940904595309
aF2.211692278397239
aF0.593399415554769
aF0.22454946249187482
aF0.5710592070433078
aF1.4410250753683038
aF-0.7580651990437512
aF-0.6264221697964121
aF0.3594269188946748
aF-0.42181095076024255
aF-0.25676239749897656
aF-0.6630000721177927
aF0.18008972608614382
aF0.02853507284985346
aF2.5142618788301707
aF-0.10691439037711993
aF3.2751459044883737
aF-2.191408973423773
aF-2.1668248607975764
aF-0.5425529640205431
aF3.0186321436007613
aF-0.4748702696193565
aF1.5588409634042022
aF0.563793652245205
aF2.9571267857214254
aF-0.37353514712931957
aF3.1627349723433875
aF0.2731998414100665
aF0.31889428990649393
aF0.47042662413539493
aF-0.6831056007420586
aF-0.7784507079097585
aF0.19756465339488294
aF0.010762849163941546
aF-0.897898676421583
aF2.874498323870921
aF-1.0339783281573611
aF3.8399550476473885
aF0.6095438503372556
aF-0.9664766055137153
aF-0.7005430525891936
aF1.5714753869861837
aF0.24510759298286855
aF4.538250361882356
aF-0.35555766668383115
aF2.494084792527914
aF-0.008380870743623037
aF1.3675846143780803
aF0.33358235588446683
aF-0.008975460434490268
aF-0.952331601243346
aF0.3312961351359378
aF-0.4940550858724033
aF0.16429486998409804
aF0.08852619585380972
aF-0.19112402201030743
aF2.698853102353236
aF-1.156058865720471
aF3.5817602464883334
aF1.5554111185224855
aF-1.493383369892313
aF-1.5784673493963064
aF-1.5902550500039618
aF0.9738690460226216
aF5.307813006062461
aF-0.030291574942290955
aF2.4851863836955954
aF0.9332353149913983
aF2.5633045137223385
aF-0.5004621172652626
aF-0.11228743641342276
aF-0.8570080333113732
aF-0.24642167091086553
aF-0.7856409624378857
aF0.07378874518572132
aF0.6664348970945411
aF-0.378318961335127
aF2.5241825358344876
aF0.10006142252272526
aF2.97096602154976
aF5.974356394571661
aF3.15745417649881
aF0.4198480116037771
aF-0.11926927371966434
aF0.1044839580795851
aF1.1338059210716547
aF-0.3651794921664915
aF-0.9640030163597126
aF0.3588535467752032
aF-2.141212056496646
aF0.8359852477952607
aF0.9485488786370697
aF-0.07832776316754075
aF0.542927301053207
aF0.577255077532046
aF-0.5623443618256614
aF-0.5944413188871223
aF0.10107323446272876
aF2.3709560203628084
aF0.8025683110337696
aF1.6393624643830371
aF3.974662316974567
aF1.599412822892343
aF0.7880834568781184
aF-0.16850604139557157
aF0.37332370093882217
aF-0.9447979576444573
aF-0.34555896466283276
aF-0.5886529538738838
aF0.6316651427868665
aF0.6348000789721383
aF-0.5271465983741663
aF0.780362348315965
aF-0.938912338099982
aF0.04287992975722732
aF0.5691419627972574
aF-0.13996588309253788
aF-0.9892671060923655
aF-0.28475149655002174
asS'_inputs'
p4
I608
sb.