(ilinear_regression
LinearRegression
p0
(dp1
S'_weights'
p2
(lp3
F-10.742249679177636
aF2.103412168817266
aF7.352160871339243
aF1.4522889716554361
aF1.6668963517755424
aF6.495649061980666
aF1.4685468177481733
aF3.487143182558177
aF8.026618035219396
aF0.46126225305727747
aF1.504338342934379
aF4.978841173417552
aF3.005114387428392
aF2.8071528352389663
aF4.342508592334058
aF4.188707096502745
aF2.0512754337927035
aF8.872279562871178
aF0.23493265456174026
aF-0.4688392873420301
aF7.884168945641867
aF1.617559200034388
aF1.6456466501144604
aF9.78917923335359
aF-0.440004711281571
aF0.8950480367780335
aF5.520942275879514
aF2.979924657560837
aF2.3964725873485753
aF5.410221751375208
aF2.2134866692414072
aF-1.2952090161212007
aF8.077813851636694
aF3.7704124932739878
aF-0.816403996689168
aF9.344564751178611
aF1.938371051811518
aF-7.185539738086725
aF18.276960616575657
aF-0.8832447943319486
aF1.109981967485717
aF7.3295466399403075
aF2.6608369533633742
aF2.4664740605393147
aF6.379226616944286
aF0.7438080678721992
aF1.4709260129752817
aF9.360625358379393
aF-0.28146107209702426
aF1.5100610977918414
aF9.47101779954661
aF0.06147282288220219
aF1.7667416514743053
aF10.080907073788158
aF-1.0201276809673474
aF2.1708185694659727
aF7.01439760041346
aF0.3411916154293548
aF3.293838095877036
aF6.81533681246484
aF2.3975679026003496
aF0.535248368237823
aF6.191058485614195
aF2.574579783052436
aF2.1938655655235975
aF7.1781107151974926
aF2.1196619139496957
aF3.3416600994307935
aF9.265027319597545
aF-1.4347674950304998
aF2.0136915447539203
aF5.010315133457959
aF4.907871073116208
aF2.659377476078743
aF4.382983893633563
aF2.8760933334799104
aF-7.186950499428644
aF1.9705213322151185
aF1.1929392558802683
aF4.902036231598012
aF2.8783377953842706
aF5.018599337309276
aF4.0615498496582125
aF1.37717913986171
aF4.869735423270941
aF-1.5974658173417204
aF-2.69056326634924
aF2.3226234564980874
aF0.2342331471936298
aF1.0479443304685874
aF0.70601870756973
aF-1.2890729803302454
aF-0.87709605745353
aF1.652350610926199
aF-0.8570444464029259
aF1.992093226395369
aF0.8828104051325805
aF0.8492784604697832
aF0.2877658186630032
aF-0.18407501868540876
aF-0.45571440535410734
aF-0.17205844378870427
aF0.8598986999742186
aF-0.6555788868408847
aF1.5346521644290536
aF5.8432967558278595
aF-2.520483450112187
aF-1.8176086018243407
aF1.845391720224489
aF0.35322123630364427
aF0.7729335472614257
aF-0.05166754970123777
aF2.4686241583486552
aF-0.9704875303974985
aF1.0545212669656847
aF0.2964319541199416
aF-0.0269640552371143
aF-0.7120279888764853
aF-0.8877841147755758
aF-0.9745350155909551
aF-0.14916992938570606
aF-0.8072554551041478
aF-0.7665148212848354
aF0.25117177944047797
aF-0.05358839865397802
aF0.9170772207077601
aF6.319103081902737
aF-1.739990704807144
aF0.03289168924333341
aF-0.0333075957727037
aF-0.10766236515032505
aF0.6201392038081832
aF0.3862964490185574
aF3.215125512459166
aF0.6504187211812853
aF0.9849824879791239
aF0.454728752265275
aF2.5746235472378554
aF0.08558755738812551
aF-0.8487153392222948
aF0.6073540241402191
aF0.07082288052844299
aF0.8082460607794495
aF-0.8267192657941367
aF0.18420564825174401
aF-0.47078922686535885
aF0.4385658680866094
aF3.37850490112078
aF-0.9309975270087915
aF4.974307961165417
aF1.734972829452525
aF0.7982634736450978
aF0.726829816608608
aF0.361647859074278
aF-0.8299489488197702
aF-0.5169940958734567
aF0.9659656754939105
aF0.0156716026006265
aF0.6725898046508767
aF0.8042071022627479
aF0.19625508262677016
aF0.3553426929305612
aF0.5748660269822514
aF-0.7294949692296702
aF-0.5352463778368723
aF-0.43133957763787834
aF0.534870772362783
aF0.538083072941142
aF2.3440710069253177
aF-0.3738765187697056
aF4.954218976029144
aF1.5375264368822121
aF1.2967356600573496
aF1.306411122288168
aF0.1744861936346509
aF-1.1052359348238694
aF-0.4637137916744203
aF0.23286531608842478
aF0.609531696266421
aF0.2751374666366718
aF0.1297731534933606
aF-0.8942558840415653
aF0.4418116681905693
aF0.6072959669885687
aF-0.5532337573988224
aF0.760802744763599
aF0.6697932938883784
aF0.033434585728279176
aF0.8955809276540877
aF2.7099388597303005
aF-1.009427743101409
aF-6.579613801805244
aF3.115554111195824
aF-0.9409734806329442
aF0.38624655282068615
aF0.378995357084823
aF4.982243238955074
aF-0.180140934118304
aF3.442717384861126
aF0.07095848903361968
aF2.666174847695433
aF-0.8011028261738682
aF-0.1561645532453635
aF0.2347176669065063
aF-0.8750816518438562
aF0.4369805509018505
aF-0.9899273670270567
aF-0.21376291224032573
aF-0.36573132322881685
aF1.5428345158658021
aF4.87869790538831
aF-1.4997170109730595
aF-4.268354336795831
aF4.6009292978358225
aF0.9906770631777599
aF2.094065155896708
aF-0.23582404513140354
aF2.212006322333066
aF-0.7821402470905372
aF0.20434953677394901
aF0.6650113954469152
aF-0.7498851382961224
aF-0.39925779610254186
aF-0.1656452257752723
aF-0.927021085860742
aF-0.9014006048298342
aF0.03351048005833346
aF-0.30109338818792253
aF-0.1806455659976125
aF0.9380310961241625
aF1.7306606923190464
aF10.825508523368779
aF-1.388585368433811
aF-2.387454840284316
aF-1.3713225884754061
aF0.49593063616493516
aF1.8288424451512502
aF0.13604518216117456
aF0.884111325005412
aF0.13671331892832228
aF0.6026510958147789
aF0.9021881286618059
aF1.43582784431982
aF-0.42739901780171974
aF-0.29792526871110625
aF-0.9469254923118915
aF0.18422416029622202
aF0.28498895738517005
aF-0.5842400597253294
aF0.4492623502744204
aF-0.03306605922438011
aF0.9653049352927514
aF3.7371437846626496
aF0.1542324267411229
aF6.897508670720706
aF0.8912242864135119
aF1.4329798286884055
aF1.5409473784062981
aF-0.2372297980886433
aF0.3110144076426691
aF0.7582341231226484
aF-0.8693218531117677
aF-0.9180426695078385
aF-0.49415075237163636
aF-0.38765130103379564
aF-0.2562726612190833
aF-0.02939054932841234
aF-0.06485230755105409
aF-0.8918336080720857
aF-0.48097819656988383
aF-0.00742352343173347
aF-0.4567175498705762
aF0.258062400776468
aF2.594865946429602
aF-0.26985282816795214
aF7.193166446523704
aF-0.22954051699588277
aF1.1100268526932981
aF0.4039691405339393
aF0.6548343347339793
aF-0.6672852826432378
aF-0.2753683853258111
aF0.13433682512813463
aF-0.2418966479440825
aF0.09995888853476449
aF-0.16316830900934787
aF0.3636465701769176
aF0.7841558172844676
aF0.16271685580239348
aF-0.4466326422916991
aF0.08169904627471114
aF-0.5693848778941606
aF0.4884800539535268
aF3.3204804640740715
aF0.025951032037209516
aF4.019917994900341
aF-4.918376742530668
aF6.414427654123725
aF1.50038261495174
aF3.9870930984966924
aF0.7508262651759607
aF-1.043318107210462
aF0.9690972774709534
aF-1.8371738111248803
aF0.9872555551169566
aF-0.48470061423231675
aF0.03132240338685022
aF0.4066762486400277
aF0.2575241798254846
aF0.11893516388170355
aF0.6244637353067308
aF0.622114511003891
aF-0.23437507706951788
aF0.027056081219775763
aF4.212056860803671
aF0.661203789381828
aF3.67213293777626
aF-2.2976813366939974
aF8.944428712252472
aF3.0497169956097547
aF5.009213723726794
aF0.1413025027924497
aF-5.38793978883995
aF-0.4980976120604055
aF-2.896321241317309
aF0.867116041761655
aF-1.0820714845321444
aF-0.2821285724968503
aF-0.12102016232860868
aF-0.5085109685069507
aF-0.5336620679731499
aF-0.9087851009186232
aF0.8973406302471985
aF-0.3294864137932867
aF0.864768872657816
aF20.926096316946122
aF-1.9317876370059688
aF-2.4667842087329475
aF-1.3916604104209145
aF-4.834056670231098
aF-0.7016170150103646
aF1.7022289782334383
aF-0.07855946583253193
aF0.49493954890496217
aF-0.42494103138774353
aF-0.10918968735569146
aF0.3758440925518267
aF-0.3778121741789069
aF-0.8728491719680411
aF-0.053282903345462485
aF0.8286097693626457
aF0.9582571621958862
aF0.09841020720444815
aF-0.2644360756591444
aF0.8408759929877467
aF0.13522300362081419
aF0.6313981716865585
aF0.24932074776635937
aF1.047413155006791
aF7.395864936193018
aF0.4078568732654663
aF0.537063698156734
aF0.809293946844265
aF0.34504136945620223
aF1.3862869483449176
aF-0.03742885725240108
aF0.001934900077414422
aF0.010252525148795266
aF-2.121747480554511
aF0.6616118301660967
aF-0.7914938414214161
aF-0.9469535691862458
aF-0.22933050295615565
aF0.26063704273086463
aF-0.28975365307388357
aF0.07993899219416534
aF0.8957071965824035
aF-0.31610805004069253
aF0.03782022671255389
aF-0.509750784786352
aF5.601608077771132
aF-0.440589340788386
aF-0.8079644763439846
aF-0.584618026628753
aF-0.45586120164240085
aF3.789124185310138
aF-0.052827424213409024
aF1.2738907021547725
aF0.24939867289479234
aF1.0592775303600794
aF0.8651783330708316
aF0.3742106426638623
aF-0.5621774760515585
aF-0.808917224285044
aF-0.1211830365334503
aF-0.2035695046584447
aF-0.09980946371884403
aF0.0366136609558938
aF1.314590263363118
aF-2.45545202342033
aF5.1099631359369875
aF-5.376720820511972
aF0.9158411525658948
aF-0.43952081666931836
aF1.8055168301821578
aF-0.8849499575690829
aF2.241402655314475
aF-0.7418967723788366
aF3.222497062734491
aF-0.30107213886419837
aF3.277543408796418
aF-0.37459337167383344
aF-0.34023200757511707
aF-0.04029002071427312
aF-0.8185600494446366
aF-0.06924203796424311
aF-0.6128869507405423
aF0.8160551124287843
aF-0.1848790058108829
aF2.0255421574271057
aF-2.8195774294630533
aF5.4378223484930235
aF-2.3393030281393594
aF0.03194420286145904
aF-0.3251245040497955
aF2.050227065975357
aF-0.32367930322632343
aF1.378921070643471
aF0.3215103674755584
aF2.310880314258293
aF-0.8738841925488474
aF2.437300527504899
aF-0.07461180272686296
aF0.8240980506186273
aF0.6902532333844424
aF-0.874255989507623
aF0.18059379320851687
aF0.7249036594654434
aF0.009541807806631386
aF-0.8241459041062866
aF2.7883916362349064
aF-3.090874557261225
aF7.2521161572347
aF2.2279575030989913
aF-1.2832051283706407
aF0.08935715591062525
aF0.6137938663761087
aF0.4934658922367039
aF-1.1433724671994578
aF-0.9480226879717846
aF1.2697525414262039
aF-0.8961036793816666
aF0.5948595608043363
aF0.28420591078692015
aF0.9426254705910944
aF0.7975023288256002
aF-0.13345969498369592
aF-0.6191203665940193
aF0.14242927187681031
aF-0.6781659419508883
aF-0.0438778813746763
aF1.3836918342511029
aF-1.644358261849706
aF1.0413802877132268
aF7.720687614203402
aF-0.2857342184102457
aF0.07060202911764647
aF-0.2664956326407192
aF0.2670781192532359
aF2.4083599308655272
aF0.5087105312683748
aF-0.10735780784017412
aF-0.938694407224341
aF-0.7873142521927392
aF-0.563257449073371
aF0.5895675721377609
aF0.64379795083114
aF-0.8211703363613396
aF0.2712349679188777
aF-0.5378418360877923
aF-0.2833224612421261
aF-0.9435064299233928
aF0.42778808697698695
aF-0.8826353043015535
aF-0.31581966070807616
aF6.404228137583637
aF0.10175888808864994
aF-0.0028666447527499646
aF-0.6117282641161657
aF-0.5635940904595309
aF1.9216674935913804
aF0.593399415554769
aF0.9011360545529035
aF0.5710592070433078
aF1.5038086426281776
aF-0.7580651990437512
aF-0.6264221697964121
aF0.3594269188946748
aF-0.42181095076024255
aF-0.25676239749897656
aF-0.6630000721177927
aF0.18008972608614382
aF0.02853507284985346
aF0.7167141449882432
aF-1.345720432289722
aF5.431668398456246
aF-1.9124080264987229
aF-2.403679859492917
aF-0.28531899160663005
aF1.8691597747152033
aF-0.4748702696193565
aF0.9512481792831863
aF0.563793652245205
aF3.1962629760695713
aF-0.37353514712931957
aF3.555900224857804
aF0.2731998414100665
aF0.31889428990649393
aF0.47042662413539493
aF-0.6831056007420586
aF-0.7784507079097585
aF0.19756465339488294
aF0.010762849163941546
aF-0.897898676421583
aF1.5146347828677311
aF-1.2799923401578284
aF3.6612474703624645
aF1.3804564456475832
aF-1.8454481030659855
aF-0.35365918854246475
aF1.0810859420307715
aF0.24510759298286855
aF4.113689479808439
aF-0.35555766668383115
aF2.8053597544896367
aF-0.008380870743623037
aF1.8118050766423446
aF0.33358235588446683
aF-0.008975460434490268
aF-0.952331601243346
aF0.3312961351359378
aF-0.4940550858724033
aF0.16429486998409804
aF0.08852619585380972
aF-0.19112402201030743
aF0.27354643050258853
aF-2.0243692243316675
aF4.1724254269764085
aF2.129620669255633
aF-1.8934596753533943
aF-1.3415272901260784
aF-1.4207911083403344
aF0.9738690460226216
aF5.245394420280692
aF-0.030291574942290955
aF2.71233448105042
aF0.9332353149913983
aF2.815774534629968
aF-0.5004621172652626
aF-0.11228743641342276
aF-0.8570080333113732
aF-0.24642167091086553
aF-0.7856409624378857
aF0.07378874518572132
aF0.6664348970945411
aF-0.378318961335127
aF1.4615063625984452
aF0.23695391280783468
aF2.8390737970545636
aF5.404121402625366
aF2.7438545138853137
aF0.6291479836695294
aF-0.9254528647326512
aF0.1044839580795851
aF0.9351119204490377
aF-0.3651794921664915
aF-0.4165874241649388
aF0.3588535467752032
aF-1.5567545384028008
aF0.8359852477952607
aF0.9485488786370697
aF-0.07832776316754075
aF0.542927301053207
aF0.577255077532046
aF-0.5623443618256614
aF-0.5944413188871223
aF0.10107323446272876
aF0.4682535215569611
aF-0.6275119884307906
aF1.6415682601077592
aF4.161075613815956
aF1.7761426657806205
aF0.8208882182911068
aF-0.3433895290553676
aF0.37332370093882217
aF-1.0052898231038434
aF-0.34555896466283276
aF0.4198602202787149
aF0.6316651427868665
aF1.0910762880545457
aF-0.5271465983741663
aF0.780362348315965
aF-0.938912338099982
aF0.04287992975722732
aF0.5691419627972574
aF-0.13996588309253788
aF-0.9892671060923655
aF-0.28475149655002174
asS'_inputs'
p4
I608
sb.