(ilinear_regression
LinearRegression
p0
(dp1
S'_weights'
p2
(lp3
F-12.705252159838315
aF2.6847900737474175
aF7.0091549211780215
aF3.176919497548588
aF1.3983898136747412
aF7.17461945018905
aF3.0210854483029426
aF3.3167354028297016
aF9.620128631121407
aF1.0011619175440063
aF1.1668536891890113
aF6.4408815428888
aF3.8435611523651994
aF2.744176127253468
aF6.266820142872706
aF4.2903747346109515
aF2.87414170765277
aF8.482397849476751
aF1.764950574757154
aF0.5081952402738696
aF8.201970023482184
aF2.2857260752392987
aF1.8907764373262448
aF11.116056540260713
aF-0.049009324739671
aF0.5493388289039709
aF7.492248255869161
aF3.3173303661066456
aF1.9695281740461847
aF6.664178294381839
aF3.349477020198917
aF1.1293331914865081
aF6.8493217419379055
aF4.537364876026417
aF0.6271519401977537
aF8.8218533171844
aF2.9805290295797424
aF-3.730288705364893
aF16.784712064517038
aF-0.8832447943319486
aF1.9565538899240018
aF9.16586397365629
aF1.940950177870398
aF2.694597928137081
aF7.817407631196056
aF1.0405056666846364
aF3.1831795978751045
aF7.96147774549294
aF1.3684354365511635
aF2.905251691064734
aF8.917915183444784
aF1.1823873263728053
aF2.8587233002769166
aF10.083832871742308
aF-0.15203264706279593
aF2.5574075313418985
aF8.124456696721815
aF0.807546037907463
aF3.822363855731186
aF7.58300167631802
aF3.0643797595547793
aF3.214590093535205
aF4.960690069051613
aF3.0886089549797395
aF3.96633151516366
aF6.1402574163164845
aF3.348051743852522
aF5.11480908550944
aF8.366848721979157
aF-0.34673540282941845
aF2.9075679173811086
aF5.839392718450942
aF5.147919596157748
aF2.915112642876338
aF5.352022360292945
aF3.6143221806849235
aF-4.820017355602425
aF3.9393839264369253
aF1.047100367408949
aF3.8617538848789525
aF3.4448363340632504
aF3.4981791048078374
aF3.82879952128576
aF2.200552815148915
aF3.506784267742229
aF-0.23463835235706246
aF-3.281121768073335
aF1.6785587035606235
aF-0.1619084950459672
aF2.284647449366936
aF0.70601870756973
aF-0.2065150948255844
aF-0.87709605745353
aF2.045042440295999
aF-0.8570444464029259
aF2.050657785442562
aF0.8828104051325805
aF0.8492784604697832
aF0.2877658186630032
aF-0.18407501868540876
aF-0.45571440535410734
aF-0.17205844378870427
aF0.8598986999742186
aF-0.6555788868408847
aF1.9711886655602775
aF5.208685060705303
aF-0.7355036260161445
aF-0.6182113101055544
aF1.58912942466519
aF0.14674610065382554
aF1.1826851037950117
aF-0.05166754970123777
aF2.1972256708785327
aF-0.9704875303974985
aF0.7062834944118083
aF0.2964319541199416
aF-0.17764136169924216
aF-0.7120279888764853
aF-0.8877841147755758
aF-0.9745350155909551
aF-0.14916992938570606
aF-0.8072554551041478
aF-0.7665148212848354
aF0.25117177944047797
aF-0.05358839865397802
aF1.6407834220385833
aF5.843562778680906
aF-0.21013901041452865
aF0.7954300599749665
aF0.7547086577572081
aF-0.6004377959605433
aF0.9399963765110978
aF0.3862964490185574
aF3.266282132089077
aF0.6504187211812853
aF0.5838432821712548
aF0.454728752265275
aF1.7319546554218752
aF0.08558755738812551
aF-0.8487153392222948
aF0.6073540241402191
aF0.07082288052844299
aF0.8082460607794495
aF-0.8267192657941367
aF0.18420564825174401
aF-0.47078922686535885
aF1.0360278809087151
aF4.630969027938435
aF0.6188757979121702
aF2.4409150759152953
aF2.446977102921723
aF0.5940023648758566
aF1.442811354325157
aF0.361647859074278
aF0.6803596807757528
aF-0.5169940958734567
aF0.007226421665980531
aF0.0156716026006265
aF-0.006108372182000417
aF0.8042071022627479
aF0.19625508262677016
aF0.3553426929305612
aF0.5748660269822514
aF-0.7294949692296702
aF-0.5352463778368723
aF-0.43133957763787834
aF0.534870772362783
aF1.3195012099505141
aF3.9392509146919434
aF1.0717880752016988
aF2.074963995161936
aF1.8948459419894854
aF0.7703063560059003
aF1.3359838851070283
aF0.1744861936346509
aF0.17602825396609667
aF-0.4637137916744203
aF-0.4672411335073595
aF0.609531696266421
aF0.853511586349698
aF0.1297731534933606
aF-0.8942558840415653
aF0.4418116681905693
aF0.6072959669885687
aF-0.5532337573988224
aF0.760802744763599
aF0.6697932938883784
aF0.033434585728279176
aF1.5493752756220351
aF2.311878968383217
aF-0.31370126136232185
aF-5.332186735298651
aF3.2854263228179335
aF-0.4688702190339554
aF1.3399582713237213
aF0.378995357084823
aF3.674279681327753
aF-0.180140934118304
aF2.9343902545880423
aF0.07095848903361968
aF2.6508928196668884
aF-0.8011028261738682
aF-0.1561645532453635
aF0.2347176669065063
aF-0.8750816518438562
aF0.4369805509018505
aF-0.9899273670270567
aF-0.21376291224032573
aF-0.36573132322881685
aF1.7713378775023374
aF3.6624233230856156
aF-0.49209554549783197
aF-2.3963280547411934
aF5.7590849731248674
aF0.4453206582601096
aF2.087996147736191
aF-0.23582404513140354
aF1.9922758133430074
aF-0.7821402470905372
aF-0.17113223989114706
aF0.6650113954469152
aF-0.6902771610537792
aF-0.39925779610254186
aF-0.1656452257752723
aF-0.927021085860742
aF-0.9014006048298342
aF0.03351048005833346
aF-0.30109338818792253
aF-0.1806455659976125
aF0.9380310961241625
aF2.3993276374710435
aF9.946033575831752
aF-1.1807961101587583
aF-1.5680656091704304
aF-0.5218555289292881
aF0.12039933251107741
aF2.2108227550840684
aF0.13604518216117456
aF1.5102832977964915
aF0.13671331892832228
aF1.2067615067339243
aF0.9021881286618059
aF0.4962613884419435
aF-0.42739901780171974
aF-0.29792526871110625
aF-0.9469254923118915
aF0.18422416029622202
aF0.28498895738517005
aF-0.5842400597253294
aF0.4492623502744204
aF-0.03306605922438011
aF1.444772132638617
aF4.322136594054522
aF0.970494685368505
aF6.04987644312941
aF1.9221017513233702
aF0.7462584730053439
aF1.61170871421214
aF-0.2372297980886433
aF1.3042819630950353
aF0.7582341231226484
aF-0.8883152702922634
aF-0.9180426695078385
aF-0.9534298927883417
aF-0.38765130103379564
aF-0.2562726612190833
aF-0.02939054932841234
aF-0.06485230755105409
aF-0.8918336080720857
aF-0.48097819656988383
aF-0.00742352343173347
aF-0.4567175498705762
aF1.019828078674277
aF3.5148596526700855
aF0.25298551008884046
aF5.815870673818382
aF1.4044908628610973
aF0.557810027999254
aF1.4897783161907177
aF0.6548343347339793
aF-1.0699002201395749
aF-0.2753683853258111
aF-0.4791251200154464
aF-0.2418966479440825
aF0.08411257132712
aF-0.16316830900934787
aF0.3636465701769176
aF0.7841558172844676
aF0.16271685580239348
aF-0.4466326422916991
aF0.08169904627471114
aF-0.5693848778941606
aF0.4884800539535268
aF4.010770889483691
aF-0.940148476319678
aF3.756993138938884
aF-3.9066967084271718
aF6.258979898569701
aF1.282222428407299
aF3.7792278097315344
aF0.7508262651759607
aF-1.1274482745433927
aF0.9690972774709534
aF-0.5975722699900632
aF0.9872555551169566
aF0.4313576282973034
aF0.03132240338685022
aF0.4066762486400277
aF0.2575241798254846
aF0.11893516388170355
aF0.6244637353067308
aF0.622114511003891
aF-0.23437507706951788
aF0.027056081219775763
aF4.438480951670855
aF-0.023910076636149802
aF4.419963837127724
aF-2.980948685570857
aF9.04698548784938
aF2.933577530284875
aF5.211317355908577
aF0.1413025027924497
aF-3.966705694973233
aF-0.4980976120604055
aF-2.0948622020408822
aF0.867116041761655
aF-1.136156854790848
aF-0.2821285724968503
aF-0.12102016232860868
aF-0.5085109685069507
aF-0.5336620679731499
aF-0.9087851009186232
aF0.8973406302471985
aF-0.3294864137932867
aF0.864768872657816
aF26.54744542560353
aF-3.8051869985951665
aF-1.7323843017914586
aF-3.224895281713793
aF-4.000608639117883
aF-1.006489367986527
aF0.487540998040407
aF-0.07855946583253193
aF0.49493954890496217
aF-0.42494103138774353
aF-0.10918968735569146
aF0.3758440925518267
aF-0.3778121741789069
aF-0.8728491719680411
aF-0.053282903345462485
aF0.8286097693626457
aF0.9582571621958862
aF0.09841020720444815
aF-0.2644360756591444
aF0.8408759929877467
aF0.13522300362081419
aF1.5531335854775499
aF-1.32806903748538
aF2.106792052837723
aF8.296522418617103
aF-0.1109667181824774
aF-0.004421991367307029
aF1.1605778367166184
aF0.34504136945620223
aF3.050985700297179
aF-0.03742885725240108
aF-0.49555075295856726
aF0.010252525148795266
aF-1.9213147165035454
aF0.6616118301660967
aF-0.7914938414214161
aF-0.9469535691862458
aF-0.22933050295615565
aF0.26063704273086463
aF-0.28975365307388357
aF0.07993899219416534
aF0.8957071965824035
aF0.5898018768135683
aF-0.14928366460814546
aF0.3108569143314017
aF6.492748728513008
aF0.15227198839322648
aF-0.7220690712089903
aF-0.5091963519925438
aF-0.45586120164240085
aF4.031855334367219
aF-0.052827424213409024
aF0.7097509407032171
aF0.24939867289479234
aF0.15895582907049768
aF0.8651783330708316
aF0.3742106426638623
aF-0.5621774760515585
aF-0.808917224285044
aF-0.1211830365334503
aF-0.2035695046584447
aF-0.09980946371884403
aF0.0366136609558938
aF3.0448603748331107
aF-1.9503487025679074
aF5.327822603417572
aF-4.729234878573293
aF1.2126572191463356
aF-0.7567558700119877
aF2.4527981784707933
aF-0.8849499575690829
aF1.855583214847832
aF-0.7418967723788366
aF2.2598628692767098
aF-0.30107213886419837
aF2.8614183201149803
aF-0.37459337167383344
aF-0.34023200757511707
aF-0.04029002071427312
aF-0.8185600494446366
aF-0.06924203796424311
aF-0.6128869507405423
aF0.8160551124287843
aF-0.1848790058108829
aF2.652393211509736
aF-2.9393111226095487
aF5.894449225300363
aF-0.42990246148559946
aF0.9256278012755186
aF0.03280924369528601
aF2.3259670911446015
aF-0.32367930322632343
aF0.573364095952118
aF0.3215103674755584
aF1.4582412114022754
aF-0.8738841925488474
aF1.657996909988451
aF-0.07461180272686296
aF0.8240980506186273
aF0.6902532333844424
aF-0.874255989507623
aF0.18059379320851687
aF0.7249036594654434
aF0.009541807806631386
aF-0.8241459041062866
aF3.217312634859583
aF-3.7053469396268515
aF8.921811120539626
aF1.623011124561443
aF-1.0071764385641335
aF-0.6692411415165369
aF0.422044487455677
aF0.4934658922367039
aF-0.5250613148952135
aF-0.9480226879717846
aF1.7410071504092273
aF-0.8961036793816666
aF1.2634180656937959
aF0.28420591078692015
aF0.9426254705910944
aF0.7975023288256002
aF-0.13345969498369592
aF-0.6191203665940193
aF0.14242927187681031
aF-0.6781659419508883
aF-0.0438778813746763
aF1.07759973073479
aF-1.6547871320420386
aF2.6405996318213467
aF6.3180672675183605
aF0.5416401944429183
aF-0.3735781711495326
aF0.06914468042320104
aF0.2670781192532359
aF2.9989102927249935
aF0.5087105312683748
aF-0.2419971283576775
aF-0.938694407224341
aF0.1208646377627736
aF-0.563257449073371
aF0.5895675721377609
aF0.64379795083114
aF-0.8211703363613396
aF0.2712349679188777
aF-0.5378418360877923
aF-0.2833224612421261
aF-0.9435064299233928
aF0.9557396374868091
aF-0.8498671403587703
aF0.9550291819293681
aF6.72120308070038
aF0.30929348672058604
aF-0.5994178575141157
aF-0.5251386466681082
aF-0.5635940904595309
aF1.9665976191902501
aF0.593399415554769
aF0.6958979304438834
aF0.5710592070433078
aF1.7810026182746315
aF-0.7580651990437512
aF-0.6264221697964121
aF0.3594269188946748
aF-0.42181095076024255
aF-0.25676239749897656
aF-0.6630000721177927
aF0.18008972608614382
aF0.02853507284985346
aF2.416037277098506
aF-0.5808599126765311
aF3.0874855995947437
aF-1.0215313470703822
aF-1.5074633968017785
aF-0.22031886434031606
aF2.6641288814495407
aF-0.4748702696193565
aF2.14715828444795
aF0.563793652245205
aF2.3656939116256934
aF-0.37353514712931957
aF2.3864984358167174
aF0.2731998414100665
aF0.31889428990649393
aF0.47042662413539493
aF-0.6831056007420586
aF-0.7784507079097585
aF0.19756465339488294
aF0.010762849163941546
aF-0.897898676421583
aF2.4662517905722243
aF-0.31766078327009434
aF3.8910338557565476
aF0.8775981440327154
aF-1.7537434713572637
aF-0.92170070360953
aF1.6165580252672076
aF0.24510759298286855
aF4.791194363901616
aF-0.35555766668383115
aF2.294466769724789
aF-0.008380870743623037
aF1.9081838097265225
aF0.33358235588446683
aF-0.008975460434490268
aF-0.952331601243346
aF0.3312961351359378
aF-0.4940550858724033
aF0.16429486998409804
aF0.08852619585380972
aF-0.19112402201030743
aF2.5921085572115503
aF-0.634767104020079
aF4.395287981302784
aF2.185991708659398
aF-1.7501438650379506
aF-1.8971601664477664
aF-2.134088410910484
aF0.9738690460226216
aF5.577155254682744
aF-0.030291574942290955
aF1.9233047894423003
aF0.9332353149913983
aF2.374262400323944
aF-0.5004621172652626
aF-0.11228743641342276
aF-0.8570080333113732
aF-0.24642167091086553
aF-0.7856409624378857
aF0.07378874518572132
aF0.6664348970945411
aF-0.378318961335127
aF2.341729373087837
aF0.6906594391201177
aF3.436228899534156
aF4.30769370642417
aF2.7840801356271245
aF0.3344936349236646
aF-0.21554741098010832
aF0.1044839580795851
aF0.7765795153020605
aF-0.3651794921664915
aF-0.11487831960235309
aF0.3588535467752032
aF-1.0270614269848426
aF0.8359852477952607
aF0.9485488786370697
aF-0.07832776316754075
aF0.542927301053207
aF0.577255077532046
aF-0.5623443618256614
aF-0.5944413188871223
aF0.10107323446272876
aF0.8391126840043986
aF0.054809649837854774
aF1.8913419809944747
aF3.0850766013188022
aF2.9498717710929383
aF0.31120703858649446
aF0.45166355351128573
aF0.37332370093882217
aF-0.2719177277398723
aF-0.34555896466283276
aF-0.03437134007295073
aF0.6316651427868665
aF1.0888817164238196
aF-0.5271465983741663
aF0.780362348315965
aF-0.938912338099982
aF0.04287992975722732
aF0.5691419627972574
aF-0.13996588309253788
aF-0.9892671060923655
aF-0.28475149655002174
asS'_inputs'
p4
I608
sb.