(ilinear_regression
LinearRegression
p0
(dp1
S'_weights'
p2
(lp3
F-11.540053954798832
aF2.0518375056133498
aF5.616800639888933
aF4.037028141930403
aF0.8964909529903632
aF5.424821334641493
aF4.1075842194939165
aF3.077967554152178
aF8.258209625027439
aF1.4366505672750216
aF1.5470253089358692
aF5.195158936516384
aF3.5439139339493164
aF2.3651558509876374
aF4.869922968348567
aF4.901093980359161
aF1.7989432481365935
aF7.107670823327535
aF3.0496778553820616
aF-0.28910138299510424
aF6.658279504155071
aF3.4615150127950014
aF2.3575422769859293
aF9.653577865796043
aF-0.21849469497571034
aF1.3478743390517642
aF5.950733671654703
aF2.8951112351320667
aF2.362625753263543
aF5.23921918218666
aF3.2161403481353736
aF0.7312243591530703
aF6.418321568855824
aF4.201275676401359
aF0.3645014531111826
aF8.741276807897986
aF2.158557820912626
aF-3.927834872527483
aF15.817060026637266
aF-0.8832447943319486
aF2.713827705734998
aF7.903568492658868
aF1.2807736380156325
aF2.870942496133958
aF6.1994720953606075
aF1.3168984294817607
aF3.070858678724589
aF7.504456692982215
aF0.7725792031720615
aF3.176780121876111
aF8.893997310925855
aF-0.2304214369607064
aF2.6715707889688374
aF9.480413765547901
aF-0.5266592346007721
aF3.0987253337140976
aF7.117211495006933
aF0.10827523220940426
aF4.581356126524547
aF6.223408279538078
aF2.4997826804998113
aF2.4922378701879366
aF3.8825651343263337
aF3.7238879080110023
aF3.3438798440225805
aF5.9395749032279435
aF3.005987723040741
aF4.471637084747838
aF7.617189090774
aF-0.11910197590340987
aF3.53806594911782
aF4.809039338931903
aF4.382576738898741
aF3.9914232873568625
aF3.877423814457069
aF2.847411876998832
aF-5.49636164875538
aF4.275973441950353
aF0.505284556810636
aF4.510455748622739
aF4.372327382200362
aF2.906060745621612
aF2.561097351787796
aF2.046246495128429
aF3.0676178049150193
aF0.40313820629160385
aF-3.222724273105874
aF2.1374087087277966
aF-0.45155313187227103
aF2.082387104765716
aF0.70601870756973
aF-0.9287868415804159
aF-0.87709605745353
aF1.1906617156488217
aF-0.8570444464029259
aF2.3924657572953287
aF0.8828104051325805
aF0.8492784604697832
aF0.2877658186630032
aF-0.18407501868540876
aF-0.45571440535410734
aF-0.17205844378870427
aF0.8598986999742186
aF-0.6555788868408847
aF1.7905381806880871
aF4.9784152180624295
aF0.15281795925977282
aF-2.1203183356505177
aF2.108403562442332
aF-0.375358449531481
aF2.2447452884404377
aF-0.05166754970123777
aF1.3417407438647595
aF-0.9704875303974985
aF0.4311809606280751
aF0.2964319541199416
aF-0.24677611039616082
aF-0.7120279888764853
aF-0.8877841147755758
aF-0.9745350155909551
aF-0.14916992938570606
aF-0.8072554551041478
aF-0.7665148212848354
aF0.25117177944047797
aF-0.05358839865397802
aF1.3216911770584905
aF6.890884065510932
aF-0.381802188490438
aF0.03311436998465773
aF-0.3035713106849346
aF-0.560345469236513
aF1.801186207701923
aF0.3862964490185574
aF2.634116007368646
aF0.6504187211812853
aF0.24651606605865653
aF0.454728752265275
aF1.898997427957363
aF0.08558755738812551
aF-0.8487153392222948
aF0.6073540241402191
aF0.07082288052844299
aF0.8082460607794495
aF-0.8267192657941367
aF0.18420564825174401
aF-0.47078922686535885
aF1.5555510491228683
aF3.5804540604620163
aF0.9505084143503579
aF3.8469438784726364
aF2.0342020159805094
aF0.44277467598951487
aF1.6754806666940436
aF0.361647859074278
aF-1.1812533469942348
aF-0.5169940958734567
aF-0.0581653090948249
aF0.0156716026006265
aF-0.11963797496699985
aF0.8042071022627479
aF0.19625508262677016
aF0.3553426929305612
aF0.5748660269822514
aF-0.7294949692296702
aF-0.5352463778368723
aF-0.43133957763787834
aF0.534870772362783
aF1.2796771159614466
aF2.8397373060994657
aF0.8954111416384788
aF2.3712732409289172
aF1.4203974895422804
aF0.685048251764181
aF2.475972345332605
aF0.1744861936346509
aF0.34637310464573384
aF-0.4637137916744203
aF-0.4111573202308769
aF0.609531696266421
aF-0.09899179580666606
aF0.1297731534933606
aF-0.8942558840415653
aF0.4418116681905693
aF0.6072959669885687
aF-0.5532337573988224
aF0.760802744763599
aF0.6697932938883784
aF0.033434585728279176
aF1.3850708988525842
aF1.6651183555746394
aF-0.05159770638032107
aF-5.885081239779284
aF3.6421309848273675
aF-0.653241496770567
aF2.0875542950961425
aF0.378995357084823
aF4.524031804639199
aF-0.180140934118304
aF2.1655489814170776
aF0.07095848903361968
aF1.5867102955165395
aF-0.8011028261738682
aF-0.1561645532453635
aF0.2347176669065063
aF-0.8750816518438562
aF0.4369805509018505
aF-0.9899273670270567
aF-0.21376291224032573
aF-0.36573132322881685
aF1.581114217293467
aF4.430980646777404
aF-0.4284287292094539
aF-3.608607070067297
aF5.344600634005582
aF-0.06994753600826908
aF2.0862240913964434
aF-0.23582404513140354
aF2.7126987483253484
aF-0.7821402470905372
aF-0.2827906493297709
aF0.6650113954469152
aF-0.9624367663565436
aF-0.39925779610254186
aF-0.1656452257752723
aF-0.927021085860742
aF-0.9014006048298342
aF0.03351048005833346
aF-0.30109338818792253
aF-0.1806455659976125
aF0.9380310961241625
aF2.250154248018556
aF11.411211251972578
aF-2.8331010026763948
aF-1.734326715881915
aF-0.8793668070428915
aF-0.20701488161643894
aF1.730866406955065
aF0.13604518216117456
aF2.180763859892145
aF0.13671331892832228
aF1.2005829689276102
aF0.9021881286618059
aF0.3342047120222709
aF-0.42739901780171974
aF-0.29792526871110625
aF-0.9469254923118915
aF0.18422416029622202
aF0.28498895738517005
aF-0.5842400597253294
aF0.4492623502744204
aF-0.03306605922438011
aF1.0915706417495996
aF3.5097537881541405
aF0.8053424549201943
aF6.597587318362605
aF1.672102077493934
aF0.6058762649793076
aF1.978753928435613
aF-0.2372297980886433
aF1.337167294442695
aF0.7582341231226484
aF-1.3685027725930305
aF-0.9180426695078385
aF-0.8649636072400423
aF-0.38765130103379564
aF-0.2562726612190833
aF-0.02939054932841234
aF-0.06485230755105409
aF-0.8918336080720857
aF-0.48097819656988383
aF-0.00742352343173347
aF-0.4567175498705762
aF1.4394328294085756
aF2.8200920662470264
aF0.40204976441375667
aF5.453699374063635
aF1.1272778823662783
aF0.5116391234292869
aF2.12506427125273
aF0.6548343347339793
aF-1.5193640024673656
aF-0.2753683853258111
aF-0.800871266788647
aF-0.2418966479440825
aF-0.13350789349202546
aF-0.16316830900934787
aF0.3636465701769176
aF0.7841558172844676
aF0.16271685580239348
aF-0.4466326422916991
aF0.08169904627471114
aF-0.5693848778941606
aF0.4884800539535268
aF3.2898630992060824
aF0.1456439713493829
aF3.959794274191571
aF-5.429108241027969
aF5.597156475173723
aF1.1702408264607957
aF4.300900680408701
aF0.7508262651759607
aF-1.3139382410813027
aF0.9690972774709534
aF-0.133710252079996
aF0.9872555551169566
aF0.19564526650579447
aF0.03132240338685022
aF0.4066762486400277
aF0.2575241798254846
aF0.11893516388170355
aF0.6244637353067308
aF0.622114511003891
aF-0.23437507706951788
aF0.027056081219775763
aF3.9822705159617233
aF0.024746083798403963
aF3.898836487925684
aF-2.8313186314823193
aF8.832236479823075
aF2.132230646027747
aF4.858696443937311
aF0.1413025027924497
aF-3.654075665766521
aF-0.4980976120604055
aF-1.6238763025826617
aF0.867116041761655
aF-0.9372026138538005
aF-0.2821285724968503
aF-0.12102016232860868
aF-0.5085109685069507
aF-0.5336620679731499
aF-0.9087851009186232
aF0.8973406302471985
aF-0.3294864137932867
aF0.864768872657816
aF27.277804714098668
aF-3.1116404719634136
aF-3.035376195220171
aF-2.823130392348894
aF-4.561715153822769
aF-1.702296121872289
aF0.056577250527509594
aF-0.07855946583253193
aF0.49493954890496217
aF-0.42494103138774353
aF-0.10918968735569146
aF0.3758440925518267
aF-0.3778121741789069
aF-0.8728491719680411
aF-0.053282903345462485
aF0.8286097693626457
aF0.9582571621958862
aF0.09841020720444815
aF-0.2644360756591444
aF0.8408759929877467
aF0.13522300362081419
aF1.5520780223196298
aF1.0245802019803565
aF1.3424781448573286
aF7.897024693056399
aF0.2771280557995928
aF-0.21394037287428527
aF0.2623725014009658
aF0.34504136945620223
aF1.9225090080277343
aF-0.03742885725240108
aF-0.7461616141213334
aF0.010252525148795266
aF-2.175578468038908
aF0.6616118301660967
aF-0.7914938414214161
aF-0.9469535691862458
aF-0.22933050295615565
aF0.26063704273086463
aF-0.28975365307388357
aF0.07993899219416534
aF0.8957071965824035
aF1.3614143598386126
aF-0.5660105608983214
aF0.39443545495548493
aF6.16014759256965
aF0.8404725102116726
aF-0.9288975479701035
aF-0.9693221611748266
aF-0.45586120164240085
aF4.229006125890395
aF-0.052827424213409024
aF-0.14057911314817484
aF0.24939867289479234
aF-0.4801723409334353
aF0.8651783330708316
aF0.3742106426638623
aF-0.5621774760515585
aF-0.808917224285044
aF-0.1211830365334503
aF-0.2035695046584447
aF-0.09980946371884403
aF0.0366136609558938
aF2.3376121536384096
aF-1.8852856235488413
aF5.144541582266649
aF-4.926053719686901
aF1.1475285106104587
aF-0.45451312042525777
aF2.490426778193657
aF-0.8849499575690829
aF2.206838887572354
aF-0.7418967723788366
aF1.9497905445000387
aF-0.30107213886419837
aF2.4025791307920197
aF-0.37459337167383344
aF-0.34023200757511707
aF-0.04029002071427312
aF-0.8185600494446366
aF-0.06924203796424311
aF-0.6128869507405423
aF0.8160551124287843
aF-0.1848790058108829
aF2.5114458869100624
aF-2.1524603712350854
aF6.096157022364251
aF-2.123825021671449
aF0.9013536147698161
aF-0.356829160079234
aF2.5805978349194536
aF-0.32367930322632343
aF1.0064820961752443
aF0.3215103674755584
aF1.1783335354372502
aF-0.8738841925488474
aF1.3451815635414321
aF-0.07461180272686296
aF0.8240980506186273
aF0.6902532333844424
aF-0.874255989507623
aF0.18059379320851687
aF0.7249036594654434
aF0.009541807806631386
aF-0.8241459041062866
aF3.7098240548760986
aF-2.7180995386076297
aF9.03275344311373
aF0.12914559971045314
aF-1.6023829406748173
aF-0.9535588850991245
aF-0.35860252987936275
aF0.4934658922367039
aF0.13499707624562562
aF-0.9480226879717846
aF1.8965947487656816
aF-0.8961036793816666
aF0.8459095154245234
aF0.28420591078692015
aF0.9426254705910944
aF0.7975023288256002
aF-0.13345969498369592
aF-0.6191203665940193
aF0.14242927187681031
aF-0.6781659419508883
aF-0.0438778813746763
aF1.9435170695829098
aF-1.2421676507889874
aF0.9214918561375757
aF7.838280694246762
aF0.15223395176128973
aF-0.5917486282679395
aF-0.20259061986820756
aF0.2670781192532359
aF2.376800327034847
aF0.5087105312683748
aF-0.3210385971851654
aF-0.938694407224341
aF-0.5435126038153834
aF-0.563257449073371
aF0.5895675721377609
aF0.64379795083114
aF-0.8211703363613396
aF0.2712349679188777
aF-0.5378418360877923
aF-0.2833224612421261
aF-0.9435064299233928
aF1.312693671713753
aF-1.0301873312309924
aF1.1634765500107205
aF5.754344206321088
aF0.8851564049561172
aF-0.8796280199341012
aF-0.5947327412081336
aF-0.5635940904595309
aF2.708746019554276
aF0.593399415554769
aF0.1744295363801498
aF0.5710592070433078
aF0.7508434086006778
aF-0.7580651990437512
aF-0.6264221697964121
aF0.3594269188946748
aF-0.42181095076024255
aF-0.25676239749897656
aF-0.6630000721177927
aF0.18008972608614382
aF0.02853507284985346
aF2.3894493507885266
aF-0.7969608681182153
aF4.538054515873135
aF-3.167360123088844
aF-1.6296783748597072
aF-0.7278976546091056
aF2.3753012760536136
aF-0.4748702696193565
aF2.0966011443782313
aF0.563793652245205
aF2.826170609560479
aF-0.37353514712931957
aF2.667950788124556
aF0.2731998414100665
aF0.31889428990649393
aF0.47042662413539493
aF-0.6831056007420586
aF-0.7784507079097585
aF0.19756465339488294
aF0.010762849163941546
aF-0.897898676421583
aF2.2742039447264477
aF-1.2082706579342313
aF4.242109925453784
aF-0.33231695195148253
aF-0.635836653859506
aF-1.2282922935025675
aF1.2127573633115105
aF0.24510759298286855
aF4.901402096221586
aF-0.35555766668383115
aF2.3569194621926095
aF-0.008380870743623037
aF2.104307361045008
aF0.33358235588446683
aF-0.008975460434490268
aF-0.952331601243346
aF0.3312961351359378
aF-0.4940550858724033
aF0.16429486998409804
aF0.08852619585380972
aF-0.19112402201030743
aF2.663905672242359
aF-2.022432225147454
aF4.723267724593547
aF0.698046462987984
aF-0.9902667170002636
aF-1.5796176469211023
aF-1.8412053690322336
aF0.9738690460226216
aF5.746184528322056
aF-0.030291574942290955
aF2.051945136459903
aF0.9332353149913983
aF2.0169253736600994
aF-0.5004621172652626
aF-0.11228743641342276
aF-0.8570080333113732
aF-0.24642167091086553
aF-0.7856409624378857
aF0.07378874518572132
aF0.6664348970945411
aF-0.378318961335127
aF2.8456093758223866
aF0.33860873962505034
aF2.111323207157908
aF4.486443081776886
aF3.086848236812146
aF0.13188567355327036
aF-0.35997081779882145
aF0.1044839580795851
aF0.5428971074507326
aF-0.3651794921664915
aF-0.011616710663696454
aF0.3588535467752032
aF-1.0232485523255404
aF0.8359852477952607
aF0.9485488786370697
aF-0.07832776316754075
aF0.542927301053207
aF0.577255077532046
aF-0.5623443618256614
aF-0.5944413188871223
aF0.10107323446272876
aF1.9488355217161542
aF0.7743056802192355
aF2.012809888442509
aF2.543062795388705
aF2.061113089396632
aF-0.14429130139645469
aF-0.6459000922737073
aF0.37332370093882217
aF-0.15105549218432016
aF-0.34555896466283276
aF-0.1232353261985029
aF0.6316651427868665
aF0.9248329598055803
aF-0.5271465983741663
aF0.780362348315965
aF-0.938912338099982
aF0.04287992975722732
aF0.5691419627972574
aF-0.13996588309253788
aF-0.9892671060923655
aF-0.28475149655002174
asS'_inputs'
p4
I608
sb.