(ilinear_regression
LinearRegression
p0
(dp1
S'_weights'
p2
(lp3
F-10.377213170792734
aF1.5444390499471552
aF7.03435522825148
aF1.9640312252291416
aF0.05432568221410257
aF6.835985381711317
aF2.3757446591944937
aF3.9478562474154897
aF8.208086133411967
aF-0.5459554183767499
aF1.8301886955242417
aF4.5572188754848115
aF2.7358498243872433
aF2.1922545026374527
aF4.906135253015421
aF3.874942260038668
aF0.4687731091172244
aF10.09877726246371
aF0.22590077125988287
aF-1.9958843272007132
aF8.19653872256575
aF2.4671979545847944
aF1.721403032344299
aF10.160463649448138
aF-1.2520820179905203
aF1.2066430889931172
aF5.573027708669449
aF2.2512076641713157
aF2.323650931414389
aF5.006666222276081
aF2.3248273458902795
aF-1.6495352302004447
aF7.610110773157942
aF4.227405277447055
aF-1.8617417478547573
aF8.263682956826626
aF3.699554088944089
aF-7.252294426525059
aF17.978678796629733
aF-0.8832447943319486
aF0.9970381136694834
aF7.030862352440417
aF2.7074285862951046
aF2.0292215221761323
aF6.4737410855067266
aF0.7215096292887707
aF1.1832844134138762
aF8.35030743054393
aF0.6514619469154682
aF0.824297925707313
aF9.406742521241018
aF0.4464747648878635
aF2.0786470446682976
aF9.899263999454911
aF-1.5154265082127376
aF1.972926103112078
aF7.210464665024905
aF-0.02201949121230425
aF3.082122219248727
aF7.098455726616897
aF1.9611283566923552
aF0.8363789027705525
aF5.8488283449275675
aF2.250642880822271
aF2.1030765368559123
aF6.894918199556884
aF2.128606949873614
aF3.9650850916717544
aF7.889890090090681
aF-1.0480917661491933
aF2.608657475132824
aF5.162701218256301
aF3.7954825495545
aF3.332601107586118
aF4.486318218764724
aF1.7344988684571734
aF-7.092311843809635
aF1.3433008522328966
aF1.1628541910513044
aF4.6130905208883695
aF3.137527175233171
aF4.628598062379089
aF4.678937836257448
aF1.1037536392370257
aF3.82191714384461
aF-1.3872420542250954
aF-3.2721198049964935
aF3.2840637825821823
aF-0.0991218474633398
aF0.7343985054297265
aF0.70601870756973
aF-1.2054789275230757
aF-0.87709605745353
aF1.9326974982729694
aF-0.8570444464029259
aF2.641152827050642
aF0.8828104051325805
aF0.8492784604697832
aF0.2877658186630032
aF-0.18407501868540876
aF-0.45571440535410734
aF-0.17205844378870427
aF0.8598986999742186
aF-0.6555788868408847
aF0.5965091711307191
aF5.154725268528161
aF-1.983604298564801
aF-0.9041671568775372
aF2.5403452774272743
aF0.03792322505882713
aF-0.1553242076733372
aF-0.05166754970123777
aF2.535360926958211
aF-0.9704875303974985
aF0.8443320822636584
aF0.2964319541199416
aF0.4764479455516778
aF-0.7120279888764853
aF-0.8877841147755758
aF-0.9745350155909551
aF-0.14916992938570606
aF-0.8072554551041478
aF-0.7665148212848354
aF0.25117177944047797
aF-0.05358839865397802
aF1.1529398898790102
aF5.6347345827394415
aF-1.6178259656763785
aF1.1419846077831508
aF0.5593437766724684
aF0.1562123043727428
aF-0.155282723957385
aF0.3862964490185574
aF2.67949683060539
aF0.6504187211812853
aF0.9441001410756674
aF0.454728752265275
aF1.9222421257296227
aF0.08558755738812551
aF-0.8487153392222948
aF0.6073540241402191
aF0.07082288052844299
aF0.8082460607794495
aF-0.8267192657941367
aF0.18420564825174401
aF-0.47078922686535885
aF0.6276774116958611
aF3.6678853216455747
aF-0.7751429899859485
aF4.178071055885039
aF1.9370831920493186
aF1.1600495830347535
aF0.03625817048479794
aF0.361647859074278
aF-0.039918489120866
aF-0.5169940958734567
aF0.3873079715563461
aF0.0156716026006265
aF0.38474611876611453
aF0.8042071022627479
aF0.19625508262677016
aF0.3553426929305612
aF0.5748660269822514
aF-0.7294949692296702
aF-0.5352463778368723
aF-0.43133957763787834
aF0.534870772362783
aF-0.19492362685378284
aF3.7814582541259045
aF-0.6182344839504006
aF4.1899906248855245
aF1.8139761312390221
aF1.4311996933998308
aF0.6439012253297908
aF0.1744861936346509
aF-1.0679798486051961
aF-0.4637137916744203
aF0.179402575067583
aF0.609531696266421
aF0.4821095512324217
aF0.1297731534933606
aF-0.8942558840415653
aF0.4418116681905693
aF0.6072959669885687
aF-0.5532337573988224
aF0.760802744763599
aF0.6697932938883784
aF0.033434585728279176
aF-0.3451444803463058
aF2.9673718571914103
aF-0.46329410665887877
aF-6.358727553623389
aF2.4836564160112573
aF-0.5142774480408864
aF0.29903487606176926
aF0.378995357084823
aF4.700029311470166
aF-0.180140934118304
aF3.659395901145726
aF0.07095848903361968
aF2.875359615777587
aF-0.8011028261738682
aF-0.1561645532453635
aF0.2347176669065063
aF-0.8750816518438562
aF0.4369805509018505
aF-0.9899273670270567
aF-0.21376291224032573
aF-0.36573132322881685
aF0.7963114447471054
aF4.475949282973364
aF-0.2590354515360778
aF-4.106324524068475
aF4.3216976310407444
aF0.7940203229686674
aF1.341867597106424
aF-0.23582404513140354
aF2.823805661881457
aF-0.7821402470905372
aF0.03293424992391633
aF0.6650113954469152
aF-0.5806594122150109
aF-0.39925779610254186
aF-0.1656452257752723
aF-0.927021085860742
aF-0.9014006048298342
aF0.03351048005833346
aF-0.30109338818792253
aF-0.1806455659976125
aF0.9380310961241625
aF1.9379280947684412
aF10.878885102354463
aF-2.298974364193982
aF-1.9324536776842105
aF-1.2441575163189513
aF0.4982887268404569
aF1.9889494348698478
aF0.13604518216117456
aF1.2084205709436369
aF0.13671331892832228
aF0.7283033048226241
aF0.9021881286618059
aF0.5259435801634649
aF-0.42739901780171974
aF-0.29792526871110625
aF-0.9469254923118915
aF0.18422416029622202
aF0.28498895738517005
aF-0.5842400597253294
aF0.4492623502744204
aF-0.03306605922438011
aF0.9248641805182557
aF3.038810402432768
aF0.4300671308766976
aF7.707562505620447
aF0.6316465115775582
aF1.3617233651982454
aF1.5080570500042756
aF-0.2372297980886433
aF0.5827005873576969
aF0.7582341231226484
aF-1.2587779017722092
aF-0.9180426695078385
aF-0.7248072271133229
aF-0.38765130103379564
aF-0.2562726612190833
aF-0.02939054932841234
aF-0.06485230755105409
aF-0.8918336080720857
aF-0.48097819656988383
aF-0.00742352343173347
aF-0.4567175498705762
aF0.6298280076484376
aF2.8689920957196984
aF-0.27719761327859044
aF6.266165911260247
aF0.022833391324620558
aF1.4455235206640566
aF0.4196599356461945
aF0.6548343347339793
aF-0.6638207772402454
aF-0.2753683853258111
aF-0.15084661047508652
aF-0.2418966479440825
aF-0.2984664968407792
aF-0.16316830900934787
aF0.3636465701769176
aF0.7841558172844676
aF0.16271685580239348
aF-0.4466326422916991
aF0.08169904627471114
aF-0.5693848778941606
aF0.4884800539535268
aF2.693079659955824
aF-0.2390245686413288
aF3.9403462667791347
aF-5.024837963568479
aF6.220913755931888
aF1.5865979310881695
aF3.1179783495037987
aF0.7508262651759607
aF-0.39884959338275056
aF0.9690972774709534
aF-1.2642909041850006
aF0.9872555551169566
aF-0.012265858379846853
aF0.03132240338685022
aF0.4066762486400277
aF0.2575241798254846
aF0.11893516388170355
aF0.6244637353067308
aF0.622114511003891
aF-0.23437507706951788
aF0.027056081219775763
aF3.8381707242366336
aF-0.22417091093366684
aF4.679797138945459
aF-3.221547102912757
aF9.214059661986804
aF3.114469181664085
aF5.025507520380224
aF0.1413025027924497
aF-4.672939844321794
aF-0.4980976120604055
aF-2.8424026398963305
aF0.867116041761655
aF-1.3912410693652884
aF-0.2821285724968503
aF-0.12102016232860868
aF-0.5085109685069507
aF-0.5336620679731499
aF-0.9087851009186232
aF0.8973406302471985
aF-0.3294864137932867
aF0.864768872657816
aF20.859127978450875
aF-2.387184091885241
aF-1.9905545169369805
aF-1.5054696926871414
aF-4.160228912838087
aF-0.5097993960575293
aF0.6314914773478382
aF-0.07855946583253193
aF0.49493954890496217
aF-0.42494103138774353
aF-0.10918968735569146
aF0.3758440925518267
aF-0.3778121741789069
aF-0.8728491719680411
aF-0.053282903345462485
aF0.8286097693626457
aF0.9582571621958862
aF0.09841020720444815
aF-0.2644360756591444
aF0.8408759929877467
aF0.13522300362081419
aF0.48324051744612906
aF-0.8471542479128433
aF1.0237820448614476
aF7.049378172037052
aF-0.11087969549964126
aF0.5636318572432701
aF1.5117740961731896
aF0.34504136945620223
aF2.3806534248685485
aF-0.03742885725240108
aF-0.42315745169131497
aF0.010252525148795266
aF-1.6516193291232641
aF0.6616118301660967
aF-0.7914938414214161
aF-0.9469535691862458
aF-0.22933050295615565
aF0.26063704273086463
aF-0.28975365307388357
aF0.07993899219416534
aF0.8957071965824035
aF-0.296328053103181
aF-1.7237630654868632
aF-0.8297538983046138
aF7.343415826390057
aF-0.5846439982095704
aF-0.5437405400049264
aF-0.7466469321408665
aF-0.45586120164240085
aF4.1413177265162116
aF-0.052827424213409024
aF0.9305163168597835
aF0.24939867289479234
aF1.0472801528198756
aF0.8651783330708316
aF0.3742106426638623
aF-0.5621774760515585
aF-0.808917224285044
aF-0.1211830365334503
aF-0.2035695046584447
aF-0.09980946371884403
aF0.0366136609558938
aF0.977727359083909
aF-3.294950575791561
aF4.6921531492415305
aF-5.0977673034330016
aF0.5006029670068927
aF-0.40658848499957595
aF2.5248745279984766
aF-0.8849499575690829
aF2.7711811249612133
aF-0.7418967723788366
aF3.1652175120153947
aF-0.30107213886419837
aF3.418174063824489
aF-0.37459337167383344
aF-0.34023200757511707
aF-0.04029002071427312
aF-0.8185600494446366
aF-0.06924203796424311
aF-0.6128869507405423
aF0.8160551124287843
aF-0.1848790058108829
aF1.6880832409028914
aF-2.0659916558945293
aF5.276020731250848
aF-2.233588195193464
aF0.6208051949202346
aF-0.028525691151407864
aF1.455964214285358
aF-0.32367930322632343
aF1.434191713973799
aF0.3215103674755584
aF1.8556433552147609
aF-0.8738841925488474
aF1.820993308818375
aF-0.07461180272686296
aF0.8240980506186273
aF0.6902532333844424
aF-0.874255989507623
aF0.18059379320851687
aF0.7249036594654434
aF0.009541807806631386
aF-0.8241459041062866
aF2.6365303693313704
aF-2.95299117938261
aF7.246760925699995
aF1.887098479504768
aF-1.1718879699670273
aF-0.19253507676037623
aF0.3679567044902406
aF0.4934658922367039
aF-0.7621594177926435
aF-0.9480226879717846
aF1.4131161098873795
aF-0.8961036793816666
aF0.481850814859143
aF0.28420591078692015
aF0.9426254705910944
aF0.7975023288256002
aF-0.13345969498369592
aF-0.6191203665940193
aF0.14242927187681031
aF-0.6781659419508883
aF-0.0438778813746763
aF1.031705816025187
aF-1.5671831233454465
aF1.8775476986043842
aF6.152515680560331
aF0.24778142134994105
aF-0.41059912588183967
aF-0.620540706862539
aF0.2670781192532359
aF3.2449636917340983
aF0.5087105312683748
aF-0.4013930509879872
aF-0.938694407224341
aF-0.3863732863630761
aF-0.563257449073371
aF0.5895675721377609
aF0.64379795083114
aF-0.8211703363613396
aF0.2712349679188777
aF-0.5378418360877923
aF-0.2833224612421261
aF-0.9435064299233928
aF-0.38908345706898256
aF-0.5563335220894206
aF0.22042420962764098
aF6.370848350160203
aF-0.5787547469582108
aF0.08590484279484117
aF-0.456653324775665
aF-0.5635940904595309
aF2.225401904436857
aF0.593399415554769
aF0.6981931030385536
aF0.5710592070433078
aF1.4623535619931685
aF-0.7580651990437512
aF-0.6264221697964121
aF0.3594269188946748
aF-0.42181095076024255
aF-0.25676239749897656
aF-0.6630000721177927
aF0.18008972608614382
aF0.02853507284985346
aF0.9060328309728387
aF-0.38232635427333966
aF4.1703074722435085
aF-2.318292265505181
aF-3.077632983484366
aF-0.07457678127208883
aF2.8850754690824103
aF-0.4748702696193565
aF1.5131620738685057
aF0.563793652245205
aF2.705964623144545
aF-0.37353514712931957
aF3.081075795320995
aF0.2731998414100665
aF0.31889428990649393
aF0.47042662413539493
aF-0.6831056007420586
aF-0.7784507079097585
aF0.19756465339488294
aF0.010762849163941546
aF-0.897898676421583
aF1.868065272211813
aF-1.350461925568153
aF4.038056069976552
aF0.3839368673878715
aF-1.9084240553453178
aF0.28707145471137824
aF1.0746071954215601
aF0.24510759298286855
aF3.7631899977689414
aF-0.35555766668383115
aF2.747382134640305
aF-0.008380870743623037
aF1.6207198004934835
aF0.33358235588446683
aF-0.008975460434490268
aF-0.952331601243346
aF0.3312961351359378
aF-0.4940550858724033
aF0.16429486998409804
aF0.08852619585380972
aF-0.19112402201030743
aF1.5182475723402933
aF-1.8467436277568972
aF3.373782089825042
aF1.8950609183794012
aF-2.473719655820927
aF-1.1333840223898524
aF-1.3757974925835275
aF0.9738690460226216
aF4.854362254001602
aF-0.030291574942290955
aF2.651681339178043
aF0.9332353149913983
aF2.8404227809868883
aF-0.5004621172652626
aF-0.11228743641342276
aF-0.8570080333113732
aF-0.24642167091086553
aF-0.7856409624378857
aF0.07378874518572132
aF0.6664348970945411
aF-0.378318961335127
aF2.1926868449317545
aF-0.00862525471175846
aF2.411330240350765
aF5.420553598538455
aF2.3010617741533923
aF0.4239300442024816
aF-0.6867241652985977
aF0.1044839580795851
aF-0.09989794052445888
aF-0.3651794921664915
aF-0.09265951660990565
aF0.3588535467752032
aF-0.8757170676265011
aF0.8359852477952607
aF0.9485488786370697
aF-0.07832776316754075
aF0.542927301053207
aF0.577255077532046
aF-0.5623443618256614
aF-0.5944413188871223
aF0.10107323446272876
aF0.539597185349202
aF-0.8461587425955571
aF1.370354463639533
aF4.190174819505256
aF2.045938962898231
aF0.2378030128459212
aF-0.13559820919624166
aF0.37332370093882217
aF-1.2442836233262429
aF-0.34555896466283276
aF0.5568624871261905
aF0.6316651427868665
aF1.3229465826651867
aF-0.5271465983741663
aF0.780362348315965
aF-0.938912338099982
aF0.04287992975722732
aF0.5691419627972574
aF-0.13996588309253788
aF-0.9892671060923655
aF-0.28475149655002174
asS'_inputs'
p4
I608
sb.