(ilinear_regression
LinearRegression
p0
(dp1
S'_weights'
p2
(lp3
F-12.914084337977878
aF2.836618549655926
aF7.00850008392945
aF3.2345780370289137
aF1.7239258468341403
aF6.590822914900286
aF3.488178128572317
aF4.385327900269411
aF8.426329930479215
aF1.3352002988876919
aF2.5521680812727703
aF4.540079366209109
aF4.567881115101292
aF3.7502557263353555
aF5.252932824803382
aF4.507014631739369
aF2.44422019249604
aF9.399290096108603
aF1.4868120214225706
aF0.7086371900228761
aF8.219544487569603
aF2.276541839543724
aF3.1063526108469945
aF9.99564287249589
aF0.06466034764536657
aF2.326098355081029
aF4.8092688500928364
aF4.432382423846444
aF3.300868049737938
aF5.259541006085166
aF3.631606610944308
aF0.6395012424508708
aF8.06358913632511
aF4.021761608815047
aF0.5306693189438032
aF9.225798310061844
aF2.8818988360970583
aF-4.2853385914780535
aF17.548594128769583
aF-0.8832447943319486
aF3.092502164295026
aF6.9802893053857025
aF3.19940874991076
aF3.959913874705499
aF6.456886427185696
aF1.3445431022671528
aF2.937328982113897
aF9.544749637338773
aF0.239846338606928
aF2.8927623976710146
aF10.10473985768851
aF0.21688412366291376
aF2.931030045672949
aF10.894051868018161
aF-0.8257262105942061
aF3.1821628099071964
aF7.588356448056728
aF0.9277231861478524
aF4.214594461578257
aF7.525148431827486
aF2.938834576338888
aF2.4908080307037657
aF6.363717313372132
aF2.618195951631253
aF3.1813882291258513
aF7.276261986126917
aF3.205822638220153
aF4.6762018931670335
aF9.194110657745304
aF-0.5265579681121157
aF2.9941672618171165
aF5.680040016535613
aF5.429505131778103
aF3.6686260827364086
aF5.402721060013228
aF3.0189422192451
aF-7.1608403828242535
aF3.911815604071912
aF1.0221341781673
aF4.371870818087677
aF4.300398835564211
aF4.432140245895919
aF4.131348662457347
aF2.0049491623556968
aF5.01260967688656
aF-1.5973300296276296
aF-3.0141157057084285
aF2.65665821924267
aF0.020418886042875662
aF1.2807202297434972
aF0.70601870756973
aF-0.9269897686572793
aF-0.87709605745353
aF2.1762156546602824
aF-0.8570444464029259
aF2.4777556044573403
aF0.8828104051325805
aF0.8492784604697832
aF0.2877658186630032
aF-0.18407501868540876
aF-0.45571440535410734
aF-0.17205844378870427
aF0.8598986999742186
aF-0.6555788868408847
aF1.343154058969688
aF5.395878405216357
aF-0.9656343566393732
aF-0.9739049817575176
aF2.0269960594899232
aF-0.08321885168653749
aF0.6123182512050397
aF-0.05166754970123777
aF2.3378055235119217
aF-0.9704875303974985
aF1.2826528427457298
aF0.2964319541199416
aF0.7033724499342983
aF-0.7120279888764853
aF-0.8877841147755758
aF-0.9745350155909551
aF-0.14916992938570606
aF-0.8072554551041478
aF-0.7665148212848354
aF0.25117177944047797
aF-0.05358839865397802
aF1.4652718057296545
aF6.405310143069148
aF-0.36551075386169807
aF-0.009352701551748634
aF0.5626461554392437
aF0.37532331376642253
aF1.4427804174515768
aF0.3862964490185574
aF2.558956516386483
aF0.6504187211812853
aF0.8870165674346975
aF0.454728752265275
aF1.6323752725464908
aF0.08558755738812551
aF-0.8487153392222948
aF0.6073540241402191
aF0.07082288052844299
aF0.8082460607794495
aF-0.8267192657941367
aF0.18420564825174401
aF-0.47078922686535885
aF1.0771369051334723
aF3.5683187494568593
aF0.5130976929979065
aF3.8938040465555783
aF2.468076724256537
aF0.9936683759164797
aF1.3143031675931098
aF0.361647859074278
aF-0.08302445142850781
aF-0.5169940958734567
aF0.11082818094041955
aF0.0156716026006265
aF0.24467912177579454
aF0.8042071022627479
aF0.19625508262677016
aF0.3553426929305612
aF0.5748660269822514
aF-0.7294949692296702
aF-0.5352463778368723
aF-0.43133957763787834
aF0.534870772362783
aF1.157216849002575
aF3.842949979876019
aF1.7045313194395835
aF2.5948090209364203
aF1.4505833421861918
aF1.2027862462479513
aF1.8269884813565156
aF0.1744861936346509
aF-0.769580259267062
aF-0.4637137916744203
aF0.1317082997681364
aF0.609531696266421
aF0.035777983511060214
aF0.1297731534933606
aF-0.8942558840415653
aF0.4418116681905693
aF0.6072959669885687
aF-0.5532337573988224
aF0.760802744763599
aF0.6697932938883784
aF0.033434585728279176
aF1.3166189904096885
aF2.2027429520610693
aF-1.037399776948199
aF-6.602730205068875
aF3.6299084760435107
aF-0.18456554334356862
aF1.6927399152043678
aF0.378995357084823
aF3.8886760590027
aF-0.180140934118304
aF3.6130258408699376
aF0.07095848903361968
aF3.321258847944447
aF-0.8011028261738682
aF-0.1561645532453635
aF0.2347176669065063
aF-0.8750816518438562
aF0.4369805509018505
aF-0.9899273670270567
aF-0.21376291224032573
aF-0.36573132322881685
aF2.3943698219741574
aF4.338143742790695
aF-0.3235475785471604
aF-3.838364664862865
aF4.182709388338089
aF1.0694508283069315
aF1.8736860595956415
aF-0.23582404513140354
aF2.782822223547302
aF-0.7821402470905372
aF0.24256436076526652
aF0.6650113954469152
aF-0.5443962118994725
aF-0.39925779610254186
aF-0.1656452257752723
aF-0.927021085860742
aF-0.9014006048298342
aF0.03351048005833346
aF-0.30109338818792253
aF-0.1806455659976125
aF0.9380310961241625
aF3.0803190509860565
aF10.69829415125221
aF-1.7097562627872798
aF-1.9883853996864438
aF-0.8954758109729407
aF0.9402468922987406
aF2.065725719633804
aF0.13604518216117456
aF1.45337949165413
aF0.13671331892832228
aF0.6935119720890125
aF0.9021881286618059
aF0.49014461928498154
aF-0.42739901780171974
aF-0.29792526871110625
aF-0.9469254923118915
aF0.18422416029622202
aF0.28498895738517005
aF-0.5842400597253294
aF0.4492623502744204
aF-0.03306605922438011
aF1.2612149334885372
aF4.526073823859533
aF0.2688893971357547
aF7.529543749213495
aF0.9374781140143148
aF1.1282561834900378
aF2.238115711251085
aF-0.2372297980886433
aF0.8196719620108864
aF0.7582341231226484
aF-1.2017428795372889
aF-0.9180426695078385
aF-0.768783223039485
aF-0.38765130103379564
aF-0.2562726612190833
aF-0.02939054932841234
aF-0.06485230755105409
aF-0.8918336080720857
aF-0.48097819656988383
aF-0.00742352343173347
aF-0.4567175498705762
aF1.1489414379758023
aF3.011503571421285
aF0.0617043628846189
aF5.962021385191581
aF1.3115043872526162
aF1.144487055103264
aF1.7271463055159324
aF0.6548343347339793
aF-0.9264721162584191
aF-0.2753683853258111
aF-0.21217491534120556
aF-0.2418966479440825
aF-0.42911894213029783
aF-0.16316830900934787
aF0.3636465701769176
aF0.7841558172844676
aF0.16271685580239348
aF-0.4466326422916991
aF0.08169904627471114
aF-0.5693848778941606
aF0.4884800539535268
aF3.8074632000004005
aF-0.5325338698642007
aF4.564977692634291
aF-5.585553946528909
aF6.477320339355125
aF1.05598007203748
aF4.0182362638774665
aF0.7508262651759607
aF-0.10907893502695652
aF0.9690972774709534
aF-0.5536397849136254
aF0.9872555551169566
aF0.013347210717417242
aF0.03132240338685022
aF0.4066762486400277
aF0.2575241798254846
aF0.11893516388170355
aF0.6244637353067308
aF0.622114511003891
aF-0.23437507706951788
aF0.027056081219775763
aF4.353652954288909
aF0.31434783345875206
aF3.6564834079165527
aF-3.157473003715483
aF8.965599042978212
aF3.5213010076150377
aF5.82631466984487
aF0.1413025027924497
aF-4.004345845399415
aF-0.4980976120604055
aF-2.2144471367084493
aF0.867116041761655
aF-1.2048591033082436
aF-0.2821285724968503
aF-0.12102016232860868
aF-0.5085109685069507
aF-0.5336620679731499
aF-0.9087851009186232
aF0.8973406302471985
aF-0.3294864137932867
aF0.864768872657816
aF21.000247972210644
aF-1.873070393562722
aF-0.8677186009908007
aF-0.19869173581167132
aF-3.9002409420905773
aF-1.2910898787506613
aF0.6048175915756571
aF-0.07855946583253193
aF0.49493954890496217
aF-0.42494103138774353
aF-0.10918968735569146
aF0.3758440925518267
aF-0.3778121741789069
aF-0.8728491719680411
aF-0.053282903345462485
aF0.8286097693626457
aF0.9582571621958862
aF0.09841020720444815
aF-0.2644360756591444
aF0.8408759929877467
aF0.13522300362081419
aF1.0468884449904985
aF0.3330999931412834
aF-0.37958371984985445
aF9.266696266152909
aF1.2352668630398231
aF0.24504103065554045
aF0.5405800413967694
aF0.34504136945620223
aF1.9869116568700713
aF-0.03742885725240108
aF-0.27539849784861936
aF0.010252525148795266
aF-1.4829815229591985
aF0.6616118301660967
aF-0.7914938414214161
aF-0.9469535691862458
aF-0.22933050295615565
aF0.26063704273086463
aF-0.28975365307388357
aF0.07993899219416534
aF0.8957071965824035
aF0.9863667381325926
aF0.22102702822867595
aF-0.8887504983235343
aF7.163454804942719
aF-0.19867806375957045
aF-0.6133420269040808
aF-0.7392203984639901
aF-0.45586120164240085
aF3.5764852304149675
aF-0.052827424213409024
aF1.049845849929835
aF0.24939867289479234
aF0.7173360383251844
aF0.8651783330708316
aF0.3742106426638623
aF-0.5621774760515585
aF-0.808917224285044
aF-0.1211830365334503
aF-0.2035695046584447
aF-0.09980946371884403
aF0.0366136609558938
aF2.1453435593717747
aF-3.0021827475757132
aF6.063762600505264
aF-4.857716217642236
aF0.04008396492085556
aF-0.3603639595626862
aF2.4873101550885246
aF-0.8849499575690829
aF2.9061239768801825
aF-0.7418967723788366
aF3.194961675340967
aF-0.30107213886419837
aF3.1701724997676597
aF-0.37459337167383344
aF-0.34023200757511707
aF-0.04029002071427312
aF-0.8185600494446366
aF-0.06924203796424311
aF-0.6128869507405423
aF0.8160551124287843
aF-0.1848790058108829
aF2.585197507927826
aF-2.2038476407178123
aF6.134929290045704
aF-1.3062465695262082
aF-0.6381016001102634
aF0.41067760477766013
aF2.3546267998102377
aF-0.32367930322632343
aF1.2607297927725827
aF0.3215103674755584
aF1.9765338803918246
aF-0.8738841925488474
aF1.7859683189421216
aF-0.07461180272686296
aF0.8240980506186273
aF0.6902532333844424
aF-0.874255989507623
aF0.18059379320851687
aF0.7249036594654434
aF0.009541807806631386
aF-0.8241459041062866
aF3.3889074206850447
aF-2.5442618976404296
aF8.422883748418995
aF2.041866492027468
aF-1.0003793522594222
aF-0.6027627372917069
aF0.45776586101780614
aF0.4934658922367039
aF-0.739984768315389
aF-0.9480226879717846
aF1.5291905240366501
aF-0.8961036793816666
aF0.5373856363782187
aF0.28420591078692015
aF0.9426254705910944
aF0.7975023288256002
aF-0.13345969498369592
aF-0.6191203665940193
aF0.14242927187681031
aF-0.6781659419508883
aF-0.0438778813746763
aF1.7548630354583552
aF-0.8350552971693608
aF1.5887187535882032
aF8.065910055775888
aF0.6205720994141755
aF-0.4986512754696418
aF-0.9827309413057675
aF0.2670781192532359
aF2.3437630640722933
aF0.5087105312683748
aF-0.19081054573375789
aF-0.938694407224341
aF-0.1612827666107482
aF-0.563257449073371
aF0.5895675721377609
aF0.64379795083114
aF-0.8211703363613396
aF0.2712349679188777
aF-0.5378418360877923
aF-0.2833224612421261
aF-0.9435064299233928
aF1.0807249059008472
aF-0.7467045404330372
aF0.5961827241975747
aF6.929458225757162
aF0.33582985069427584
aF0.15812934202938916
aF-0.16942814150570945
aF-0.5635940904595309
aF1.2773621581226313
aF0.593399415554769
aF0.8289098061520777
aF0.5710592070433078
aF1.3287077574302468
aF-0.7580651990437512
aF-0.6264221697964121
aF0.3594269188946748
aF-0.42181095076024255
aF-0.25676239749897656
aF-0.6630000721177927
aF0.18008972608614382
aF0.02853507284985346
aF2.010670715992374
aF-1.3524120356988103
aF4.750494268336951
aF-0.9972160804923166
aF-2.625963370207995
aF-0.22850521269502044
aF2.4825020440131023
aF-0.4748702696193565
aF1.967916881715101
aF0.563793652245205
aF3.1382451718582964
aF-0.37353514712931957
aF2.7999286644626915
aF0.2731998414100665
aF0.31889428990649393
aF0.47042662413539493
aF-0.6831056007420586
aF-0.7784507079097585
aF0.19756465339488294
aF0.010762849163941546
aF-0.897898676421583
aF2.4121312278794687
aF-1.8677771381369852
aF3.8780878455157892
aF1.9954799248343413
aF-1.339736662237494
aF0.1137300920788726
aF1.2880178007583059
aF0.24510759298286855
aF4.5160400741947875
aF-0.35555766668383115
aF2.932102924872713
aF-0.008380870743623037
aF1.1329378891252224
aF0.33358235588446683
aF-0.008975460434490268
aF-0.952331601243346
aF0.3312961351359378
aF-0.4940550858724033
aF0.16429486998409804
aF0.08852619585380972
aF-0.19112402201030743
aF1.734031753678961
aF-1.9824343515369538
aF4.430979631661121
aF3.476290326861765
aF-2.283899285453361
aF-1.5116238143731313
aF-1.2776792793287541
aF0.9738690460226216
aF5.2135629574359035
aF-0.030291574942290955
aF2.4245501751785596
aF0.9332353149913983
aF2.61700520922273
aF-0.5004621172652626
aF-0.11228743641342276
aF-0.8570080333113732
aF-0.24642167091086553
aF-0.7856409624378857
aF0.07378874518572132
aF0.6664348970945411
aF-0.378318961335127
aF2.0827210579702644
aF-0.8778732728100362
aF3.048503548031979
aF6.463864302304999
aF2.0234130352022457
aF0.7813012042662011
aF0.21737676917690907
aF0.1044839580795851
aF0.045373651111725435
aF-0.3651794921664915
aF0.22667492233809847
aF0.3588535467752032
aF-0.48854549300025524
aF0.8359852477952607
aF0.9485488786370697
aF-0.07832776316754075
aF0.542927301053207
aF0.577255077532046
aF-0.5623443618256614
aF-0.5944413188871223
aF0.10107323446272876
aF1.4150829770856432
aF-0.367634755263915
aF1.898142391772979
aF4.8835235409688025
aF1.3672508564522186
aF0.595292409566275
aF0.3469676597941618
aF0.37332370093882217
aF-1.3463570541185972
aF-0.34555896466283276
aF0.39817037128612104
aF0.6316651427868665
aF1.3840697085543108
aF-0.5271465983741663
aF0.780362348315965
aF-0.938912338099982
aF0.04287992975722732
aF0.5691419627972574
aF-0.13996588309253788
aF-0.9892671060923655
aF-0.28475149655002174
asS'_inputs'
p4
I608
sb.