(lp0
(lp1
F4.469220131274516
aF5.865017721066229
aF4.781351372091371
aF4.744975877938479
aF4.74027150030934
aF4.792668766897915
aF9.883505017660354
aa(lp2
F6.306480587824707
aF5.677273243237493
aF5.729797950866585
aF5.744360173384969
aF7.642892600053482
aF5.6657900821725
aF12.406975296147264
aa(lp3
F2.8776620421099057
aF1.7946616040217378
aF2.890338481656247
aF15.335053644518506
aF2.8802679958420656
aF2.8664831912795252
aF2.216076467732675
aa(lp4
F4.977551432313402
aF7.102023726737698
aF4.335450525214553
aF4.300451204087196
aF4.811461557943581
aF4.292482342558048
aF14.449419294952856
aa(lp5
F5.81027152589739
aF6.363068532834103
aF6.575058785164165
aF6.269935185501442
aF6.3878087951397875
aF2.851828558558987
aF15.915226395557273
aa(lp6
F-0.2
aF0.0
aF7.962273765079966
aF0.9767832760755039
aF2.3266412612981364
aF1.060877321188408
aF-0.10431880914942349
aa(lp7
F1.0430728291549531
aF3.165633004747858
aF1.3265471077015358
aF9.365540616688865
aF-0.16332555497196052
aF1.5335493489000138
aF1.2729411719712818
aa(lp8
F0.9486883106280134
aF3.404336127959081
aF2.976988168351627
aF9.132437494899492
aF-0.21668549381127522
aF3.0911978275229606
aF-1.0
aa(lp9
F-0.2
aF0.0
aF8.552043927138222
aF0.0
aF-1.0
aF0.0
aF0.0
aa(lp10
F19.695731100052605
aF10.840845005694483
aF6.19274585045802
aF9.024784489170475
aF10.740656104081125
aF7.705396288574704
aF9.325135220994182
aa(lp11
F22.27434789980408
aF15.347719575420104
aF5.579858599286727
aF7.010897801210915
aF7.350579885698145
aF9.844340159716605
aF6.4025204326022624
aa(lp12
F20.20100049789322
aF0.0
aF0.0
aF0.0
aF0.0
aF0.0
aF0.0
aa(lp13
F22.091792653468822
aF8.655965336155942
aF5.369063006890068
aF6.288934145218132
aF13.021607252910599
aF6.298105122715684
aF9.485831593744779
aa(lp14
F24.099251056282487
aF8.019533444986754
aF2.3225875139791046
aF1.4580436704002813
aF0.8575135264227357
aF8.881013649847144
aF10.694562216074688
aa(lp15
F3.639929948240823
aF-0.804620464977512
aF13.478115387585225
aF0.0
aF0.0
aF0.7688684186836988
aF0.7812701810201091
aa(lp16
F3.677469277402693
aF1.9476887078984715
aF4.130349682652589
aF12.552361979804733
aF1.4837872422790939
aF0.0
aF3.7139514213574305
aa(lp17
F0.0
aF3.2813759246719822
aF4.155615588773321
aF10.664030699774049
aF0.4706942200331449
aF3.3470501588434765
aF3.5684183357355916
aa(lp18
F16.755991411023697
aF0.0
aF0.0
aF0.0
aF0.0
aF0.0
aF-0.05091331480802852
aa(lp19
F0.0
aF0.0
aF0.0
aF0.0
aF0.0
aF0.0
aF0.0
aa(lp20
F0.0
aF0.0
aF0.0
aF0.0
aF0.0
aF0.0
aF0.0
aa(lp21
F0.0
aF0.0
aF0.0
aF0.0
aF0.0
aF0.0
aF0.0
aa(lp22
F0.0
aF0.0
aF0.0
aF0.0
aF0.0
aF0.0
aF0.0
aa(lp23
F0.0
aF0.0
aF0.0
aF0.0
aF0.0
aF0.0
aF0.0
aa(lp24
F0.0
aF0.0
aF0.0
aF0.0
aF0.0
aF0.0
aF0.0
aa(lp25
F0.0
aF0.0
aF0.0
aF0.0
aF0.0
aF0.0
aF0.0
aa(lp26
F0.0
aF0.0
aF0.0
aF0.0
aF0.0
aF0.0
aF0.0
aa(lp27
F0.0
aF0.0
aF0.0
aF0.0
aF0.0
aF0.0
aF0.0
aa(lp28
F6.935634698297331
aF7.140917352375082
aF7.401844184756192
aF6.459264187023256
aF6.116501072444237
aF6.138070875948341
aF12.294457948014562
aa(lp29
F6.311514336907087
aF9.174719911516727
aF5.304507241894003
aF6.239517624616043
aF5.806983031449908
aF9.181185249056423
aF15.691095421128072
aa(lp30
F9.74120432305406
aF-1.726970771863959
aF0.12429667563328897
aF26.49578013697267
aF0.2820260531726644
aF4.882926190465601
aF0.0
aa(lp31
F8.406599248101891
aF4.897963207274801
aF7.000548388594264
aF7.423356645577487
aF9.22669565227841
aF5.590315001678748
aF17.467656064591836
aa(lp32
F4.851161613837672
aF12.372678359402883
aF3.1718631003685283
aF4.822312446871839
aF10.793623603293703
aF4.316018519464229
aF18.870816523587788
aa(lp33
F0.0
aF-1.3147907655513704
aF0.4892996863866435
aF0.0
aF0.0
aF0.0
aF13.874808526962072
aa(lp34
F0.0
aF0.0
aF0.0
aF16.357963832897127
aF0.0
aF0.0
aF0.0
aa(lp35
F0.0
aF0.0
aF0.0
aF17.039384626590717
aF0.0
aF0.0
aF-0.9772193097359502
aa(lp36
F-0.2
aF-1.0
aF0.0
aF21.60607085270495
aF0.0
aF0.0
aF-1.0
aa(lp37
F22.044382643936864
aF11.84335129882241
aF2.63515206991094
aF12.013929094189702
aF2.5913042586974044
aF6.563820672487692
aF5.506358551549873
aa(lp38
F24.70321587301505
aF0.0
aF5.690562853971725
aF4.742211806757264
aF0.0
aF10.674310592635802
aF4.83568730104757
aa(lp39
F31.33552721212644
aF-1.0
aF0.0
aF0.0
aF0.0
aF0.0
aF-1.0
aa(lp40
F24.972619543913147
aF3.4974985829991514
aF0.0
aF6.4848499180300125
aF7.447243513335941
aF0.0
aF5.8810173941223
aa(lp41
F26.757432976276704
aF0.0
aF0.0
aF2.2234714676805662
aF0.0
aF2.813070371979497
aF4.281304291426476
aa(lp42
F5.298173514860371
aF-0.8209724701165748
aF1.3986484412579818
aF1.880369525181336
aF18.453119327897795
aF0.0
aF1.3629005164458008
aa(lp43
F0.0
aF0.0
aF0.0
aF22.737465498715306
aF0.0
aF0.0
aF0.0
aa(lp44
F0.0
aF0.0
aF0.0
aF19.9845021987282
aF-1.0
aF0.0
aF-1.0
aa(lp45
F0.0
aF-1.0
aF7.2855411756716775
aF0.0
aF0.0
aF0.0
aF0.0
aa(lp46
F0.0
aF0.0
aF0.0
aF0.0
aF0.0
aF0.0
aF0.0
aa(lp47
F0.0
aF0.0
aF0.0
aF0.0
aF0.0
aF0.0
aF0.0
aa(lp48
F0.0
aF0.0
aF0.0
aF0.0
aF0.0
aF0.0
aF0.0
aa(lp49
F0.0
aF0.0
aF0.0
aF0.0
aF0.0
aF0.0
aF0.0
aa(lp50
F0.0
aF0.0
aF0.0
aF0.0
aF0.0
aF0.0
aF0.0
aa(lp51
F0.0
aF0.0
aF0.0
aF0.0
aF0.0
aF0.0
aF0.0
aa(lp52
F0.0
aF0.0
aF0.0
aF0.0
aF0.0
aF0.0
aF0.0
aa(lp53
F0.0
aF0.0
aF0.0
aF0.0
aF0.0
aF0.0
aF0.0
aa(lp54
F0.0
aF0.0
aF0.0
aF0.0
aF0.0
aF0.0
aF0.0
aa(lp55
F3.120037401843584
aF3.3705067601013505
aF3.37347574026928
aF1.3355844036794933
aF9.650897807957564
aF1.5492066411734577
aF3.950224660819174
aa(lp56
F-0.2
aF16.28202816954083
aF0.0
aF-1.0
aF6.948137491155967
aF0.0
aF2.2567723392623185
aa(lp57
F1.0044747445122642
aF-0.18305407833098553
aF11.875376479044798
aF0.02474417082428637
aF2.2917425287044138
aF0.0
aF0.275930808594367
aa(lp58
F0.0679899066589007
aF0.9888737025210812
aF3.0344434505109454
aF-1.0
aF18.746293580647254
aF3.8387795424200695
aF0.17283676025148334
aa(lp59
F0.3504832984399624
aF0.0
aF3.4514099749674796
aF-1.0
aF16.5934779755026
aF0.0
aF-1.0
aa(lp60
F0.0
aF-1.0
aF0.0
aF-1.0
aF13.910060687962865
aF0.0
aF0.0
aa(lp61
F0.0
aF0.0
aF0.0
aF0.0
aF0.0
aF0.0
aF0.0
aa(lp62
F0.0
aF0.0
aF0.0
aF0.0
aF0.0
aF0.0
aF0.0
aa(lp63
F0.0
aF0.0
aF0.0
aF0.0
aF0.0
aF0.0
aF0.0
aa(lp64
F19.1807990738752
aF0.0
aF2.483311537798863
aF1.4468291460504112
aF0.0
aF3.440241494538663
aF1.695590518712103
aa(lp65
F4.655274626838483
aF19.920092504357402
aF0.0
aF-1.0
aF2.277720815127506
aF0.0
aF-1.0
aa(lp66
F19.93536072950606
aF0.0
aF0.0
aF-1.0
aF0.0
aF0.0
aF-1.0
aa(lp67
F29.09892145115588
aF0.0
aF0.0
aF4.157952661927439
aF0.0
aF0.0
aF0.0
aa(lp68
F0.0
aF3.200680493688352
aF0.0
aF0.0
aF0.0
aF0.0
aF17.252157061943873
aa(lp69
F0.0
aF0.0
aF0.0
aF0.0
aF19.716213109856117
aF0.0
aF0.0
aa(lp70
F0.0
aF0.0
aF0.0
aF0.0
aF0.0
aF0.0
aF0.0
aa(lp71
F0.0
aF0.0
aF0.0
aF0.0
aF0.0
aF0.0
aF0.0
aa(lp72
F0.0
aF0.0
aF0.0
aF0.0
aF0.0
aF0.0
aF0.0
aa(lp73
F0.0
aF0.0
aF0.0
aF0.0
aF0.0
aF0.0
aF0.0
aa(lp74
F0.0
aF0.0
aF0.0
aF0.0
aF0.0
aF0.0
aF0.0
aa(lp75
F0.0
aF0.0
aF0.0
aF0.0
aF0.0
aF0.0
aF0.0
aa(lp76
F0.0
aF0.0
aF0.0
aF0.0
aF0.0
aF0.0
aF0.0
aa(lp77
F0.0
aF0.0
aF0.0
aF0.0
aF0.0
aF0.0
aF0.0
aa(lp78
F0.0
aF0.0
aF0.0
aF0.0
aF0.0
aF0.0
aF0.0
aa(lp79
F0.0
aF0.0
aF0.0
aF0.0
aF0.0
aF0.0
aF0.0
aa(lp80
F0.0
aF0.0
aF0.0
aF0.0
aF0.0
aF0.0
aF0.0
aa(lp81
F0.0
aF0.0
aF0.0
aF0.0
aF0.0
aF0.0
aF0.0
aa(lp82
F12.711614800067393
aF10.54770196060309
aF22.446375988717122
aF10.475983174408682
aF10.986305934572561
aF13.91223892938729
aF5.069532026746392
aa(lp83
F5.76507487659849
aF2.1108012541968275
aF17.679575779437364
aF3.2959540824194904
aF0.0
aF5.029655206421706
aF11.191707491552402
aa(lp84
F0.8480000843868161
aF-0.7891543117383444
aF0.0
aF14.893499578137154
aF4.221155479048485
aF0.0
aF-0.8911192718305136
aa(lp85
F9.667317821064763
aF7.513822287774955
aF21.254152899990057
aF7.203513017353773
aF12.904459986171826
aF9.432607481436323
aF5.457044748456774
aa(lp86
F-0.2
aF4.195681538779457
aF5.796008655803241
aF0.2049816878179466
aF0.0
aF1.6823897393754093
aF15.868353549530038
aa(lp87
F0.0
aF0.0
aF0.0
aF16.100749940386955
aF0.0
aF0.0
aF0.0
aa(lp88
F0.17080339051855944
aF2.6203439213685384
aF0.0
aF9.092104804870281
aF0.0
aF0.0
aF0.0
aa(lp89
F3.228666288681383
aF2.409515766359281
aF13.892574969463496
aF0.3468767215496344
aF-0.7897822716156314
aF2.898250636910028
aF2.6176372868170814
aa(lp90
F-0.2
aF-1.0
aF10.27058690108333
aF0.0
aF-1.0
aF0.0
aF0.0
aa(lp91
F28.81746965943381
aF6.803162664182482
aF2.730253838802102
aF9.979207122392246
aF4.971222870601649
aF8.561135829856296
aF4.275735627812951
aa(lp92
F5.033859129875916
aF5.311248794265717
aF7.858453920498373
aF7.046132758444392
aF2.6422657871855346
aF2.653528473208823
aF19.186776841689188
aa(lp93
F24.140272147557397
aF0.0
aF0.0
aF0.0
aF0.0
aF0.0
aF0.0
aa(lp94
F28.529439564346383
aF3.571443008162744
aF4.561951567968611
aF0.20320062835157343
aF0.0
aF8.885105723520567
aF5.111380700627046
aa(lp95
F25.058071823433
aF4.807440122284458
aF0.0
aF6.808639404174521
aF3.107144826841801
aF0.0
aF2.6982081788815986
aa(lp96
F0.0
aF0.0
aF0.0
aF2.822253966671687
aF0.0
aF0.7116548122413195
aF16.44974843920113
aa(lp97
F17.988715014751232
aF0.6666033372603523
aF5.872419317632948
aF3.6252950685905336
aF2.2762126476648215
aF1.4510108227609517
aF-0.5187735983959569
aa(lp98
F20.740312954714554
aF0.0
aF0.0
aF0.0
aF0.0
aF3.7832186442659146
aF0.0
aa(lp99
F0.0
aF0.0
aF12.58723312814684
aF0.0
aF0.0
aF0.0
aF0.0
aa(lp100
F0.0
aF0.0
aF0.0
aF0.0
aF0.0
aF0.0
aF0.0
aa(lp101
F0.0
aF0.0
aF0.0
aF0.0
aF0.0
aF0.0
aF0.0
aa(lp102
F0.0
aF0.0
aF0.0
aF0.0
aF0.0
aF0.0
aF0.0
aa(lp103
F0.0
aF0.0
aF0.0
aF0.0
aF0.0
aF0.0
aF0.0
aa(lp104
F0.0
aF0.0
aF0.0
aF0.0
aF0.0
aF0.0
aF0.0
aa(lp105
F0.0
aF0.0
aF0.0
aF0.0
aF0.0
aF0.0
aF0.0
aa(lp106
F0.0
aF0.0
aF0.0
aF0.0
aF0.0
aF0.0
aF0.0
aa(lp107
F0.0
aF0.0
aF0.0
aF0.0
aF0.0
aF0.0
aF0.0
aa(lp108
F0.0
aF0.0
aF0.0
aF0.0
aF0.0
aF0.0
aF0.0
aa(lp109
F3.128209117250387
aF3.7318830588768885
aF17.63076200841117
aF2.7590557056469494
aF0.7086159056559465
aF2.8906862262994295
aF0.0
aa(lp110
F-0.2
aF3.722727794598364
aF18.37482280724369
aF1.3274532820756004
aF2.2051815276314612
aF0.0
aF4.343875878405711
aa(lp111
F-0.2
aF-1.0
aF5.142819196419607
aF25.90210757243578
aF0.0
aF4.347428769701701
aF-0.7121533732850631
aa(lp112
F4.002681604588641
aF3.1639160189808306
aF21.580777432886883
aF0.7110015043605178
aF6.33271012490353
aF8.178816248345218
aF4.912151377861847
aa(lp113
F-0.2
aF0.0
aF19.817711738675783
aF0.0
aF0.1526374217445216
aF0.0
aF0.010321370460419522
aa(lp114
F0.0
aF0.0
aF0.0
aF0.0
aF0.0
aF0.0
aF18.781216295441038
aa(lp115
F0.0
aF2.8902717600773853
aF18.54842361445212
aF0.0
aF-0.7877628774436446
aF0.05803018233090001
aF0.0
aa(lp116
F0.0
aF0.009444053310377936
aF0.0
aF16.631695518259978
aF0.0
aF0.0
aF0.0
aa(lp117
F-0.2
aF-1.0
aF11.105911721473724
aF0.0
aF-1.0
aF0.0
aF-0.7314722968561136
aa(lp118
F0.0
aF5.7247542385957315
aF3.3543740769784933
aF0.0
aF2.2301203542684926
aF0.0
aF20.250613303834815
aa(lp119
F11.93138895221762
aF0.0
aF2.9530841849317966
aF0.5455657986719022
aF2.38336677460122
aF0.0
aF18.12671938165445
aa(lp120
F32.907402828070694
aF0.0
aF6.66956390507009
aF0.0
aF0.0
aF0.0
aF0.0
aa(lp121
F29.871208376286575
aF0.0
aF3.2755764800249434
aF0.0
aF7.4546825067782265
aF0.0
aF0.0
aa(lp122
F27.659928015743255
aF0.0
aF0.0
aF0.0
aF0.0
aF0.0
aF0.0
aa(lp123
F0.0
aF2.3931610821858125
aF17.8098042338039
aF0.0
aF0.0
aF0.0
aF0.0
aa(lp124
F0.0
aF0.0
aF0.42781277821521596
aF22.874250687007017
aF0.0
aF0.0
aF0.0
aa(lp125
F25.174368968426887
aF0.0
aF0.0
aF0.0
aF0.0
aF0.0
aF0.0
aa(lp126
F19.54109076881826
aF0.0
aF0.0
aF0.0
aF-1.0
aF0.0
aF0.0
aa(lp127
F0.0
aF0.0
aF0.0
aF0.0
aF0.0
aF0.0
aF0.0
aa(lp128
F0.0
aF0.0
aF0.0
aF0.0
aF0.0
aF0.0
aF0.0
aa(lp129
F0.0
aF0.0
aF0.0
aF0.0
aF0.0
aF0.0
aF0.0
aa(lp130
F0.0
aF0.0
aF0.0
aF0.0
aF0.0
aF0.0
aF0.0
aa(lp131
F0.0
aF0.0
aF0.0
aF0.0
aF0.0
aF0.0
aF0.0
aa(lp132
F0.0
aF0.0
aF0.0
aF0.0
aF0.0
aF0.0
aF0.0
aa(lp133
F0.0
aF0.0
aF0.0
aF0.0
aF0.0
aF0.0
aF0.0
aa(lp134
F0.0
aF0.0
aF0.0
aF0.0
aF0.0
aF0.0
aF0.0
aa(lp135
F0.0
aF0.0
aF0.0
aF0.0
aF0.0
aF0.0
aF0.0
aa(lp136
F6.36163400216884
aF1.0815776882636676
aF21.648908735750474
aF5.582697000560005
aF1.6392486264164814
aF0.0
aF0.0
aa(lp137
F1.4377429181569021
aF0.0
aF0.0
aF0.0
aF11.458062157880626
aF1.8573138475173914
aF0.0
aa(lp138
F0.0
aF0.0
aF21.73432656379347
aF0.0
aF0.0
aF0.0
aF0.0
aa(lp139
F2.7385259304407024
aF0.0
aF0.0
aF0.0
aF5.1813579559816345
aF5.235877828838358
aF19.8183013131407
aa(lp140
F0.0
aF0.0
aF0.0
aF0.0
aF19.001036099087116
aF0.0
aF0.0
aa(lp141
F0.0
aF0.0
aF0.0
aF0.0
aF0.0
aF0.0
aF12.765588454394981
aa(lp142
F0.0
aF0.0
aF0.0
aF0.0
aF0.0
aF0.0
aF0.0
aa(lp143
F0.0
aF0.0
aF0.0
aF0.0
aF0.0
aF0.0
aF0.0
aa(lp144
F0.0
aF0.0
aF0.0
aF0.0
aF0.0
aF0.0
aF0.0
aa(lp145
F30.365131149502577
aF4.066548718080286
aF7.462846293364237
aF4.326265371755418
aF4.382284299368568
aF5.594913135137817
aF4.324777730677833
aa(lp146
F3.814352248721532
aF0.0
aF2.8210614515794044
aF1.579788700348807
aF12.277452659606386
aF0.0
aF6.321336094101198
aa(lp147
F30.730456134072725
aF0.0
aF0.0
aF-1.0
aF0.0
aF0.0
aF0.0
aa(lp148
F25.538704467771712
aF0.0
aF0.0
aF0.0
aF4.055495280936664
aF0.0
aF2.5447501271899347
aa(lp149
F4.491052127537768
aF0.0
aF4.372491947982975
aF-1.0
aF20.971795662141396
aF0.0
aF-0.5663390277084134
aa(lp150
F21.422822263597503
aF0.0
aF0.0
aF0.0
aF0.0
aF0.0
aF0.0
aa(lp151
F0.0
aF0.0
aF0.0
aF0.0
aF0.0
aF0.0
aF0.0
aa(lp152
F0.0
aF0.0
aF0.0
aF0.0
aF0.0
aF0.0
aF0.0
aa(lp153
F0.0
aF0.0
aF0.0
aF0.0
aF0.0
aF0.0
aF0.0
aa(lp154
F0.0
aF0.0
aF0.0
aF0.0
aF0.0
aF0.0
aF0.0
aa(lp155
F0.0
aF0.0
aF0.0
aF0.0
aF0.0
aF0.0
aF0.0
aa(lp156
F0.0
aF0.0
aF0.0
aF0.0
aF0.0
aF0.0
aF0.0
aa(lp157
F0.0
aF0.0
aF0.0
aF0.0
aF0.0
aF0.0
aF0.0
aa(lp158
F0.0
aF0.0
aF0.0
aF0.0
aF0.0
aF0.0
aF0.0
aa(lp159
F0.0
aF0.0
aF0.0
aF0.0
aF0.0
aF0.0
aF0.0
aa(lp160
F0.0
aF0.0
aF0.0
aF0.0
aF0.0
aF0.0
aF0.0
aa(lp161
F0.0
aF0.0
aF0.0
aF0.0
aF0.0
aF0.0
aF0.0
aa(lp162
F0.0
aF0.0
aF0.0
aF0.0
aF0.0
aF0.0
aF0.0
aa(lp163
F3.710781369445535
aF8.843313253191141
aF1.9888133965332273
aF3.178901866230375
aF5.8628414075541455
aF3.174950653581196
aF4.80028496917233
aa(lp164
F-0.2
aF20.6350239022315
aF-1.0
aF1.2597418670268805
aF5.990000280601809
aF2.5781397158515054
aF0.0
aa(lp165
F0.0
aF0.0
aF0.0
aF0.0
aF0.0
aF0.0
aF0.0
aa(lp166
F3.119916767139057
aF8.654146627134335
aF3.0631627821939706
aF5.389519396129494
aF4.8688077365021165
aF3.835764418825174
aF3.9914448292585827
aa(lp167
F0.0
aF20.61985006352853
aF0.0
aF0.0
aF3.9232586773704172
aF0.0
aF0.0
aa(lp168
F0.0
aF0.0
aF0.0
aF0.0
aF0.0
aF0.0
aF0.0
aa(lp169
F2.8097969259611917
aF8.299148148484104
aF-0.023002248839020467
aF1.9313859307413543
aF0.0
aF3.4901404441153874
aF1.3016655290640948
aa(lp170
F1.4391968428871795
aF6.756059189979048
aF-1.0
aF1.4520414226534282
aF0.4670604788505892
aF0.011848949433664865
aF-1.0
aa(lp171
F0.0
aF0.0
aF0.0
aF0.0
aF0.0
aF0.0
aF0.0
aa(lp172
F18.37038742003786
aF6.502279417847822
aF0.0
aF3.4278955322090177
aF0.0
aF5.32485444720353
aF5.944057757682323
aa(lp173
F28.10132940795798
aF3.1385896084090232
aF0.0
aF0.0
aF0.0
aF0.0
aF0.0
aa(lp174
F0.0
aF0.0
aF0.0
aF0.0
aF0.0
aF0.0
aF0.0
aa(lp175
F19.498039637672676
aF8.282711445771874
aF5.660138579135049
aF4.875868006830986
aF4.983995263033819
aF8.20971706919353
aF7.41192575187297
aa(lp176
F28.194807326120245
aF0.0
aF3.631921752137189
aF1.7169787000771888
aF0.0
aF0.0
aF0.0
aa(lp177
F0.0
aF0.0
aF0.0
aF0.0
aF0.0
aF0.0
aF0.0
aa(lp178
F17.566731585684394
aF0.0
aF0.0
aF0.0
aF0.0
aF0.0
aF-0.07775361174005979
aa(lp179
F0.0
aF0.6891676489443794
aF0.3732186146903807
aF4.816272800021372
aF0.5879761909291376
aF0.0
aF0.0
aa(lp180
F0.0
aF0.0
aF0.0
aF0.0
aF0.0
aF0.0
aF0.0
aa(lp181
F0.0
aF0.0
aF0.0
aF0.0
aF0.0
aF0.0
aF0.0
aa(lp182
F0.0
aF0.0
aF0.0
aF0.0
aF0.0
aF0.0
aF0.0
aa(lp183
F0.0
aF0.0
aF0.0
aF0.0
aF0.0
aF0.0
aF0.0
aa(lp184
F0.0
aF0.0
aF0.0
aF0.0
aF0.0
aF0.0
aF0.0
aa(lp185
F0.0
aF0.0
aF0.0
aF0.0
aF0.0
aF0.0
aF0.0
aa(lp186
F0.0
aF0.0
aF0.0
aF0.0
aF0.0
aF0.0
aF0.0
aa(lp187
F0.0
aF0.0
aF0.0
aF0.0
aF0.0
aF0.0
aF0.0
aa(lp188
F0.0
aF0.0
aF0.0
aF0.0
aF0.0
aF0.0
aF0.0
aa(lp189
F0.0
aF0.0
aF0.0
aF0.0
aF0.0
aF0.0
aF0.0
aa(lp190
F0.0
aF2.7070552578733076
aF0.0
aF17.725371745641635
aF0.0
aF5.912163783196499
aF0.0
aa(lp191
F0.0
aF19.364088170902022
aF0.0
aF0.0
aF1.7335827629860003
aF0.0
aF0.0
aa(lp192
F0.0
aF0.0
aF0.0
aF0.0
aF0.0
aF0.0
aF0.0
aa(lp193
F0.0
aF2.668515621849123
aF-1.0
aF19.16361180967494
aF0.0
aF0.0
aF0.0
aa(lp194
F0.0
aF20.254347165990282
aF0.0
aF0.0
aF0.0
aF0.0
aF0.0
aa(lp195
F0.0
aF0.0
aF0.0
aF0.0
aF0.0
aF0.0
aF0.0
aa(lp196
F0.0
aF10.518855998371041
aF0.0
aF0.0
aF-1.0
aF0.0
aF0.0
aa(lp197
F0.0
aF0.0
aF-1.0
aF18.861000073711036
aF-1.0
aF0.0
aF-1.0
aa(lp198
F0.0
aF0.0
aF0.0
aF0.0
aF0.0
aF0.0
aF0.0
aa(lp199
F4.810815596153737
aF0.0
aF0.0
aF19.31054163854442
aF0.0
aF2.7048283019676838
aF1.4627842874841381
aa(lp200
F27.634007947610947
aF0.0
aF-1.0
aF0.0
aF0.0
aF5.000430116039612
aF0.0
aa(lp201
F0.0
aF0.0
aF0.0
aF0.0
aF0.0
aF0.0
aF0.0
aa(lp202
F4.324018937355553
aF1.2361486970407067
aF-1.0
aF18.71739622706168
aF3.153052851641933
aF2.6804579639564587
aF1.9470911699909543
aa(lp203
F5.315111693393949
aF18.492524298571645
aF0.0
aF0.0
aF0.0
aF3.0420016051377483
aF0.22602482951909664
aa(lp204
F0.0
aF0.0
aF0.0
aF0.0
aF0.0
aF0.0
aF0.0
aa(lp205
F0.0
aF0.0
aF-1.0
aF18.634894855017045
aF-1.0
aF0.0
aF0.0
aa(lp206
F0.0
aF0.0
aF-1.0
aF16.215071522255478
aF-1.0
aF0.0
aF0.0
aa(lp207
F0.0
aF0.0
aF0.0
aF0.0
aF0.0
aF0.0
aF0.0
aa(lp208
F0.0
aF0.0
aF0.0
aF0.0
aF0.0
aF0.0
aF0.0
aa(lp209
F0.0
aF0.0
aF0.0
aF0.0
aF0.0
aF0.0
aF0.0
aa(lp210
F0.0
aF0.0
aF0.0
aF0.0
aF0.0
aF0.0
aF0.0
aa(lp211
F0.0
aF0.0
aF0.0
aF0.0
aF0.0
aF0.0
aF0.0
aa(lp212
F0.0
aF0.0
aF0.0
aF0.0
aF0.0
aF0.0
aF0.0
aa(lp213
F0.0
aF0.0
aF0.0
aF0.0
aF0.0
aF0.0
aF0.0
aa(lp214
F0.0
aF0.0
aF0.0
aF0.0
aF0.0
aF0.0
aF0.0
aa(lp215
F0.0
aF0.0
aF0.0
aF0.0
aF0.0
aF0.0
aF0.0
aa(lp216
F0.0
aF0.0
aF0.0
aF0.0
aF0.0
aF0.0
aF0.0
aa(lp217
F1.0970675982178115
aF3.486066868916178
aF0.0
aF0.0
aF8.889051446557708
aF0.0
aF0.0
aa(lp218
F0.0
aF0.0
aF-1.0
aF-1.0
aF9.231859718764227
aF0.0
aF-1.0
aa(lp219
F0.0
aF0.0
aF0.0
aF0.0
aF0.0
aF0.0
aF0.0
aa(lp220
F-0.10777046991551302
aF8.87918963355529
aF-1.4558814516197642
aF0.0
aF0.0
aF0.0
aF0.0
aa(lp221
F-0.2
aF0.0
aF0.0
aF0.0
aF17.140640448418946
aF0.0
aF-1.0
aa(lp222
F0.0
aF0.0
aF0.0
aF0.0
aF0.0
aF0.0
aF0.0
aa(lp223
F0.0
aF0.0
aF0.0
aF0.0
aF0.0
aF0.0
aF0.0
aa(lp224
F0.0
aF0.0
aF0.0
aF0.0
aF0.0
aF0.0
aF0.0
aa(lp225
F0.0
aF0.0
aF0.0
aF0.0
aF0.0
aF0.0
aF0.0
aa(lp226
F18.020630310814653
aF0.0
aF0.0
aF2.1238039844175627
aF0.0
aF0.0
aF1.9306110041398659
aa(lp227
F0.0
aF16.930435129243804
aF-1.0
aF-1.0
aF0.0
aF0.0
aF-0.12261956206485003
aa(lp228
F0.0
aF0.0
aF0.0
aF0.0
aF0.0
aF0.0
aF0.0
aa(lp229
F18.619545419563927
aF3.38866800024822
aF0.0
aF-1.0
aF0.0
aF0.0
aF-1.0
aa(lp230
F25.683577866045717
aF0.0
aF-1.0
aF-1.0
aF0.0
aF0.0
aF0.0
aa(lp231
F0.0
aF0.0
aF0.0
aF0.0
aF0.0
aF0.0
aF0.0
aa(lp232
F0.0
aF0.0
aF0.0
aF0.0
aF0.0
aF0.0
aF0.0
aa(lp233
F0.0
aF0.0
aF0.0
aF0.0
aF0.0
aF0.0
aF0.0
aa(lp234
F0.0
aF0.0
aF0.0
aF0.0
aF0.0
aF0.0
aF0.0
aa(lp235
F0.0
aF0.0
aF0.0
aF0.0
aF0.0
aF0.0
aF0.0
aa(lp236
F0.0
aF0.0
aF0.0
aF0.0
aF0.0
aF0.0
aF0.0
aa(lp237
F0.0
aF0.0
aF0.0
aF0.0
aF0.0
aF0.0
aF0.0
aa(lp238
F0.0
aF0.0
aF0.0
aF0.0
aF0.0
aF0.0
aF0.0
aa(lp239
F0.0
aF0.0
aF0.0
aF0.0
aF0.0
aF0.0
aF0.0
aa(lp240
F0.0
aF0.0
aF0.0
aF0.0
aF0.0
aF0.0
aF0.0
aa(lp241
F0.0
aF0.0
aF0.0
aF0.0
aF0.0
aF0.0
aF0.0
aa(lp242
F0.0
aF0.0
aF0.0
aF0.0
aF0.0
aF0.0
aF0.0
aa(lp243
F0.0
aF0.0
aF0.0
aF0.0
aF0.0
aF0.0
aF0.0
aa.