(lp0
(lp1
F4.082042505282754
aF5.380392112543088
aF5.3898819243856915
aF5.3885503388753335
aF6.048787809294536
aF5.321597606635358
aF5.3815083824419325
aa(lp2
F14.790918883307267
aF25.131285868856
aF13.4472232266839
aF13.517811560529088
aF16.25969881821242
aF15.806688582762142
aF13.710417870655885
aa(lp3
F2.308539718737623
aF1.908038810536241
aF6.597731245924564
aF2.362685882541345
aF3.446694657163264
aF1.860161800679593
aF2.3290223711326865
aa(lp4
F15.128174005489626
aF12.637760361086688
aF17.378165681030072
aF13.795796790071812
aF22.850293563006122
aF13.794439924269266
aF14.152648523381249
aa(lp5
F19.43346951334896
aF18.38467493025059
aF17.467045063355425
aF17.189814331236665
aF25.12843719966283
aF18.2423050060024
aF15.065660979457046
aa(lp6
F13.730336923443712
aF13.444390400285002
aF11.975335295691348
aF13.44539337890421
aF20.7463507896176
aF14.799142645230784
aF14.145098332747114
aa(lp7
F1.256932007330715
aF3.6727889450190245
aF7.442005467949882
aF3.6423185990587146
aF1.6386563478521143
aF1.4621249859697285
aF1.2781768085048764
aa(lp8
F13.028859182756129
aF24.280798029205226
aF8.148594822412576
aF12.61736893710398
aF11.313763093489964
aF13.397738032743051
aF12.300437020458023
aa(lp9
F1.8265119712454556
aF1.204703617894279
aF2.005478950719884
aF11.108271136469924
aF1.6625514123735747
aF2.006545657499066
aF1.2903572410131003
aa(lp10
F22.380906425547135
aF17.335384802210285
aF16.42336815354088
aF15.820381121465896
aF17.92674196522882
aF16.663740412849762
aF17.93446092936433
aa(lp11
F34.75408543449757
aF27.98686187624852
aF24.59153011276061
aF25.018188310098935
aF22.937718720398294
aF27.97651104155497
aF25.140875618758752
aa(lp12
F17.93825096753942
aF11.435056440091993
aF13.922001726350098
aF13.82396306954392
aF14.078405011566701
aF13.944673139691819
aF13.950489868875268
aa(lp13
F34.32407221924121
aF23.268975502865064
aF22.900111211452423
aF23.539266692933005
aF27.81129610233203
aF27.586073910996745
aF26.19346394321625
aa(lp14
F33.09963517748664
aF29.095025406682577
aF24.71904196149165
aF22.882677198855408
aF28.640930262508736
aF28.939646669428654
aF25.811708777637445
aa(lp15
F31.19162908481594
aF20.560272150115345
aF22.257488164115827
aF18.72196454276943
aF24.667454903556433
aF22.81144709927502
aF22.057403837058796
aa(lp16
F19.989573089298617
aF14.274315994326342
aF15.804234043340621
aF13.847351890788065
aF11.862294647903722
aF13.96072498186802
aF14.27301341674397
aa(lp17
F31.08556253644654
aF23.469528050610368
aF17.743086028895622
aF20.577928036496075
aF17.206815660575806
aF19.231646232732214
aF17.35262043531224
aa(lp18
F18.890303101521113
aF4.1829862396301145
aF14.13880977828656
aF9.026991961266202
aF4.844506649045679
aF9.167093172333317
aF8.868709692058472
aa(lp19
F0.0
aF0.0
aF0.0
aF0.0
aF0.0
aF0.0
aF0.0
aa(lp20
F0.0
aF0.0
aF0.0
aF0.0
aF0.0
aF0.0
aF0.0
aa(lp21
F0.0
aF0.0
aF0.0
aF0.0
aF0.0
aF0.0
aF0.0
aa(lp22
F0.0
aF0.0
aF0.0
aF0.0
aF0.0
aF0.0
aF0.0
aa(lp23
F0.0
aF0.0
aF0.0
aF0.0
aF0.0
aF0.0
aF0.0
aa(lp24
F0.0
aF0.0
aF0.0
aF0.0
aF0.0
aF0.0
aF0.0
aa(lp25
F0.0
aF0.0
aF0.0
aF0.0
aF0.0
aF0.0
aF0.0
aa(lp26
F0.0
aF0.0
aF0.0
aF0.0
aF0.0
aF0.0
aF0.0
aa(lp27
F0.0
aF0.0
aF0.0
aF0.0
aF0.0
aF0.0
aF0.0
aa(lp28
F13.39126842513561
aF13.387547854019052
aF15.709711424887569
aF26.010931623675855
aF12.466629608244617
aF15.285815333754503
aF13.054176843213668
aa(lp29
F18.548169363403222
aF19.3933381961026
aF14.140689380364545
aF29.214870606340146
aF15.545790201803639
aF18.640676825996273
aF16.435322945414555
aa(lp30
F14.629745763310758
aF13.093634382223756
aF13.940120181882259
aF22.566499683314067
aF10.068623144722704
aF15.306870185795718
aF13.135669235180643
aa(lp31
F16.897603548950975
aF15.104489321324566
aF16.847615122620045
aF27.379697384601975
aF18.735065523374917
aF15.547753558046967
aF15.235517965826256
aa(lp32
F0.293248295521238
aF27.78331868486753
aF0.0
aF17.158245770401386
aF6.097925431209665
aF0.0
aF3.66240943734096
aa(lp33
F7.017585314533398
aF12.400920324400692
aF6.326628839629131
aF13.925541195246153
aF24.95617775099663
aF6.305537347078557
aF8.074304363757218
aa(lp34
F13.632944244986403
aF11.104610163916034
aF14.06783786474326
aF27.557876366314964
aF13.548180522706236
aF13.434964811335487
aF13.894722241309408
aa(lp35
F0.0
aF25.60424029788907
aF9.62200461125879
aF15.038910818590933
aF3.770800048325361
aF16.26291272041319
aF10.07198942889871
aa(lp36
F-0.2
aF2.7940792272974377
aF0.3480092558314294
aF22.085046013852676
aF0.0
aF3.104974800010007
aF5.36264483356511
aa(lp37
F33.776711404440775
aF23.485897386903922
aF22.921010210804354
aF27.128895738049117
aF24.157343345206712
aF26.61060340853992
aF23.72615111981854
aa(lp38
F34.80186864817748
aF25.479834628936835
aF22.562871661353384
aF26.066312131763254
aF23.136382578113093
aF29.45685280165688
aF25.814963304754365
aa(lp39
F31.005498818210338
aF21.194251256780515
aF11.95762896087528
aF15.635840268773656
aF18.431230459510736
aF18.941298348158064
aF20.42591123683413
aa(lp40
F34.03332939196839
aF9.777529261185574
aF21.86514768120149
aF27.18374766790692
aF23.61714821048109
aF24.490525801575586
aF14.996254805802351
aa(lp41
F34.024529879157654
aF16.510534192068796
aF18.2312862264206
aF25.81923640253414
aF22.68607274626309
aF14.00567216778949
aF12.056624088624398
aa(lp42
F32.80584640933621
aF3.9885770953714643
aF8.103998410709057
aF13.370062403074133
aF0.7357413815577942
aF5.000358108486546
aF5.28390059845523
aa(lp43
F34.79357923591689
aF11.3815767530592
aF11.061908276028731
aF4.417339917636833
aF18.973786773759365
aF10.780199897037875
aF12.74050610286027
aa(lp44
F32.92845870803566
aF6.155651215809989
aF13.62726462456897
aF18.147784758425786
aF8.022928970962024
aF9.554661274500337
aF8.89135799869776
aa(lp45
F0.0
aF-1.0
aF4.054999978368752
aF27.242560097303972
aF0.0
aF4.904370603298078
aF4.356143162024236
aa(lp46
F0.0
aF0.0
aF0.0
aF0.0
aF0.0
aF0.0
aF0.0
aa(lp47
F0.0
aF0.0
aF0.0
aF0.0
aF0.0
aF0.0
aF0.0
aa(lp48
F0.0
aF0.0
aF0.0
aF0.0
aF0.0
aF0.0
aF0.0
aa(lp49
F0.0
aF0.0
aF0.0
aF0.0
aF0.0
aF0.0
aF0.0
aa(lp50
F0.0
aF0.0
aF0.0
aF0.0
aF0.0
aF0.0
aF0.0
aa(lp51
F0.0
aF0.0
aF0.0
aF0.0
aF0.0
aF0.0
aF0.0
aa(lp52
F0.0
aF0.0
aF0.0
aF0.0
aF0.0
aF0.0
aF0.0
aa(lp53
F0.0
aF0.0
aF0.0
aF0.0
aF0.0
aF0.0
aF0.0
aa(lp54
F0.0
aF0.0
aF0.0
aF0.0
aF0.0
aF0.0
aF0.0
aa(lp55
F2.4713428266866373
aF2.884164023018883
aF2.8451114160091415
aF2.0642002425805916
aF9.1001369923907
aF2.874549250001437
aF2.078536614377632
aa(lp56
F13.43759139513766
aF25.176316965775555
aF12.862008831602896
aF13.39675528120744
aF13.19609863870404
aF14.216425232112645
aF12.462035488778499
aa(lp57
F2.2263333444188476
aF0.9684839644043371
aF13.338092889487404
aF1.4370048524081693
aF2.361624328111302
aF2.397204243840357
aF1.7428085973017997
aa(lp58
F16.605998422024552
aF9.65099981528139
aF11.44233069016445
aF12.3332547563739
aF26.57349324367328
aF5.8377245959447
aF7.119878884255324
aa(lp59
F8.686370086766772
aF9.31100463509906
aF7.534097360069781
aF3.4068760334918085
aF24.168410741739983
aF5.187668926174044
aF14.502531455486674
aa(lp60
F6.880407489835786
aF-0.47547123705812355
aF6.264823898509821
aF1.546460019748915
aF20.79045498875584
aF0.0
aF5.149906747548659
aa(lp61
F1.6057243638602348
aF1.298782385777057
aF12.457807994871818
aF-0.9317924398486753
aF-0.7913456601237323
aF1.1468396944301447
aF0.9342721600625857
aa(lp62
F3.4544443142090957
aF22.95482239439006
aF0.0
aF1.9278397961337148
aF0.0
aF0.0
aF0.0
aa(lp63
F0.0
aF0.0
aF0.0
aF0.0
aF0.0
aF0.0
aF0.0
aa(lp64
F17.931531442814464
aF13.867730921055918
aF14.72429663174044
aF11.530242663130235
aF13.819233714901106
aF13.695162882157959
aF12.853671611632338
aa(lp65
F33.36580028231085
aF26.37668440641762
aF10.893535082038174
aF12.950108866687305
aF15.214375856930165
aF16.54747593701544
aF17.111462654430508
aa(lp66
F21.789858569165006
aF3.1085810772817757
aF10.915999896991389
aF1.8266098033459497
aF8.561571197841978
aF8.414405932564193
aF0.9569990354195018
aa(lp67
F33.511621266103774
aF16.58691864201959
aF8.264297012504366
aF14.845564187881399
aF19.50430710149855
aF15.123813713040619
aF21.318668003533062
aa(lp68
F31.071283742796854
aF1.6028863544983711
aF7.777464332909578
aF4.579572876497408
aF10.853039674981659
aF17.848512592603
aF18.687459468060005
aa(lp69
F29.465067844582208
aF4.466432594655935
aF4.728963582969197
aF0.0
aF9.857425952592688
aF4.7774309801124755
aF0.0
aa(lp70
F19.331360626003466
aF4.113661662947455
aF4.948484232744499
aF1.1267501717915618
aF-1.0
aF0.0
aF6.776032224623064
aa(lp71
F0.0
aF26.646724732314745
aF0.0
aF-0.3205614502078019
aF-0.389106808144153
aF0.8955257094183587
aF0.0
aa(lp72
F0.0
aF0.0
aF0.0
aF0.0
aF0.0
aF0.0
aF0.0
aa(lp73
F0.0
aF0.0
aF0.0
aF0.0
aF0.0
aF0.0
aF0.0
aa(lp74
F0.0
aF0.0
aF0.0
aF0.0
aF0.0
aF0.0
aF0.0
aa(lp75
F0.0
aF0.0
aF0.0
aF0.0
aF0.0
aF0.0
aF0.0
aa(lp76
F0.0
aF0.0
aF0.0
aF0.0
aF0.0
aF0.0
aF0.0
aa(lp77
F0.0
aF0.0
aF0.0
aF0.0
aF0.0
aF0.0
aF0.0
aa(lp78
F0.0
aF0.0
aF0.0
aF0.0
aF0.0
aF0.0
aF0.0
aa(lp79
F0.0
aF0.0
aF0.0
aF0.0
aF0.0
aF0.0
aF0.0
aa(lp80
F0.0
aF0.0
aF0.0
aF0.0
aF0.0
aF0.0
aF0.0
aa(lp81
F0.0
aF0.0
aF0.0
aF0.0
aF0.0
aF0.0
aF0.0
aa(lp82
F16.6478732231383
aF12.786733590295915
aF24.432631259852847
aF13.415191699124303
aF13.518971238729318
aF16.109891343468508
aF14.546384509243056
aa(lp83
F15.814222945177914
aF26.473529073848542
aF21.664782992234848
aF14.859276580927954
aF18.277236996524874
aF15.963903432321572
aF15.117178459356616
aa(lp84
F0.0997235002178881
aF-1.6556429927257044
aF24.698924259883928
aF10.11198058130156
aF6.23788783382014
aF0.3929199086037663
aF0.0
aa(lp85
F16.162188649818304
aF18.268714391023202
aF29.191942291677577
aF13.609927998316959
aF19.268984767787437
aF19.59608028447513
aF16.483828638806298
aa(lp86
F0.0
aF0.6451177508066197
aF0.0
aF2.3352236624861162
aF11.431955463916768
aF0.0
aF25.05311645141243
aa(lp87
F0.0
aF-1.0
aF25.832743365663994
aF0.0
aF0.0
aF0.0
aF0.0
aa(lp88
F13.411194073616764
aF10.09651587689413
aF28.043752535186638
aF12.722896129164836
aF12.519031179978148
aF11.435351340269618
aF13.61148009680662
aa(lp89
F2.419322262803226
aF22.584287399472853
aF2.6024480901230946
aF10.25006507236714
aF1.1294324783516174
aF4.48242126149567
aF4.608695237135945
aa(lp90
F-0.2
aF-1.0
aF23.07539149558071
aF3.8486012564517544
aF2.7759090409749936
aF0.0
aF-1.0
aa(lp91
F32.14527870918606
aF22.6249311516357
aF26.43660238520476
aF24.553853153531414
aF23.7405779094814
aF26.99041883182931
aF23.961926099756262
aa(lp92
F34.26057777115096
aF22.60778728986584
aF24.06312905352187
aF18.966619443984463
aF16.14856547444719
aF14.45670027437083
aF19.448225991779275
aa(lp93
F0.0
aF11.613176323165366
aF30.26500874641501
aF17.17697907551804
aF12.370356443339906
aF5.222012767560153
aF12.872118176058862
aa(lp94
F35.24481648667647
aF22.981108981729616
aF24.867251834564275
aF20.29694068320836
aF27.33658294820047
aF28.088886406310976
aF27.37726851418105
aa(lp95
F12.712399711564801
aF19.33805279525233
aF29.97459727036362
aF11.534658323945315
aF21.341790080536093
aF21.77029168114662
aF20.127581247885413
aa(lp96
F16.782421648729386
aF10.606943985851526
aF30.41498675881181
aF10.86608879866583
aF5.280276075442825
aF12.750986248894776
aF6.267777151564395
aa(lp97
F33.03185657120356
aF19.80476142474028
aF21.16919510748136
aF19.83953728115887
aF4.972684141518568
aF24.3372992308014
aF17.73837520051036
aa(lp98
F30.023336094601877
aF2.665816920555294
aF4.60188551977351
aF11.178158300319266
aF0.0
aF9.657471452841357
aF18.57269238625549
aa(lp99
F30.189206131855936
aF-1.0
aF5.717159310918526
aF4.69324487056349
aF-1.0
aF5.326764034262182
aF7.878246016513256
aa(lp100
F0.0
aF0.0
aF0.0
aF0.0
aF0.0
aF0.0
aF0.0
aa(lp101
F0.0
aF0.0
aF0.0
aF0.0
aF0.0
aF0.0
aF0.0
aa(lp102
F0.0
aF0.0
aF0.0
aF0.0
aF0.0
aF0.0
aF0.0
aa(lp103
F0.0
aF0.0
aF0.0
aF0.0
aF0.0
aF0.0
aF0.0
aa(lp104
F0.0
aF0.0
aF0.0
aF0.0
aF0.0
aF0.0
aF0.0
aa(lp105
F0.0
aF0.0
aF0.0
aF0.0
aF0.0
aF0.0
aF0.0
aa(lp106
F0.0
aF0.0
aF0.0
aF0.0
aF0.0
aF0.0
aF0.0
aa(lp107
F0.0
aF0.0
aF0.0
aF0.0
aF0.0
aF0.0
aF0.0
aa(lp108
F0.0
aF0.0
aF0.0
aF0.0
aF0.0
aF0.0
aF0.0
aa(lp109
F20.00273733934972
aF17.13672061235085
aF24.953988113946224
aF19.38776414815203
aF14.588475877516487
aF19.715167939083113
aF19.834914289986894
aa(lp110
F15.875812239970816
aF26.866263624655694
aF15.647218236380528
aF13.996816603102427
aF11.567207052786667
aF15.86793608183346
aF15.059068314556264
aa(lp111
F-0.14136914675414114
aF2.58404180543656
aF23.96667725308946
aF0.0
aF0.19165385126297685
aF6.720938123445569
aF11.082317355011886
aa(lp112
F0.4087458177661829
aF4.409261446396594
aF5.688142703645955
aF26.883072718136415
aF0.0
aF4.72756973260617
aF11.469600516812491
aa(lp113
F0.0
aF6.421553602765293
aF6.025118218981921
aF29.028431874239388
aF5.417402319859185
aF0.2116305000559137
aF0.0
aa(lp114
F6.484312186375966
aF-1.8900497056641097
aF0.0
aF26.528470137204017
aF0.0
aF7.532502442328838
aF-1.0
aa(lp115
F13.031282611452308
aF9.049179226229604
aF23.277386857613607
aF0.0
aF3.4426985516015693
aF8.356141776643462
aF12.689885557206123
aa(lp116
F0.0
aF0.0
aF0.0
aF25.23220702905592
aF0.0
aF0.0
aF3.9641246836827846
aa(lp117
F0.0
aF-1.0
aF27.112898318184566
aF0.0
aF0.0
aF0.0
aF-1.0
aa(lp118
F32.459225941185416
aF21.191444879313295
aF28.36932926716183
aF15.677483920774234
aF18.11163550216213
aF23.98246639248076
aF25.960592739497393
aa(lp119
F34.70963120188982
aF17.210259553221036
aF17.515597763092373
aF16.337435877106813
aF13.068560832998413
aF11.335338577006187
aF6.287205468292722
aa(lp120
F0.0
aF6.981508233362174
aF29.76803202305088
aF11.515453132828316
aF9.54430046816903
aF12.926445369846942
aF15.45861105367224
aa(lp121
F21.293075265951867
aF12.175811190621022
aF16.946165829375587
aF16.42378452454077
aF13.902426422117017
aF17.677826866760626
aF28.83960027562969
aa(lp122
F6.212441231357956
aF8.886943678097284
aF30.193280027817877
aF14.63871024784494
aF10.890383937186254
aF4.75334396845119
aF5.707756141722859
aa(lp123
F33.7802093139292
aF-1.0
aF6.2466527906374845
aF0.0
aF0.0
aF2.859303138192147
aF0.0
aa(lp124
F33.513497779330606
aF10.927713901564813
aF6.989958521754072
aF11.2192187459047
aF14.320153586851838
aF10.84631870661272
aF8.434951966673365
aa(lp125
F0.0
aF0.7317960194031117
aF9.364862724270365
aF6.17084484200272
aF2.256025376799619
aF0.8889680046712657
aF26.272043203734178
aa(lp126
F0.0
aF-1.0382090566346809
aF0.6314581156522059
aF0.0
aF-1.0
aF0.2221007845843096
aF22.853620762919743
aa(lp127
F0.0
aF0.0
aF0.0
aF0.0
aF0.0
aF0.0
aF0.0
aa(lp128
F0.0
aF0.0
aF0.0
aF0.0
aF0.0
aF0.0
aF0.0
aa(lp129
F0.0
aF0.0
aF0.0
aF0.0
aF0.0
aF0.0
aF0.0
aa(lp130
F0.0
aF0.0
aF0.0
aF0.0
aF0.0
aF0.0
aF0.0
aa(lp131
F0.0
aF0.0
aF0.0
aF0.0
aF0.0
aF0.0
aF0.0
aa(lp132
F0.0
aF0.0
aF0.0
aF0.0
aF0.0
aF0.0
aF0.0
aa(lp133
F0.0
aF0.0
aF0.0
aF0.0
aF0.0
aF0.0
aF0.0
aa(lp134
F0.0
aF0.0
aF0.0
aF0.0
aF0.0
aF0.0
aF0.0
aa(lp135
F0.0
aF0.0
aF0.0
aF0.0
aF0.0
aF0.0
aF0.0
aa(lp136
F13.811303569287789
aF11.963033968682224
aF23.877227415677226
aF12.400718955697238
aF12.521461507271715
aF13.82540858414379
aF13.74461474816749
aa(lp137
F0.5086197205987047
aF20.20942866543477
aF10.6827188873687
aF8.728289068570454
aF9.027096962807557
aF10.023358201383159
aF13.281457507217505
aa(lp138
F-0.2
aF-1.0
aF22.776050816964155
aF-1.0
aF0.0
aF0.0
aF0.0
aa(lp139
F8.677668831954747
aF0.9986106488331452
aF5.214765410348099
aF7.756189701268383
aF28.654720592072053
aF5.491379111243265
aF0.22976294334608516
aa(lp140
F3.8417455585412137
aF26.44156280441549
aF6.014619216212213
aF0.0
aF2.111293730279347
aF4.280438474211882
aF8.258150007363371
aa(lp141
F-0.2
aF0.0
aF23.890786852652592
aF0.0
aF0.0
aF4.858600636656748
aF-0.27752454925027836
aa(lp142
F3.4802981817975276
aF4.804100676927751
aF22.087412655184124
aF-0.8388306548777286
aF-1.0504879866582204
aF1.7078867972291891
aF5.755630032917415
aa(lp143
F-0.2
aF0.0
aF23.116532002905416
aF0.0
aF-1.0
aF0.0
aF0.0
aa(lp144
F0.0
aF0.0
aF0.0
aF0.0
aF0.0
aF0.0
aF0.0
aa(lp145
F34.62749072750132
aF14.64352751497048
aF18.668240894079666
aF17.288576792747982
aF19.47987179399889
aF24.419216456018216
aF21.979998113362093
aa(lp146
F30.706300613449606
aF13.622375794629093
aF13.713988795944587
aF3.5992890177978545
aF8.494949339453658
aF10.275273266446934
aF17.14363455632231
aa(lp147
F28.47590822604814
aF4.094166658946338
aF5.2659126785359724
aF8.300288666221613
aF2.4636934589096064
aF0.0
aF-1.1971593844956683
aa(lp148
F34.79577970100482
aF4.444073589340227
aF5.453723113985307
aF10.034603876393287
aF6.0375321541154365
aF18.093447240428517
aF10.188378471351626
aa(lp149
F33.290797850857764
aF0.0
aF5.554859568097462
aF4.639216952407845
aF6.247720325499472
aF0.0
aF6.067345709647581
aa(lp150
F29.95155095601542
aF0.41237615423494633
aF2.162777329338121
aF1.0580020989363395
aF6.0827451517694415
aF0.19556447794719356
aF7.7522957071664145
aa(lp151
F31.659715944375655
aF5.056006136378987
aF1.1737012159977782
aF-0.8654269009870839
aF0.0
aF9.718071640441885
aF0.0
aa(lp152
F0.0
aF27.184680049794
aF0.0
aF-1.0
aF-1.0
aF0.0
aF4.076270374960498
aa(lp153
F0.0
aF0.0
aF0.0
aF0.0
aF0.0
aF0.0
aF0.0
aa(lp154
F0.0
aF0.0
aF0.0
aF0.0
aF0.0
aF0.0
aF0.0
aa(lp155
F0.0
aF0.0
aF0.0
aF0.0
aF0.0
aF0.0
aF0.0
aa(lp156
F0.0
aF0.0
aF0.0
aF0.0
aF0.0
aF0.0
aF0.0
aa(lp157
F0.0
aF0.0
aF0.0
aF0.0
aF0.0
aF0.0
aF0.0
aa(lp158
F0.0
aF0.0
aF0.0
aF0.0
aF0.0
aF0.0
aF0.0
aa(lp159
F0.0
aF0.0
aF0.0
aF0.0
aF0.0
aF0.0
aF0.0
aa(lp160
F0.0
aF0.0
aF0.0
aF0.0
aF0.0
aF0.0
aF0.0
aa(lp161
F0.0
aF0.0
aF0.0
aF0.0
aF0.0
aF0.0
aF0.0
aa(lp162
F0.0
aF0.0
aF0.0
aF0.0
aF0.0
aF0.0
aF0.0
aa(lp163
F2.256148426160727
aF2.416469709966162
aF0.8431821373131976
aF6.438027468374746
aF1.8478202833681179
aF2.4065938102365827
aF1.5897351015404624
aa(lp164
F15.369440262473427
aF27.092493945105723
aF11.728421458043794
aF9.588256718866388
aF9.407180801326781
aF15.393451673814145
aF13.647526533968861
aa(lp165
F1.4396669905617734
aF-0.14019776829184089
aF0.7374386950283698
aF13.784484325666288
aF0.8468483493890537
aF1.5538237666373593
aF1.4215363727203951
aa(lp166
F16.28421921457338
aF10.807511552826218
aF16.321575868235822
aF12.36265195131292
aF28.701619228791028
aF15.693029475838625
aF18.891040309267105
aa(lp167
F0.0
aF14.619005339602074
aF11.246064047500042
aF4.21396918267314
aF29.5687352469319
aF13.83986582449284
aF13.348160144667405
aa(lp168
F7.489678268503134
aF-0.5834732562448535
aF0.0
aF1.7599913173010693
aF23.75147598351279
aF3.3847816055100703
aF0.09052022298370888
aa(lp169
F2.3006870800325228
aF2.508722478876546
aF0.1688063948730654
aF7.091031503356579
aF1.5526543889438722
aF2.504591855215655
aF1.9458604541490028
aa(lp170
F3.7055831865628757
aF28.753942109340073
aF-1.0
aF8.38947436567863
aF0.0
aF4.6761621352074725
aF-1.0
aa(lp171
F0.0
aF0.0
aF0.0
aF0.0
aF0.0
aF0.0
aF0.0
aa(lp172
F18.362225415572556
aF15.096978440890837
aF11.058204812721392
aF14.282714266914418
aF14.838183828469345
aF14.881791109141485
aF14.426739913167712
aa(lp173
F33.313736350352364
aF12.693076491688599
aF7.926253310295017
aF10.797760596579325
aF13.275659268327233
aF17.490037121156927
aF16.653462982002807
aa(lp174
F18.444633084749313
aF-1.0
aF4.593990903777407
aF4.988178921926568
aF10.11750034505701
aF0.37158836427110586
aF6.1651031301637245
aa(lp175
F33.830060749223726
aF22.431536695323558
aF23.40029546201408
aF13.13955411560919
aF18.668337681268742
aF26.67446704073988
aF21.54192943211002
aa(lp176
F36.04668945266927
aF24.08700934743001
aF12.712456764776821
aF15.24135322038526
aF16.369528273486864
aF11.511348523396567
aF9.261034469855506
aa(lp177
F31.880757393732193
aF0.0
aF0.0
aF0.4239751199298577
aF0.0
aF4.984362903970219
aF4.6383654444701525
aa(lp178
F18.71937575860914
aF3.8347959294452663
aF3.9608714764476067
aF10.899197671688944
aF3.7544939970221742
aF5.985558867024334
aF12.225821758020484
aa(lp179
F34.149665007185206
aF6.031999988591397
aF-1.288664196783764
aF3.2334342512819076
aF0.7827040309964414
aF7.9645837992595
aF5.441681702547319
aa(lp180
F0.0
aF0.0
aF0.0
aF0.0
aF0.0
aF0.0
aF0.0
aa(lp181
F0.0
aF0.0
aF0.0
aF0.0
aF0.0
aF0.0
aF0.0
aa(lp182
F0.0
aF0.0
aF0.0
aF0.0
aF0.0
aF0.0
aF0.0
aa(lp183
F0.0
aF0.0
aF0.0
aF0.0
aF0.0
aF0.0
aF0.0
aa(lp184
F0.0
aF0.0
aF0.0
aF0.0
aF0.0
aF0.0
aF0.0
aa(lp185
F0.0
aF0.0
aF0.0
aF0.0
aF0.0
aF0.0
aF0.0
aa(lp186
F0.0
aF0.0
aF0.0
aF0.0
aF0.0
aF0.0
aF0.0
aa(lp187
F0.0
aF0.0
aF0.0
aF0.0
aF0.0
aF0.0
aF0.0
aa(lp188
F0.0
aF0.0
aF0.0
aF0.0
aF0.0
aF0.0
aF0.0
aa(lp189
F0.0
aF0.0
aF0.0
aF0.0
aF0.0
aF0.0
aF0.0
aa(lp190
F12.55498313779165
aF16.21122918519585
aF12.19655721869065
aF18.785329070745043
aF11.842524973471479
aF14.439781766969833
aF13.912542195985464
aa(lp191
F0.0
aF3.194204656333019
aF3.5538944735558795
aF23.46941775322203
aF0.0
aF0.0
aF0.0
aa(lp192
F0.0
aF0.2499820947477952
aF2.5796627071492604
aF25.054567077504576
aF0.29377691983066284
aF3.0606078053712036
aF3.459755952929267
aa(lp193
F6.926219909876364
aF0.0
aF3.5202302070525833
aF21.967144943819903
aF0.0
aF0.0
aF0.0
aa(lp194
F0.0
aF29.01421711592426
aF9.082658266380687
aF7.891931420019784
aF4.981819480219521
aF5.2611884635348165
aF0.0
aa(lp195
F2.7002299609896054
aF-1.7151611537395581
aF-1.0
aF23.825212684846583
aF3.8943361527676057
aF0.0
aF-1.0
aa(lp196
F0.0
aF2.4198203202040296
aF-1.0
aF19.64738550512294
aF-1.0
aF0.0
aF0.0
aa(lp197
F0.0
aF0.0
aF0.0
aF25.23502266140504
aF0.0
aF0.0
aF0.0
aa(lp198
F0.0
aF0.0
aF0.0
aF0.0
aF0.0
aF0.0
aF0.0
aa(lp199
F31.728674343474662
aF18.070547988274278
aF11.230701913382324
aF17.22438534152489
aF15.900700970347515
aF21.613650879584025
aF15.827672898866464
aa(lp200
F16.83588942866514
aF6.628651976261519
aF5.535007624922164
aF30.172903888790565
aF10.746589901234659
aF9.67398103808978
aF7.57702084577547
aa(lp201
F2.8961247998996207
aF3.1401688001208257
aF-1.0
aF28.669769271912884
aF4.317125868529133
aF0.0
aF4.617483961251869
aa(lp202
F14.560467671114385
aF11.133894553916228
aF3.244717331053372
aF29.395336906769224
aF14.496922125290654
aF10.464458543969066
aF13.748114422767804
aa(lp203
F36.51980071631597
aF5.368623024238649
aF-1.0
aF6.327016403532318
aF9.287802064269494
aF9.745945002709593
aF6.754386417794364
aa(lp204
F29.56223188165332
aF3.9576443557027092
aF-1.6055482047063654
aF2.823019073640781
aF0.0
aF0.0
aF8.693100083708716
aa(lp205
F0.0
aF4.631865393705694
aF3.4603164492997687
aF29.35435576904215
aF0.0
aF0.0
aF4.554454927810969
aa(lp206
F0.0
aF0.0
aF0.0
aF29.892479370478636
aF4.29070622175554
aF0.0
aF0.0
aa(lp207
F0.0
aF0.0
aF0.0
aF0.0
aF0.0
aF0.0
aF0.0
aa(lp208
F0.0
aF0.0
aF0.0
aF0.0
aF0.0
aF0.0
aF0.0
aa(lp209
F0.0
aF0.0
aF0.0
aF0.0
aF0.0
aF0.0
aF0.0
aa(lp210
F0.0
aF0.0
aF0.0
aF0.0
aF0.0
aF0.0
aF0.0
aa(lp211
F0.0
aF0.0
aF0.0
aF0.0
aF0.0
aF0.0
aF0.0
aa(lp212
F0.0
aF0.0
aF0.0
aF0.0
aF0.0
aF0.0
aF0.0
aa(lp213
F0.0
aF0.0
aF0.0
aF0.0
aF0.0
aF0.0
aF0.0
aa(lp214
F0.0
aF0.0
aF0.0
aF0.0
aF0.0
aF0.0
aF0.0
aa(lp215
F0.0
aF0.0
aF0.0
aF0.0
aF0.0
aF0.0
aF0.0
aa(lp216
F0.0
aF0.0
aF0.0
aF0.0
aF0.0
aF0.0
aF0.0
aa(lp217
F1.4145354461098616
aF10.377088119241368
aF-0.17025754725184108
aF1.056239211709521
aF3.0295239882999025
aF1.8421832732372347
aF1.3508046567159913
aa(lp218
F6.824450225642685
aF23.837484934741376
aF-1.7715002401740707
aF-1.7556424728836084
aF5.23211865823321
aF4.06184889925547
aF-0.09724670507982391
aa(lp219
F0.0
aF0.0
aF0.0
aF0.0
aF0.0
aF0.0
aF0.0
aa(lp220
F-0.2
aF7.594526250234107
aF8.328796040623306
aF3.9484480413531866
aF25.250652539818905
aF0.13438884381099536
aF5.0111843664350255
aa(lp221
F0.0
aF29.375848326937337
aF-1.0
aF0.0
aF0.0
aF0.0
aF0.0
aa(lp222
F0.0
aF0.0
aF0.0
aF0.0
aF0.0
aF0.0
aF0.0
aa(lp223
F0.0
aF0.0
aF0.0
aF0.0
aF0.0
aF0.0
aF0.0
aa(lp224
F0.0
aF0.0
aF0.0
aF0.0
aF0.0
aF0.0
aF0.0
aa(lp225
F0.0
aF0.0
aF0.0
aF0.0
aF0.0
aF0.0
aF0.0
aa(lp226
F16.66953033649057
aF0.0
aF2.168147963327489
aF5.51242284326348
aF4.181125476815328
aF6.170592941638283
aF4.246991223101563
aa(lp227
F28.85238421848842
aF5.998227716017919
aF4.371522204949369
aF4.2101648242165854
aF0.0
aF0.0
aF9.108990180778168
aa(lp228
F0.0
aF0.0
aF0.0
aF0.0
aF0.0
aF0.0
aF0.0
aa(lp229
F34.46741918054055
aF8.047165162090465
aF8.79777616388494
aF0.0
aF2.2768492533033986
aF0.0
aF-0.6183274523767868
aa(lp230
F35.26017585834548
aF6.6900659096955195
aF-1.0
aF0.0
aF0.0
aF0.0
aF0.0
aa(lp231
F0.0
aF0.0
aF0.0
aF0.0
aF0.0
aF0.0
aF0.0
aa(lp232
F0.0
aF0.0
aF0.0
aF0.0
aF0.0
aF0.0
aF0.0
aa(lp233
F0.0
aF0.0
aF0.0
aF0.0
aF0.0
aF0.0
aF0.0
aa(lp234
F0.0
aF0.0
aF0.0
aF0.0
aF0.0
aF0.0
aF0.0
aa(lp235
F0.0
aF0.0
aF0.0
aF0.0
aF0.0
aF0.0
aF0.0
aa(lp236
F0.0
aF0.0
aF0.0
aF0.0
aF0.0
aF0.0
aF0.0
aa(lp237
F0.0
aF0.0
aF0.0
aF0.0
aF0.0
aF0.0
aF0.0
aa(lp238
F0.0
aF0.0
aF0.0
aF0.0
aF0.0
aF0.0
aF0.0
aa(lp239
F0.0
aF0.0
aF0.0
aF0.0
aF0.0
aF0.0
aF0.0
aa(lp240
F0.0
aF0.0
aF0.0
aF0.0
aF0.0
aF0.0
aF0.0
aa(lp241
F0.0
aF0.0
aF0.0
aF0.0
aF0.0
aF0.0
aF0.0
aa(lp242
F0.0
aF0.0
aF0.0
aF0.0
aF0.0
aF0.0
aF0.0
aa(lp243
F0.0
aF0.0
aF0.0
aF0.0
aF0.0
aF0.0
aF0.0
aa.