(lp0
(lp1
F4.190757830977981
aF4.395769310533688
aF3.957111318953725
aF4.356189153952059
aF4.174217234021224
aF4.364735770956864
aF4.743286130827352
aa(lp2
F12.956779774465868
aF27.65353823076636
aF12.583721982472069
aF11.817528278922891
aF13.095625968495217
aF13.125092820390757
aF13.141105022382368
aa(lp3
F1.770528132947598
aF1.226327132369281
aF9.909061310881121
aF1.9015382208128888
aF2.399218327594699
aF2.3952157411042174
aF1.8868576191856543
aa(lp4
F13.584213209260495
aF13.187522879730496
aF13.484077501568333
aF11.170242691104056
aF27.324251215335984
aF15.92449859163801
aF13.465462887148432
aa(lp5
F17.82663535593571
aF17.992347627456716
aF16.361361614208747
aF17.850573235170774
aF27.69312634149245
aF18.364090325776623
aF18.626366196328597
aa(lp6
F12.817427602094568
aF12.002925406346163
aF10.796579061916209
aF12.033491604908702
aF20.87292634006042
aF12.935972624875063
aF12.554274483767644
aa(lp7
F1.9051738761283845
aF2.5493269974329973
aF1.9323426863314845
aF8.649361963923294
aF1.3142181432440725
aF1.9478955440074588
aF1.6375853907562106
aa(lp8
F13.028859182756129
aF24.3624513056934
aF8.148594822412576
aF13.468626005088643
aF12.857316227139686
aF13.397738032743051
aF14.732453292117558
aa(lp9
F2.187402814970448
aF1.1804096964901227
aF9.59346149180853
aF3.113192828016132
aF1.5228460805532336
aF3.0908517006059864
aF1.4385296613416723
aa(lp10
F20.345996841494678
aF16.02332482105332
aF16.67289113257041
aF15.895849755386466
aF16.810826068393688
aF16.196447262629633
aF15.998461152569192
aa(lp11
F36.57335831801069
aF24.9472807743208
aF23.97692257025997
aF23.603629485953284
aF24.894414374203397
aF24.804761493040573
aF24.444188659751592
aa(lp12
F16.666970616991982
aF11.7022211497133
aF13.245855892740183
aF14.692714580219414
aF13.156875383588666
aF13.138594315843509
aF12.852882594590845
aa(lp13
F35.989528700011576
aF23.5525293940885
aF23.599147249107382
aF23.139975058469354
aF26.57377647805443
aF28.164164571781008
aF27.332095159126162
aa(lp14
F36.91894307868493
aF29.20134933799274
aF24.71904196149165
aF24.91701218731283
aF29.95701416738559
aF28.939646669428654
aF25.65434454558185
aa(lp15
F29.820936029880087
aF20.560272150115345
aF23.479626198516094
aF19.125520664801115
aF24.83796476898049
aF24.226812090212228
aF24.11184126308231
aa(lp16
F18.10742563588635
aF13.670268916164117
aF13.67882263299758
aF13.58013518187754
aF12.04160724651732
aF13.709424476993162
aF13.616336175834281
aa(lp17
F31.168724956317302
aF23.469528050610368
aF19.704757222977463
aF21.892560514353736
aF17.206815660575806
aF19.231646232732214
aF19.493363707974595
aa(lp18
F17.84929397225084
aF4.1829862396301145
aF14.13880977828656
aF9.026991961266202
aF6.311182428164483
aF9.167093172333317
aF9.912330940607994
aa(lp19
F0.0
aF0.0
aF0.0
aF0.0
aF0.0
aF0.0
aF0.0
aa(lp20
F0.0
aF0.0
aF0.0
aF0.0
aF0.0
aF0.0
aF0.0
aa(lp21
F0.0
aF0.0
aF0.0
aF0.0
aF0.0
aF0.0
aF0.0
aa(lp22
F0.0
aF0.0
aF0.0
aF0.0
aF0.0
aF0.0
aF0.0
aa(lp23
F0.0
aF0.0
aF0.0
aF0.0
aF0.0
aF0.0
aF0.0
aa(lp24
F0.0
aF0.0
aF0.0
aF0.0
aF0.0
aF0.0
aF0.0
aa(lp25
F0.0
aF0.0
aF0.0
aF0.0
aF0.0
aF0.0
aF0.0
aa(lp26
F0.0
aF0.0
aF0.0
aF0.0
aF0.0
aF0.0
aF0.0
aa(lp27
F0.0
aF0.0
aF0.0
aF0.0
aF0.0
aF0.0
aF0.0
aa(lp28
F18.62947599126362
aF13.896181685842308
aF14.28104079767296
aF28.524352595399122
aF14.388453644137877
aF14.971800597512457
aF13.57820566118536
aa(lp29
F18.788128966000738
aF18.82826523091118
aF14.140689380364545
aF27.20630476750864
aF17.27619442099025
aF18.928525663221592
aF19.088502475556346
aa(lp30
F12.717693280972744
aF12.519159432565377
aF12.625330607434591
aF20.20660458775726
aF9.822311704887603
aF14.626020542737818
aF12.87065700960174
aa(lp31
F16.35965147797196
aF14.804817512685872
aF16.48711890859644
aF29.60159453902932
aF18.288062491773097
aF16.592038571696406
aF13.564407511768426
aa(lp32
F0.293248295521238
aF26.245136518940022
aF3.988507319755545
aF17.238542190336087
aF11.11504988744823
aF12.717334478725594
aF9.19718880102992
aa(lp33
F7.017585314533398
aF12.400920324400692
aF6.326628839629131
aF24.916308615151504
aF14.280121649417714
aF6.305537347078557
aF9.598664690012559
aa(lp34
F13.632944244986403
aF11.104610163916034
aF13.377303420662157
aF23.462732477303824
aF13.548180522706236
aF15.314759419558388
aF13.76523015333712
aa(lp35
F4.606904669159682
aF14.8313880652704
aF9.915513381844647
aF27.555382455571074
aF3.770800048325361
aF14.700385024524753
aF10.099805894086966
aa(lp36
F-0.2
aF2.7940792272974377
aF0.3480092558314294
aF20.407713076903068
aF0.0
aF3.104974800010007
aF5.36264483356511
aa(lp37
F33.912945151119146
aF24.158147122171034
aF23.016819403958035
aF28.258737150133086
aF24.654060487286138
aF26.819179353779198
aF23.9517944329441
aa(lp38
F36.23946424159848
aF27.30573575333097
aF22.547612421670514
aF28.554844925066813
aF23.576163073638575
aF29.82855377072108
aF26.379266335158245
aa(lp39
F29.149612948492294
aF22.094111186462108
aF18.010953195036357
aF15.635840268773656
aF19.594312965174183
aF18.941298348158064
aF20.42591123683413
aa(lp40
F35.027259320479644
aF17.603864198024706
aF21.86514768120149
aF27.869567131631687
aF23.61714821048109
aF26.87186078376211
aF17.10915263280038
aa(lp41
F36.06305838188544
aF16.510534192068796
aF18.2312862264206
aF26.501421278415698
aF24.303708275012923
aF22.5971827014535
aF16.201897501173093
aa(lp42
F31.031558057998705
aF3.9885770953714643
aF8.103998410709057
aF13.370062403074133
aF0.7357413815577942
aF9.687131435874289
aF5.28390059845523
aa(lp43
F33.253722929307244
aF11.3815767530592
aF14.011685100927245
aF4.417339917636833
aF21.501265226952615
aF17.32769978772096
aF18.316178608723355
aa(lp44
F35.73506796841634
aF12.280729209559423
aF13.62726462456897
aF18.147784758425786
aF8.022928970962024
aF16.628888182551048
aF12.543281435979548
aa(lp45
F0.0
aF-1.0
aF4.054999978368752
aF27.016413207910603
aF0.0
aF4.904370603298078
aF4.356143162024236
aa(lp46
F0.0
aF0.0
aF0.0
aF0.0
aF0.0
aF0.0
aF0.0
aa(lp47
F0.0
aF0.0
aF0.0
aF0.0
aF0.0
aF0.0
aF0.0
aa(lp48
F0.0
aF0.0
aF0.0
aF0.0
aF0.0
aF0.0
aF0.0
aa(lp49
F0.0
aF0.0
aF0.0
aF0.0
aF0.0
aF0.0
aF0.0
aa(lp50
F0.0
aF0.0
aF0.0
aF0.0
aF0.0
aF0.0
aF0.0
aa(lp51
F0.0
aF0.0
aF0.0
aF0.0
aF0.0
aF0.0
aF0.0
aa(lp52
F0.0
aF0.0
aF0.0
aF0.0
aF0.0
aF0.0
aF0.0
aa(lp53
F0.0
aF0.0
aF0.0
aF0.0
aF0.0
aF0.0
aF0.0
aa(lp54
F0.0
aF0.0
aF0.0
aF0.0
aF0.0
aF0.0
aF0.0
aa(lp55
F1.9170348292007802
aF1.944100029318467
aF10.340647480320918
aF0.7384363343771706
aF1.9387416326527431
aF1.9377739639156812
aF1.532195581968293
aa(lp56
F14.627511916506972
aF20.5932210557616
aF11.696030567007638
aF14.01092537819862
aF11.024626300906789
aF15.02968078375585
aF12.36562705545293
aa(lp57
F2.881707317996934
aF1.439811061713764
aF3.3867157689093963
aF1.142113034679515
aF6.934693857136042
aF2.695312300441143
aF1.5054468164220567
aa(lp58
F15.162434739482894
aF10.201044728446382
aF11.44233069016445
aF12.3332547563739
aF24.683975921605736
aF9.370932043048374
aF9.233585536098703
aa(lp59
F8.686370086766772
aF12.818245047797568
aF7.534097360069781
aF3.4068760334918085
aF25.4342045490588
aF7.975438631079143
aF15.33411424149961
aa(lp60
F6.880407489835786
aF-0.47547123705812355
aF6.264823898509821
aF1.546460019748915
aF20.513795302926926
aF0.0
aF5.149906747548659
aa(lp61
F1.390336805176875
aF0.7548292937767873
aF2.6225614554980607
aF0.03623604216043619
aF-0.7938631501950464
aF1.4600423397400872
aF1.087439992032582
aa(lp62
F3.4544443142090957
aF19.157330980680698
aF0.0
aF1.9278397961337148
aF0.0
aF0.0
aF0.0
aa(lp63
F0.0
aF0.0
aF0.0
aF0.0
aF0.0
aF0.0
aF0.0
aa(lp64
F21.812380120006985
aF15.146180040213748
aF14.873983863008139
aF11.380970944105318
aF15.075667787965738
aF13.884369999633517
aF14.046396300149372
aa(lp65
F30.977027785337746
aF27.23671815776267
aF13.043467519749726
aF17.062603191332574
aF19.186702531205825
aF24.13625527613416
aF17.111462654430508
aa(lp66
F16.781448713468844
aF4.533407170209024
aF14.405034840196919
aF1.8266098033459497
aF8.561571197841978
aF8.414405932564193
aF0.9569990354195018
aa(lp67
F34.250346614160044
aF17.66024489831934
aF13.332383312983126
aF14.845564187881399
aF19.50430710149855
aF15.123813713040619
aF23.773447906241092
aa(lp68
F33.608728995944595
aF1.6028863544983711
aF7.777464332909578
aF8.461121411810149
aF10.853039674981659
aF20.80256741332478
aF20.18951314167511
aa(lp69
F27.640976572002913
aF4.466432594655935
aF4.728963582969197
aF0.0
aF9.857425952592688
aF4.7774309801124755
aF0.0
aa(lp70
F19.987859184285746
aF4.113661662947455
aF4.948484232744499
aF2.8886546922236533
aF-1.0
aF4.391691286365538
aF6.776032224623064
aa(lp71
F5.349104003052448
aF25.97723303906796
aF0.0
aF-0.3205614502078019
aF-0.389106808144153
aF0.8955257094183587
aF0.0
aa(lp72
F0.0
aF0.0
aF0.0
aF0.0
aF0.0
aF0.0
aF0.0
aa(lp73
F0.0
aF0.0
aF0.0
aF0.0
aF0.0
aF0.0
aF0.0
aa(lp74
F0.0
aF0.0
aF0.0
aF0.0
aF0.0
aF0.0
aF0.0
aa(lp75
F0.0
aF0.0
aF0.0
aF0.0
aF0.0
aF0.0
aF0.0
aa(lp76
F0.0
aF0.0
aF0.0
aF0.0
aF0.0
aF0.0
aF0.0
aa(lp77
F0.0
aF0.0
aF0.0
aF0.0
aF0.0
aF0.0
aF0.0
aa(lp78
F0.0
aF0.0
aF0.0
aF0.0
aF0.0
aF0.0
aF0.0
aa(lp79
F0.0
aF0.0
aF0.0
aF0.0
aF0.0
aF0.0
aF0.0
aa(lp80
F0.0
aF0.0
aF0.0
aF0.0
aF0.0
aF0.0
aF0.0
aa(lp81
F0.0
aF0.0
aF0.0
aF0.0
aF0.0
aF0.0
aF0.0
aa(lp82
F13.667259015230886
aF13.409338549227435
aF24.702586617577776
aF13.744839208355724
aF17.2857889366413
aF15.924274830933907
aF15.177647157592608
aa(lp83
F16.72256638854343
aF26.000192027974716
aF16.90906074897258
aF16.48892475019707
aF15.358311045876656
aF16.446659836145937
aF15.117178459356616
aa(lp84
F0.0997235002178881
aF-1.6556429927257044
aF23.882926116239844
aF12.508660028338799
aF6.23788783382014
aF0.3929199086037663
aF0.0
aa(lp85
F16.184339057516205
aF14.18468176817508
aF28.156150144327164
aF15.238017761811063
aF16.212908900429344
aF17.692112868387625
aF15.027291479214359
aa(lp86
F4.296878143133873
aF0.6451177508066197
aF0.0
aF2.3352236624861162
aF11.431955463916768
aF3.580833978494922
aF22.44598906088501
aa(lp87
F0.0
aF-1.0
aF26.126301847051284
aF0.0
aF0.0
aF0.0
aF0.0
aa(lp88
F13.5939590580566
aF11.735132463015509
aF18.72495422196738
aF14.045329652216628
aF13.248598411186435
aF15.150925442146479
aF13.770307863038148
aa(lp89
F6.0178489074473935
aF27.727968852206814
aF2.6024480901230946
aF10.397501297824205
aF1.1294324783516174
aF4.48242126149567
aF9.601057055785116
aa(lp90
F-0.2
aF-1.0
aF23.284535210441742
aF3.8486012564517544
aF2.7759090409749936
aF0.0
aF-1.0
aa(lp91
F33.706457986926665
aF22.73527511530008
aF26.57131016066423
aF23.910934090656298
aF24.729871107426305
aF26.396369790579428
aF23.87101857994909
aa(lp92
F35.42618936493085
aF24.69080909519739
aF26.703511563732086
aF20.18095996213252
aF19.717428246324275
aF20.727448022340862
aF21.92925772376764
aa(lp93
F0.0
aF15.443243235772595
aF29.882291781447584
aF17.37797889930628
aF14.587232401590583
aF9.747894624372197
aF16.308882086928424
aa(lp94
F36.07395306350257
aF23.42138025067011
aF29.084481646225036
aF21.16595942738079
aF27.900209928681022
aF28.834329613341684
aF26.48306417604572
aa(lp95
F12.712399711564801
aF19.33805279525233
aF30.274971329194823
aF13.827324039680274
aF24.085290160555576
aF22.748037764046604
aF20.76108224922359
aa(lp96
F16.782421648729386
aF10.606943985851526
aF27.536684702696682
aF10.86608879866583
aF9.702903935259162
aF12.750986248894776
aF6.267777151564395
aa(lp97
F28.376022767734238
aF19.80476142474028
aF24.60578746542485
aF19.471166406541982
aF4.972684141518568
aF25.852917164998125
aF19.129081161033557
aa(lp98
F33.11342397896175
aF2.665816920555294
aF4.60188551977351
aF11.178158300319266
aF0.0
aF13.356857687524617
aF18.57269238625549
aa(lp99
F30.310686754563882
aF3.645372060921054
aF5.717159310918526
aF4.69324487056349
aF-1.0
aF5.326764034262182
aF7.878246016513256
aa(lp100
F0.0
aF0.0
aF0.0
aF0.0
aF0.0
aF0.0
aF0.0
aa(lp101
F0.0
aF0.0
aF0.0
aF0.0
aF0.0
aF0.0
aF0.0
aa(lp102
F0.0
aF0.0
aF0.0
aF0.0
aF0.0
aF0.0
aF0.0
aa(lp103
F0.0
aF0.0
aF0.0
aF0.0
aF0.0
aF0.0
aF0.0
aa(lp104
F0.0
aF0.0
aF0.0
aF0.0
aF0.0
aF0.0
aF0.0
aa(lp105
F0.0
aF0.0
aF0.0
aF0.0
aF0.0
aF0.0
aF0.0
aa(lp106
F0.0
aF0.0
aF0.0
aF0.0
aF0.0
aF0.0
aF0.0
aa(lp107
F0.0
aF0.0
aF0.0
aF0.0
aF0.0
aF0.0
aF0.0
aa(lp108
F0.0
aF0.0
aF0.0
aF0.0
aF0.0
aF0.0
aF0.0
aa(lp109
F19.491996480392526
aF15.573257271728062
aF28.150392591028606
aF19.69684718872047
aF13.165608147068331
aF18.555758342921514
aF18.617440068393034
aa(lp110
F18.89402663240334
aF20.366714600418835
aF25.90283097913885
aF13.996816603102427
aF11.567207052786667
aF15.55057736019679
aF13.299879332141876
aa(lp111
F-0.14136914675414114
aF2.58404180543656
aF22.032143826011392
aF0.0
aF0.19165385126297685
aF6.720938123445569
aF11.082317355011886
aa(lp112
F0.4087458177661829
aF7.536095500177376
aF5.688142703645955
aF28.88235818230366
aF0.0
aF11.266965814730142
aF11.469600516812491
aa(lp113
F0.0
aF6.421553602765293
aF6.025118218981921
aF30.07999024862672
aF9.728469632602165
aF0.2116305000559137
aF0.0
aa(lp114
F6.484312186375966
aF-1.8900497056641097
aF0.0
aF23.845136023081487
aF0.0
aF7.532502442328838
aF-1.0
aa(lp115
F13.031282611452308
aF12.100644614720931
aF28.29588400842468
aF6.128472781101863
aF9.048789547572493
aF11.65551781298575
aF12.689885557206123
aa(lp116
F0.0
aF0.0
aF0.0
aF26.152158717173098
aF0.0
aF0.0
aF3.9641246836827846
aa(lp117
F0.0
aF-1.0
aF24.453005575017915
aF0.0
aF0.0
aF0.0
aF-1.0
aa(lp118
F35.866442037111966
aF22.379626490150713
aF28.715911087526226
aF26.112676916748093
aF18.11163550216213
aF27.320008686234388
aF27.57132237120311
aa(lp119
F34.79387006630579
aF17.210259553221036
aF17.515597763092373
aF16.337435877106813
aF13.068560832998413
aF11.335338577006187
aF10.64479848899577
aa(lp120
F0.0
aF6.981508233362174
aF30.803889681966012
aF11.515453132828316
aF12.020917398130194
aF12.926445369846942
aF17.829200458541315
aa(lp121
F33.52815794461736
aF12.175811190621022
aF19.88615651788545
aF19.26521446538738
aF19.822643105585076
aF17.677826866760626
aF23.519560185473264
aa(lp122
F6.212441231357956
aF8.886943678097284
aF27.46223480269001
aF14.63871024784494
aF10.890383937186254
aF4.75334396845119
aF5.707756141722859
aa(lp123
F33.1577905655642
aF-1.0
aF6.2466527906374845
aF0.0
aF0.0
aF2.859303138192147
aF0.0
aa(lp124
F34.79256414443876
aF15.3606781501955
aF6.989958521754072
aF18.09179886701135
aF16.48514288734163
aF10.84631870661272
aF8.434951966673365
aa(lp125
F0.0
aF5.720437914248234
aF9.364862724270365
aF10.733846498666644
aF2.256025376799619
aF0.8889680046712657
aF26.07929679265401
aa(lp126
F0.0
aF-1.0382090566346809
aF0.6314581156522059
aF0.0
aF-1.0
aF0.2221007845843096
aF16.63903547358757
aa(lp127
F0.0
aF0.0
aF0.0
aF0.0
aF0.0
aF0.0
aF0.0
aa(lp128
F0.0
aF0.0
aF0.0
aF0.0
aF0.0
aF0.0
aF0.0
aa(lp129
F0.0
aF0.0
aF0.0
aF0.0
aF0.0
aF0.0
aF0.0
aa(lp130
F0.0
aF0.0
aF0.0
aF0.0
aF0.0
aF0.0
aF0.0
aa(lp131
F0.0
aF0.0
aF0.0
aF0.0
aF0.0
aF0.0
aF0.0
aa(lp132
F0.0
aF0.0
aF0.0
aF0.0
aF0.0
aF0.0
aF0.0
aa(lp133
F0.0
aF0.0
aF0.0
aF0.0
aF0.0
aF0.0
aF0.0
aa(lp134
F0.0
aF0.0
aF0.0
aF0.0
aF0.0
aF0.0
aF0.0
aa(lp135
F0.0
aF0.0
aF0.0
aF0.0
aF0.0
aF0.0
aF0.0
aa(lp136
F15.447401636682981
aF11.316868312501184
aF24.148503768415754
aF13.30422949702164
aF13.443260720834363
aF13.498276990350432
aF13.670836856090192
aa(lp137
F7.370856020386409
aF24.10385211131732
aF10.6827188873687
aF10.225224427069794
aF9.027096962807557
aF10.023358201383159
aF13.281457507217505
aa(lp138
F-0.2
aF-1.0
aF25.497210220527116
aF-1.0
aF0.0
aF0.0
aF0.0
aa(lp139
F8.677668831954747
aF0.9986106488331452
aF5.214765410348099
aF7.756189701268383
aF29.31470465926943
aF5.491379111243265
aF7.6988864559781
aa(lp140
F3.8417455585412137
aF27.578393570806863
aF6.014619216212213
aF0.0
aF2.111293730279347
aF4.280438474211882
aF8.258150007363371
aa(lp141
F-0.2
aF0.0
aF15.159019889427514
aF0.0
aF0.0
aF4.858600636656748
aF-0.27752454925027836
aa(lp142
F6.287281636749677
aF4.804100676927751
aF22.754775352252768
aF-0.8388306548777286
aF-1.0504879866582204
aF1.7078867972291891
aF5.755630032917415
aa(lp143
F-0.2
aF0.0
aF26.935193990342228
aF0.0
aF-1.0
aF0.0
aF0.0
aa(lp144
F0.0
aF0.0
aF0.0
aF0.0
aF0.0
aF0.0
aF0.0
aa(lp145
F32.32326888444247
aF16.99956463317417
aF23.024165986441982
aF19.006366060639678
aF20.5217008486117
aF24.419216456018216
aF22.74261634227433
aa(lp146
F30.316374446640232
aF16.79244513907711
aF16.811874705522982
aF7.21358205365078
aF14.676330089952693
aF10.275273266446934
aF17.14363455632231
aa(lp147
F29.546794362443343
aF4.094166658946338
aF5.2659126785359724
aF8.300288666221613
aF2.4636934589096064
aF0.0
aF-1.1971593844956683
aa(lp148
F35.45504949248688
aF4.444073589340227
aF10.230667125594932
aF10.034603876393287
aF6.0375321541154365
aF20.625159109233426
aF14.150033048285
aa(lp149
F32.1271216216477
aF0.0
aF5.554859568097462
aF4.639216952407845
aF6.247720325499472
aF0.0
aF6.067345709647581
aa(lp150
F30.516281771248494
aF0.41237615423494633
aF2.162777329338121
aF1.0580020989363395
aF6.0827451517694415
aF0.19556447794719356
aF7.7522957071664145
aa(lp151
F31.265309913807215
aF5.056006136378987
aF5.439018192370739
aF-0.8654269009870839
aF0.0
aF9.718071640441885
aF0.0
aa(lp152
F0.0
aF24.88267172849661
aF0.0
aF-1.0
aF-1.0
aF0.0
aF4.076270374960498
aa(lp153
F0.0
aF0.0
aF0.0
aF0.0
aF0.0
aF0.0
aF0.0
aa(lp154
F0.0
aF0.0
aF0.0
aF0.0
aF0.0
aF0.0
aF0.0
aa(lp155
F0.0
aF0.0
aF0.0
aF0.0
aF0.0
aF0.0
aF0.0
aa(lp156
F0.0
aF0.0
aF0.0
aF0.0
aF0.0
aF0.0
aF0.0
aa(lp157
F0.0
aF0.0
aF0.0
aF0.0
aF0.0
aF0.0
aF0.0
aa(lp158
F0.0
aF0.0
aF0.0
aF0.0
aF0.0
aF0.0
aF0.0
aa(lp159
F0.0
aF0.0
aF0.0
aF0.0
aF0.0
aF0.0
aF0.0
aa(lp160
F0.0
aF0.0
aF0.0
aF0.0
aF0.0
aF0.0
aF0.0
aa(lp161
F0.0
aF0.0
aF0.0
aF0.0
aF0.0
aF0.0
aF0.0
aa(lp162
F0.0
aF0.0
aF0.0
aF0.0
aF0.0
aF0.0
aF0.0
aa(lp163
F2.6278387414880346
aF2.806018989456296
aF1.7907600676127426
aF2.59713990383111
aF7.056422881830535
aF2.7794926730453993
aF2.5763452208848334
aa(lp164
F13.275740562403236
aF27.7661724918633
aF11.728421458043794
aF12.315011425704991
aF13.305882854969683
aF13.363448442837523
aF12.935329272965129
aa(lp165
F1.2278489506784154
aF-0.2377239755043959
aF0.7054827364444567
aF1.2207717797274005
aF16.687057876632586
aF1.240861731258455
aF1.1281379275037562
aa(lp166
F13.106722911798801
aF10.056415212139077
aF13.91677553229211
aF11.64125144562801
aF28.179857034413214
aF15.345675495821645
aF13.349734949684304
aa(lp167
F0.0
aF18.40035080600098
aF12.686571261615226
aF6.0385051339231754
aF26.074119656146824
aF13.83986582449284
aF12.817962968601265
aa(lp168
F7.489678268503134
aF-0.5834732562448535
aF0.0
aF1.7599913173010693
aF23.993326151885487
aF3.3847816055100703
aF0.09052022298370888
aa(lp169
F1.4713990114843096
aF7.507468060318844
aF0.7653016106649824
aF1.450094613069109
aF0.5216175843643963
aF1.4463386898910855
aF0.7422264164270349
aa(lp170
F3.7055831865628757
aF25.4710013738788
aF-1.0
aF8.38947436567863
aF0.0
aF7.8358060419466415
aF-1.0
aa(lp171
F0.0
aF0.0
aF0.0
aF0.0
aF0.0
aF0.0
aF0.0
aa(lp172
F17.827088898287656
aF13.910267079717592
aF11.058204812721392
aF13.90145774874399
aF13.74376069668164
aF13.721982488943096
aF13.817033181557164
aa(lp173
F32.75669900110728
aF15.486651912128725
aF7.926253310295017
aF10.797760596579325
aF15.244290551103276
aF17.490037121156927
aF17.181840461381395
aa(lp174
F22.43262516455014
aF1.59231007180685
aF4.593990903777407
aF4.988178921926568
aF10.11750034505701
aF3.4386939349267402
aF6.1651031301637245
aa(lp175
F33.84826925619019
aF22.85429325323285
aF23.741299606848443
aF14.776701305256665
aF19.762248786165472
aF25.762512085991084
aF21.54192943211002
aa(lp176
F34.43791431556238
aF24.08700934743001
aF12.712456764776821
aF17.790147954288273
aF18.459811904587617
aF11.511348523396567
aF12.274384987857019
aa(lp177
F32.37704524188803
aF0.0
aF0.0
aF0.4239751199298577
aF0.0
aF9.178770358826991
aF8.559644819332188
aa(lp178
F16.329203227993226
aF3.8347959294452663
aF5.598749609149446
aF10.899197671688944
aF5.952140478361068
aF7.541547448136574
aF14.09121182265018
aa(lp179
F31.241392471477212
aF6.031999988591397
aF-1.288664196783764
aF3.2334342512819076
aF0.7827040309964414
aF7.9645837992595
aF5.441681702547319
aa(lp180
F0.0
aF0.0
aF0.0
aF0.0
aF0.0
aF0.0
aF0.0
aa(lp181
F0.0
aF0.0
aF0.0
aF0.0
aF0.0
aF0.0
aF0.0
aa(lp182
F0.0
aF0.0
aF0.0
aF0.0
aF0.0
aF0.0
aF0.0
aa(lp183
F0.0
aF0.0
aF0.0
aF0.0
aF0.0
aF0.0
aF0.0
aa(lp184
F0.0
aF0.0
aF0.0
aF0.0
aF0.0
aF0.0
aF0.0
aa(lp185
F0.0
aF0.0
aF0.0
aF0.0
aF0.0
aF0.0
aF0.0
aa(lp186
F0.0
aF0.0
aF0.0
aF0.0
aF0.0
aF0.0
aF0.0
aa(lp187
F0.0
aF0.0
aF0.0
aF0.0
aF0.0
aF0.0
aF0.0
aa(lp188
F0.0
aF0.0
aF0.0
aF0.0
aF0.0
aF0.0
aF0.0
aa(lp189
F0.0
aF0.0
aF0.0
aF0.0
aF0.0
aF0.0
aF0.0
aa(lp190
F12.55498313779165
aF13.244434968661208
aF13.51603182672721
aF24.237945846933968
aF11.22313933846615
aF13.822722276333387
aF12.864785232693697
aa(lp191
F0.0
aF3.194204656333019
aF3.5538944735558795
aF24.06789885089741
aF0.0
aF0.0
aF0.0
aa(lp192
F0.0
aF0.2499820947477952
aF2.5796627071492604
aF23.488643957175952
aF0.29377691983066284
aF3.0606078053712036
aF3.459755952929267
aa(lp193
F6.926219909876364
aF0.0
aF3.5202302070525833
aF23.419504997309623
aF0.0
aF0.0
aF0.0
aa(lp194
F0.0
aF27.168440108455343
aF11.304658710449015
aF7.891931420019784
aF4.981819480219521
aF9.023470618311524
aF5.596779408502709
aa(lp195
F2.7002299609896054
aF-1.7151611537395581
aF-1.0
aF21.81104407271726
aF3.8943361527676057
aF0.0
aF-1.0
aa(lp196
F0.0
aF2.4198203202040296
aF-1.0
aF23.82938372185268
aF-1.0
aF3.7447954856001604
aF0.0
aa(lp197
F0.0
aF0.0
aF0.0
aF24.407631834237865
aF0.0
aF0.0
aF0.0
aa(lp198
F0.0
aF0.0
aF0.0
aF0.0
aF0.0
aF0.0
aF0.0
aa(lp199
F30.412727850043908
aF19.204163263897883
aF11.230701913382324
aF21.7902612667771
aF17.40877289125713
aF23.798235873205428
aF17.650481809694725
aa(lp200
F16.83588942866514
aF6.628651976261519
aF5.535007624922164
aF29.481945577201817
aF10.746589901234659
aF9.67398103808978
aF7.57702084577547
aa(lp201
F2.8961247998996207
aF3.1401688001208257
aF-1.0
aF29.00681953167783
aF4.317125868529133
aF0.0
aF4.617483961251869
aa(lp202
F19.53271556493591
aF11.133894553916228
aF3.244717331053372
aF29.710504212402775
aF16.999681429886984
aF13.390001434958872
aF15.876317928310666
aa(lp203
F34.39598946916548
aF5.368623024238649
aF-1.0
aF10.337767364571054
aF9.287802064269494
aF9.745945002709593
aF6.754386417794364
aa(lp204
F30.895723459843822
aF3.9576443557027092
aF-1.6055482047063654
aF2.823019073640781
aF0.0
aF0.0
aF8.693100083708716
aa(lp205
F0.0
aF4.631865393705694
aF3.4603164492997687
aF28.868266241632448
aF0.0
aF0.0
aF4.554454927810969
aa(lp206
F0.0
aF0.0
aF0.0
aF29.558878094694165
aF4.29070622175554
aF0.0
aF0.0
aa(lp207
F0.0
aF0.0
aF0.0
aF0.0
aF0.0
aF0.0
aF0.0
aa(lp208
F0.0
aF0.0
aF0.0
aF0.0
aF0.0
aF0.0
aF0.0
aa(lp209
F0.0
aF0.0
aF0.0
aF0.0
aF0.0
aF0.0
aF0.0
aa(lp210
F0.0
aF0.0
aF0.0
aF0.0
aF0.0
aF0.0
aF0.0
aa(lp211
F0.0
aF0.0
aF0.0
aF0.0
aF0.0
aF0.0
aF0.0
aa(lp212
F0.0
aF0.0
aF0.0
aF0.0
aF0.0
aF0.0
aF0.0
aa(lp213
F0.0
aF0.0
aF0.0
aF0.0
aF0.0
aF0.0
aF0.0
aa(lp214
F0.0
aF0.0
aF0.0
aF0.0
aF0.0
aF0.0
aF0.0
aa(lp215
F0.0
aF0.0
aF0.0
aF0.0
aF0.0
aF0.0
aF0.0
aa(lp216
F0.0
aF0.0
aF0.0
aF0.0
aF0.0
aF0.0
aF0.0
aa(lp217
F1.476675305058738
aF1.6454256513198424
aF0.9574277643087257
aF-0.06727389804573453
aF6.968692597075948
aF2.4121325162885876
aF1.247475454306952
aa(lp218
F6.824450225642685
aF23.986295250082307
aF-1.7715002401740707
aF-1.7556424728836084
aF5.23211865823321
aF4.06184889925547
aF-0.09724670507982391
aa(lp219
F0.0
aF0.0
aF0.0
aF0.0
aF0.0
aF0.0
aF0.0
aa(lp220
F-0.2
aF7.594526250234107
aF10.790319323277068
aF3.9484480413531866
aF26.803679617917943
aF8.444214542779989
aF5.0111843664350255
aa(lp221
F0.0
aF25.397019886696953
aF-1.0
aF0.0
aF0.0
aF0.0
aF0.0
aa(lp222
F0.0
aF0.0
aF0.0
aF0.0
aF0.0
aF0.0
aF0.0
aa(lp223
F0.0
aF0.0
aF0.0
aF0.0
aF0.0
aF0.0
aF0.0
aa(lp224
F0.0
aF0.0
aF0.0
aF0.0
aF0.0
aF0.0
aF0.0
aa(lp225
F0.0
aF0.0
aF0.0
aF0.0
aF0.0
aF0.0
aF0.0
aa(lp226
F20.442517087402422
aF0.0
aF2.168147963327489
aF6.740603763486092
aF4.181125476815328
aF6.170592941638283
aF4.246991223101563
aa(lp227
F31.58212710975189
aF5.998227716017919
aF4.371522204949369
aF7.951003678399279
aF0.0
aF0.0
aF9.108990180778168
aa(lp228
F0.0
aF0.0
aF0.0
aF0.0
aF0.0
aF0.0
aF0.0
aa(lp229
F35.166994696580474
aF8.047165162090465
aF8.79777616388494
aF0.0
aF2.2768492533033986
aF6.180023565104668
aF-0.6183274523767868
aa(lp230
F32.838762021400164
aF6.6900659096955195
aF3.92706806055143
aF0.0
aF0.0
aF0.0
aF0.0
aa(lp231
F0.0
aF0.0
aF0.0
aF0.0
aF0.0
aF0.0
aF0.0
aa(lp232
F0.0
aF0.0
aF0.0
aF0.0
aF0.0
aF0.0
aF0.0
aa(lp233
F0.0
aF0.0
aF0.0
aF0.0
aF0.0
aF0.0
aF0.0
aa(lp234
F0.0
aF0.0
aF0.0
aF0.0
aF0.0
aF0.0
aF0.0
aa(lp235
F0.0
aF0.0
aF0.0
aF0.0
aF0.0
aF0.0
aF0.0
aa(lp236
F0.0
aF0.0
aF0.0
aF0.0
aF0.0
aF0.0
aF0.0
aa(lp237
F0.0
aF0.0
aF0.0
aF0.0
aF0.0
aF0.0
aF0.0
aa(lp238
F0.0
aF0.0
aF0.0
aF0.0
aF0.0
aF0.0
aF0.0
aa(lp239
F0.0
aF0.0
aF0.0
aF0.0
aF0.0
aF0.0
aF0.0
aa(lp240
F0.0
aF0.0
aF0.0
aF0.0
aF0.0
aF0.0
aF0.0
aa(lp241
F0.0
aF0.0
aF0.0
aF0.0
aF0.0
aF0.0
aF0.0
aa(lp242
F0.0
aF0.0
aF0.0
aF0.0
aF0.0
aF0.0
aF0.0
aa(lp243
F0.0
aF0.0
aF0.0
aF0.0
aF0.0
aF0.0
aF0.0
aa.