(lp0
(lp1
F4.936473454851306
aF5.87632197555449
aF3.5187189419228
aF3.504649112681822
aF3.5128181881501805
aF3.5253373196017397
aF11.44316785075665
aa(lp2
F17.188607603012457
aF20.486089408392488
aF15.135190483573922
aF12.672571901788722
aF14.324720093355342
aF15.88483468525918
aF14.072971318186195
aa(lp3
F2.939591644369419
aF1.2109098403217868
aF9.791523575303586
aF3.060041728871081
aF2.5699483474805507
aF3.049873993738352
aF3.288021966575701
aa(lp4
F15.757675042343866
aF13.96144263023465
aF13.66815286194182
aF13.244948597446239
aF26.430945100241388
aF14.373635316579291
aF15.26580994660864
aa(lp5
F17.559917253248738
aF15.612294817729495
aF15.109299960325759
aF14.639279957938273
aF29.589179068870532
aF15.4475458505913
aF15.42372951727095
aa(lp6
F15.34302739097146
aF13.39455047418797
aF13.230577393654418
aF11.719001107474824
aF21.23146243904379
aF13.81483150638095
aF13.055933750837765
aa(lp7
F2.2607343452321977
aF2.488941528805345
aF2.4941740812751183
aF12.362756956484002
aF0.9058532918929694
aF2.5011604997411947
aF1.19205718737222
aa(lp8
F14.054433508925918
aF24.665205430577515
aF12.251863788187428
aF13.19476248455051
aF12.784039605407765
aF13.144164316946586
aF12.906186198429527
aa(lp9
F2.6196777120032753
aF0.1506241289047111
aF2.6481057671407964
aF9.594583017054045
aF1.3744987383306069
aF2.648497518205017
aF2.1607967514147743
aa(lp10
F21.909688247588573
aF15.9526338693736
aF15.78005981904931
aF16.734662423285986
aF17.05451288673016
aF16.00512475897059
aF17.141329934169487
aa(lp11
F30.52156467445841
aF27.281042069929022
aF24.700840732734065
aF23.701454387428505
aF24.63575120112052
aF28.016756488102082
aF25.41979681604568
aa(lp12
F18.532451783576658
aF12.335717535884266
aF14.076965814625952
aF14.130688475449222
aF14.136671278514516
aF14.958055842133202
aF12.947999299651293
aa(lp13
F34.58299200403128
aF24.21721488879963
aF24.294662394943156
aF23.5957086308836
aF27.494821684542618
aF25.78517166079376
aF25.500567899344464
aa(lp14
F35.04887541464144
aF28.048421699596307
aF24.163163394789144
aF23.40909981362733
aF28.27380937925777
aF28.42299712999408
aF27.827192840226445
aa(lp15
F30.75969960764236
aF21.475328424976695
aF24.05043057867237
aF19.552647973499035
aF24.39621710681555
aF25.715724648566827
aF23.470752181141865
aa(lp16
F19.442374546318227
aF14.378901564230269
aF14.515236554793152
aF14.483908821028411
aF11.082773273383646
aF14.158430760602073
aF13.705834176615012
aa(lp17
F33.49936434217501
aF24.22988980845076
aF20.071411142903905
aF24.152564123570233
aF18.7476762479192
aF25.508902099185267
aF22.604521457379562
aa(lp18
F19.647228217770184
aF4.1829862396301145
aF13.115678565079866
aF13.193621724617962
aF6.311182428164483
aF11.969636956750787
aF11.9637382046803
aa(lp19
F0.0
aF0.0
aF0.0
aF0.0
aF0.0
aF0.0
aF0.0
aa(lp20
F0.0
aF0.0
aF0.0
aF0.0
aF0.0
aF0.0
aF0.0
aa(lp21
F0.0
aF0.0
aF0.0
aF0.0
aF0.0
aF0.0
aF0.0
aa(lp22
F0.0
aF0.0
aF0.0
aF0.0
aF0.0
aF0.0
aF0.0
aa(lp23
F0.0
aF0.0
aF0.0
aF0.0
aF0.0
aF0.0
aF0.0
aa(lp24
F0.0
aF0.0
aF0.0
aF0.0
aF0.0
aF0.0
aF0.0
aa(lp25
F0.0
aF0.0
aF0.0
aF0.0
aF0.0
aF0.0
aF0.0
aa(lp26
F0.0
aF0.0
aF0.0
aF0.0
aF0.0
aF0.0
aF0.0
aa(lp27
F0.0
aF0.0
aF0.0
aF0.0
aF0.0
aF0.0
aF0.0
aa(lp28
F15.659106934484319
aF13.534248411735199
aF13.116841249534446
aF27.293751613161852
aF13.314479697409908
aF16.998939292191693
aF14.944893278002196
aa(lp29
F17.44991328469925
aF27.07576838074609
aF18.40772353529676
aF20.60614667230756
aF17.186659849011537
aF16.26254776002518
aF17.92407601006723
aa(lp30
F14.241959486086955
aF11.592231031865571
aF11.91843317108402
aF21.75056489792216
aF11.897091930535028
aF13.689031323059034
aF11.419995122232402
aa(lp31
F16.956867088837726
aF14.78533466477577
aF12.412725920203656
aF21.639196071830064
aF27.764145271306596
aF15.553140514818773
aF16.905561433716787
aa(lp32
F16.500520176963633
aF28.98754189079892
aF5.516704909993338
aF19.88327276180593
aF17.677380273885213
aF18.185462282769876
aF12.271875404180163
aa(lp33
F12.601636748114746
aF13.53891090632864
aF10.689372604256256
aF21.961036352409867
aF13.809231149203777
aF6.305537347078557
aF12.40706786777851
aa(lp34
F13.639462425172402
aF12.3372466527545
aF12.7785702715946
aF23.497112601529334
aF13.579049846442372
aF13.683161629500065
aF12.551534682389137
aa(lp35
F4.606904669159682
aF15.030070570332235
aF10.50534560999493
aF27.20439031662134
aF9.914415805992459
aF14.700385024524753
aF13.676517067904934
aa(lp36
F-0.2
aF2.7940792272974377
aF0.3480092558314294
aF20.69633249863695
aF0.0
aF3.104974800010007
aF5.36264483356511
aa(lp37
F34.4948632232783
aF25.234822371895497
aF24.210251241072207
aF27.137295806433542
aF24.71605607413408
aF27.740167000085272
aF25.13616752045847
aa(lp38
F34.838379794930376
aF27.725577172312555
aF22.777467890093007
aF28.851917925310186
aF23.464586670196674
aF28.742760983092086
aF27.71862470073552
aa(lp39
F29.796481490575832
aF22.530112732480895
aF20.523044547893903
aF22.853171443730538
aF21.029637198391896
aF24.80113361688276
aF22.809404493368884
aa(lp40
F34.27255807932728
aF20.55289367309278
aF22.87160265251012
aF28.710904493386135
aF27.980782928703405
aF28.130630659095637
aF26.563879587161768
aa(lp41
F34.042651892745084
aF18.422423686398872
aF20.66805438641825
aF26.438803328267444
aF25.74242612923533
aF25.700601517290906
aF21.623492305806256
aa(lp42
F29.45101350566985
aF3.9885770953714643
aF11.387238169050905
aF19.071104192258954
aF0.7357413815577942
aF12.883531702285737
aF8.930406677841244
aa(lp43
F31.307279003204304
aF18.183880845456166
aF16.620298131961338
aF9.733089992804548
aF22.922563074942342
aF21.794103068241988
aF20.870278547164446
aa(lp44
F34.15406717846767
aF12.280729209559423
aF16.92767717492446
aF18.147784758425786
aF11.67622826590747
aF16.628888182551048
aF20.676667296852813
aa(lp45
F0.0
aF3.227108374404363
aF4.054999978368752
aF27.38061961851827
aF0.0
aF4.904370603298078
aF4.356143162024236
aa(lp46
F0.0
aF0.0
aF0.0
aF0.0
aF0.0
aF0.0
aF0.0
aa(lp47
F0.0
aF0.0
aF0.0
aF0.0
aF0.0
aF0.0
aF0.0
aa(lp48
F0.0
aF0.0
aF0.0
aF0.0
aF0.0
aF0.0
aF0.0
aa(lp49
F0.0
aF0.0
aF0.0
aF0.0
aF0.0
aF0.0
aF0.0
aa(lp50
F0.0
aF0.0
aF0.0
aF0.0
aF0.0
aF0.0
aF0.0
aa(lp51
F0.0
aF0.0
aF0.0
aF0.0
aF0.0
aF0.0
aF0.0
aa(lp52
F0.0
aF0.0
aF0.0
aF0.0
aF0.0
aF0.0
aF0.0
aa(lp53
F0.0
aF0.0
aF0.0
aF0.0
aF0.0
aF0.0
aF0.0
aa(lp54
F0.0
aF0.0
aF0.0
aF0.0
aF0.0
aF0.0
aF0.0
aa(lp55
F3.0694426756708557
aF7.956456053532882
aF2.491531194780541
aF1.2621604398362551
aF2.4876347642035834
aF2.485704033500185
aF1.4843298338701403
aa(lp56
F13.43648503439013
aF23.481872575213494
aF10.259589810081838
aF12.481183377176388
aF13.133240729904667
aF13.765852817540301
aF12.579662614485779
aa(lp57
F1.4153637237447951
aF1.0651242831737089
aF2.461517458924801
aF-0.28704400779990946
aF8.950230143858912
aF2.147850674296532
aF1.5498935114319181
aa(lp58
F16.086054882615784
aF11.61061583123583
aF13.361039131134405
aF13.71999350476036
aF25.06326458830585
aF12.298216078391093
aF13.435836002527864
aa(lp59
F14.278675866026568
aF12.818245047797568
aF8.318279881021619
aF3.4068760334918085
aF22.6442876955804
aF11.119936922329021
aF14.317990745725556
aa(lp60
F6.880407489835786
aF-0.47547123705812355
aF6.264823898509821
aF1.546460019748915
aF22.174632411580244
aF0.0
aF7.657705382962877
aa(lp61
F0.4524225077058947
aF12.877171476259573
aF2.061709725593546
aF-0.37413351201842304
aF-0.7734146201302237
aF0.0694248287074814
aF-0.7214307902988866
aa(lp62
F3.4544443142090957
aF24.002973509248346
aF4.5349442084171185
aF4.157184010281705
aF3.257286088270515
aF0.0
aF0.0
aa(lp63
F0.0
aF0.0
aF0.0
aF0.0
aF0.0
aF0.0
aF0.0
aa(lp64
F18.16087796054721
aF14.060915801695481
aF14.041134795665016
aF12.331243084464493
aF13.787730285349562
aF13.932873174133633
aF13.723885468040434
aa(lp65
F31.594365991648026
aF25.58116998631078
aF18.58896300759788
aF20.786619562037984
aF24.642357597546667
aF26.13677509967264
aF18.713428194352595
aa(lp66
F17.46427369256424
aF7.018655490657694
aF13.365616714673445
aF3.231184605651703
aF10.864188428180782
aF8.414405932564193
aF7.888632895185955
aa(lp67
F34.14223424747214
aF19.305133682513855
aF17.002717083668173
aF19.134559230816002
aF21.80933870397402
aF18.07306381255089
aF25.23137264175485
aa(lp68
F32.38502208794175
aF6.813088239689856
aF13.359438464574263
aF11.734421563194743
aF17.92743906574249
aF20.80256741332478
aF20.18951314167511
aa(lp69
F29.088723997978498
aF4.466432594655935
aF4.728963582969197
aF0.0
aF9.857425952592688
aF12.558493850593976
aF0.0
aa(lp70
F18.23846288012413
aF6.777559000772291
aF4.948484232744499
aF2.8886546922236533
aF2.5059296232142447
aF6.606944017051616
aF11.336839831036352
aa(lp71
F10.74550684044164
aF26.121499838029344
aF0.0
aF-0.3205614502078019
aF3.560327148243715
aF0.8955257094183587
aF8.957153839254616
aa(lp72
F0.0
aF0.0
aF0.0
aF0.0
aF0.0
aF0.0
aF0.0
aa(lp73
F0.0
aF0.0
aF0.0
aF0.0
aF0.0
aF0.0
aF0.0
aa(lp74
F0.0
aF0.0
aF0.0
aF0.0
aF0.0
aF0.0
aF0.0
aa(lp75
F0.0
aF0.0
aF0.0
aF0.0
aF0.0
aF0.0
aF0.0
aa(lp76
F0.0
aF0.0
aF0.0
aF0.0
aF0.0
aF0.0
aF0.0
aa(lp77
F0.0
aF0.0
aF0.0
aF0.0
aF0.0
aF0.0
aF0.0
aa(lp78
F0.0
aF0.0
aF0.0
aF0.0
aF0.0
aF0.0
aF0.0
aa(lp79
F0.0
aF0.0
aF0.0
aF0.0
aF0.0
aF0.0
aF0.0
aa(lp80
F0.0
aF0.0
aF0.0
aF0.0
aF0.0
aF0.0
aF0.0
aa(lp81
F0.0
aF0.0
aF0.0
aF0.0
aF0.0
aF0.0
aF0.0
aa(lp82
F15.701672551815442
aF14.519154178977907
aF27.062966785386006
aF11.87852609831424
aF11.523584607292447
aF14.806921243075369
aF14.881409417889913
aa(lp83
F15.394562404425802
aF25.43182378640592
aF18.604987452640128
aF16.181807295059496
aF12.772459495147233
aF18.264009632216343
aF15.6547240125195
aa(lp84
F0.0997235002178881
aF-1.6556429927257044
aF25.56367330681798
aF12.508660028338799
aF6.23788783382014
aF0.3929199086037663
aF0.0
aa(lp85
F19.642547607882594
aF13.894828140674141
aF20.30215015430993
aF18.054820928196882
aF22.799842871068638
aF19.694929979337065
aF16.448782799272784
aa(lp86
F4.296878143133873
aF0.6451177508066197
aF0.0
aF2.3352236624861162
aF11.431955463916768
aF6.926822618396468
aF23.13240638273543
aa(lp87
F4.390831367626391
aF-1.0
aF27.08745069872704
aF0.0
aF0.0
aF0.0
aF5.7000382360952
aa(lp88
F13.770257033839568
aF13.434752737841473
aF26.915909215605964
aF13.971822082021975
aF14.17507012422257
aF13.159934895697354
aF12.556790506888653
aa(lp89
F10.886011804634077
aF26.323683647350393
aF10.33225753872644
aF11.60546204726149
aF1.1294324783516174
aF7.276228127185728
aF9.601057055785116
aa(lp90
F2.989568909937463
aF-1.0
aF23.04745560800952
aF3.8486012564517544
aF5.718989864861998
aF0.0
aF1.703288006508777
aa(lp91
F35.53703079595245
aF24.30068868383985
aF27.582838154300774
aF25.064769100533976
aF23.40278331846277
aF26.25309868511132
aF25.237951293042414
aa(lp92
F34.12690104076773
aF28.888038780784655
aF26.792800753158957
aF23.21108033391866
aF22.99532456792875
aF25.28439762123648
aF27.165575377188148
aa(lp93
F0.0
aF18.94090533662107
aF31.19809977557908
aF18.5418032997661
aF16.02764424425304
aF16.007946469089706
aF16.308882086928424
aa(lp94
F32.863894412661736
aF24.021790434484934
aF28.51969590678731
aF22.581777501343737
aF29.51719478747471
aF29.316898577016417
aF26.885809315688906
aa(lp95
F21.046144074154427
aF23.951925695718394
aF29.879122538308554
aF16.99005618164773
aF24.009014531169814
aF23.79541890406187
aF23.387510516475736
aa(lp96
F20.56881032254919
aF10.606943985851526
aF29.84038516017771
aF10.86608879866583
aF16.586079539852005
aF12.750986248894776
aF10.0908223322882
aa(lp97
F32.738465321169585
aF19.71209689577097
aF25.062979269123865
aF21.83027173050344
aF10.94806265406379
aF26.416104865946757
aF21.319329040451414
aa(lp98
F30.492884431350085
aF2.665816920555294
aF9.59049090978493
aF13.586962562080684
aF10.614144339550762
aF17.966160561901678
aF18.57269238625549
aa(lp99
F30.15224785445641
aF3.645372060921054
aF5.717159310918526
aF4.69324487056349
aF3.3897651241360682
aF5.326764034262182
aF7.878246016513256
aa(lp100
F0.0
aF0.0
aF0.0
aF0.0
aF0.0
aF0.0
aF0.0
aa(lp101
F0.0
aF0.0
aF0.0
aF0.0
aF0.0
aF0.0
aF0.0
aa(lp102
F0.0
aF0.0
aF0.0
aF0.0
aF0.0
aF0.0
aF0.0
aa(lp103
F0.0
aF0.0
aF0.0
aF0.0
aF0.0
aF0.0
aF0.0
aa(lp104
F0.0
aF0.0
aF0.0
aF0.0
aF0.0
aF0.0
aF0.0
aa(lp105
F0.0
aF0.0
aF0.0
aF0.0
aF0.0
aF0.0
aF0.0
aa(lp106
F0.0
aF0.0
aF0.0
aF0.0
aF0.0
aF0.0
aF0.0
aa(lp107
F0.0
aF0.0
aF0.0
aF0.0
aF0.0
aF0.0
aF0.0
aa(lp108
F0.0
aF0.0
aF0.0
aF0.0
aF0.0
aF0.0
aF0.0
aa(lp109
F17.532442972366876
aF17.27204981440083
aF17.66895268899554
aF25.160359946567496
aF12.313662836889272
aF17.84293810760057
aF20.250421067721092
aa(lp110
F18.443170410376155
aF23.402705449963452
aF18.41525086251253
aF18.912711000187834
aF12.884794196297438
aF18.81399173361748
aF12.5168499580074
aa(lp111
F4.056094039369114
aF5.374190914927015
aF28.352403013006313
aF5.4550193304601775
aF0.19165385126297685
aF10.161735176338262
aF11.082317355011886
aa(lp112
F5.388749211000613
aF12.171877724501819
aF14.435496677493155
aF26.966061551070737
aF12.723215441256936
aF13.738548356131059
aF11.469600516812491
aa(lp113
F0.0
aF6.421553602765293
aF6.025118218981921
aF26.7085802157171
aF9.728469632602165
aF0.2116305000559137
aF0.0
aa(lp114
F6.484312186375966
aF-1.8900497056641097
aF0.0
aF26.877851436764182
aF4.437126900351418
aF7.532502442328838
aF5.487555146458409
aa(lp115
F14.343426185300295
aF11.467119364124226
aF23.86414284930583
aF6.128472781101863
aF11.041112588808716
aF11.65551781298575
aF12.689885557206123
aa(lp116
F0.0
aF0.0
aF0.0
aF16.903180344654867
aF0.0
aF0.0
aF3.9641246836827846
aa(lp117
F0.0
aF-1.0
aF23.38139422307946
aF0.0
aF0.0
aF0.0
aF-1.0
aa(lp118
F33.747999162045986
aF23.026492915434186
aF28.79259719672306
aF29.114959766653207
aF22.685867113340922
aF28.58955061574143
aF27.623236886164733
aa(lp119
F32.88276572474467
aF23.014645029395336
aF17.515597763092373
aF16.337435877106813
aF19.933224918567355
aF15.077262190233895
aF17.014480361935384
aa(lp120
F11.093503534050082
aF6.981508233362174
aF29.67291831359479
aF17.180840900796966
aF12.020917398130194
aF12.926445369846942
aF20.220871430058686
aa(lp121
F32.86738348840031
aF15.064412770298642
aF25.732999757489036
aF22.01365845862802
aF21.18046221524449
aF17.677826866760626
aF25.197790522442936
aa(lp122
F11.743686863026918
aF8.886943678097284
aF30.064373070438176
aF17.898018436837454
aF17.176113446435018
aF4.75334396845119
aF9.9724352270387
aa(lp123
F31.393397005456684
aF-1.0
aF6.2466527906374845
aF0.0
aF0.0
aF2.859303138192147
aF0.0
aa(lp124
F32.70144748071244
aF15.3606781501955
aF6.989958521754072
aF18.09179886701135
aF18.267650751422984
aF14.535505406617384
aF8.434951966673365
aa(lp125
F0.0
aF5.720437914248234
aF9.364862724270365
aF10.733846498666644
aF2.256025376799619
aF0.8889680046712657
aF21.498732782430398
aa(lp126
F0.0
aF-1.0382090566346809
aF0.6314581156522059
aF0.0
aF-1.0
aF0.2221007845843096
aF23.37158798239106
aa(lp127
F0.0
aF0.0
aF0.0
aF0.0
aF0.0
aF0.0
aF0.0
aa(lp128
F0.0
aF0.0
aF0.0
aF0.0
aF0.0
aF0.0
aF0.0
aa(lp129
F0.0
aF0.0
aF0.0
aF0.0
aF0.0
aF0.0
aF0.0
aa(lp130
F0.0
aF0.0
aF0.0
aF0.0
aF0.0
aF0.0
aF0.0
aa(lp131
F0.0
aF0.0
aF0.0
aF0.0
aF0.0
aF0.0
aF0.0
aa(lp132
F0.0
aF0.0
aF0.0
aF0.0
aF0.0
aF0.0
aF0.0
aa(lp133
F0.0
aF0.0
aF0.0
aF0.0
aF0.0
aF0.0
aF0.0
aa(lp134
F0.0
aF0.0
aF0.0
aF0.0
aF0.0
aF0.0
aF0.0
aa(lp135
F0.0
aF0.0
aF0.0
aF0.0
aF0.0
aF0.0
aF0.0
aa(lp136
F12.834539631513513
aF9.91872027830745
aF25.044751058877846
aF12.64711896741617
aF12.838620589305453
aF13.175426482485452
aF14.153922895663129
aa(lp137
F13.681265863185374
aF17.923932166201944
aF10.6827188873687
aF12.01987683174631
aF12.188838601296506
aF14.633249513000784
aF13.063951091583451
aa(lp138
F-0.2
aF-1.0
aF23.029200369772397
aF-1.0
aF1.2181987133141177
aF0.0
aF0.0
aa(lp139
F12.37377912102013
aF1.6593477322549028
aF5.214765410348099
aF11.885243452388075
aF19.768532383039407
aF5.491379111243265
aF9.461139728140775
aa(lp140
F3.8417455585412137
aF22.41571195403634
aF6.014619216212213
aF0.0
aF2.111293730279347
aF4.280438474211882
aF8.258150007363371
aa(lp141
F-0.2
aF0.0
aF25.354212307254222
aF0.0
aF0.0
aF4.858600636656748
aF-0.27752454925027836
aa(lp142
F6.287281636749677
aF4.804100676927751
aF21.49659546217191
aF-0.8388306548777286
aF-1.0504879866582204
aF1.7078867972291891
aF5.755630032917415
aa(lp143
F-0.2
aF0.0
aF26.61206081326743
aF0.0
aF-1.0
aF0.0
aF0.0
aa(lp144
F0.0
aF0.0
aF0.0
aF0.0
aF0.0
aF0.0
aF0.0
aa(lp145
F32.80098114103279
aF19.54361444954526
aF25.381329372328192
aF22.06295081546913
aF22.18389474320513
aF25.185744314438722
aF22.916405803505477
aa(lp146
F27.18919657543586
aF16.79244513907711
aF19.024108687029468
aF7.21358205365078
aF19.00191820866398
aF10.275273266446934
aF21.64474274688406
aa(lp147
F29.381488167954878
aF4.094166658946338
aF5.2659126785359724
aF11.527024431809211
aF2.4636934589096064
aF5.6975762383186215
aF8.44751543982039
aa(lp148
F29.423715164423363
aF4.444073589340227
aF17.250134024448624
aF10.034603876393287
aF6.0375321541154365
aF20.625159109233426
aF16.168850467653677
aa(lp149
F34.66695644515611
aF0.0
aF5.554859568097462
aF8.558759212662489
aF6.247720325499472
aF0.0
aF6.067345709647581
aa(lp150
F32.646661198929635
aF0.41237615423494633
aF6.443117456481082
aF1.0580020989363395
aF6.0827451517694415
aF0.19556447794719356
aF7.7522957071664145
aa(lp151
F26.977248974504896
aF5.056006136378987
aF10.410234033758554
aF7.385020906648169
aF0.0
aF12.838100129503356
aF0.0
aa(lp152
F0.0
aF27.244891349473466
aF8.097788998821159
aF-1.0
aF-1.0
aF0.0
aF4.076270374960498
aa(lp153
F0.0
aF0.0
aF0.0
aF0.0
aF0.0
aF0.0
aF0.0
aa(lp154
F0.0
aF0.0
aF0.0
aF0.0
aF0.0
aF0.0
aF0.0
aa(lp155
F0.0
aF0.0
aF0.0
aF0.0
aF0.0
aF0.0
aF0.0
aa(lp156
F0.0
aF0.0
aF0.0
aF0.0
aF0.0
aF0.0
aF0.0
aa(lp157
F0.0
aF0.0
aF0.0
aF0.0
aF0.0
aF0.0
aF0.0
aa(lp158
F0.0
aF0.0
aF0.0
aF0.0
aF0.0
aF0.0
aF0.0
aa(lp159
F0.0
aF0.0
aF0.0
aF0.0
aF0.0
aF0.0
aF0.0
aa(lp160
F0.0
aF0.0
aF0.0
aF0.0
aF0.0
aF0.0
aF0.0
aa(lp161
F0.0
aF0.0
aF0.0
aF0.0
aF0.0
aF0.0
aF0.0
aa(lp162
F0.0
aF0.0
aF0.0
aF0.0
aF0.0
aF0.0
aF0.0
aa(lp163
F2.9764653709421545
aF3.1845788574236567
aF1.9358843470234128
aF13.256599182686061
aF2.5941598622580346
aF2.7747893288032923
aF2.6736302083436394
aa(lp164
F14.060816721721704
aF26.562942297765943
aF14.326636494069337
aF13.880111180159961
aF11.62923522103006
aF14.128593806506426
aF13.134941619928668
aa(lp165
F-0.006162453916747579
aF-0.4150879241289541
aF0.3872567237518105
aF2.9891478274964913
aF0.16314536319289932
aF2.1565128689446253
aF1.0875126974812532
aa(lp166
F13.54107277030648
aF15.745540994505816
aF12.703337859859822
aF11.137844466886738
aF27.150922936913577
aF15.68219644516316
aF11.296076133013782
aa(lp167
F4.561125387635317
aF26.98241472322445
aF17.750583656946883
aF7.68972115860133
aF18.84453975332166
aF17.01558801822864
aF12.28509406645021
aa(lp168
F10.057171835561245
aF-0.5834732562448535
aF0.0
aF3.3067079685655933
aF20.3315000988574
aF3.3847816055100703
aF0.09052022298370888
aa(lp169
F2.545667266498739
aF12.32957458139289
aF0.8144819157341103
aF2.8534326376422996
aF0.6039096034404133
aF2.833059958816366
aF2.2758845072559195
aa(lp170
F3.7055831865628757
aF21.279495719420936
aF-1.0
aF8.38947436567863
aF0.0
aF13.526517152066997
aF-1.0
aa(lp171
F0.0
aF0.0
aF0.0
aF0.0
aF0.0
aF0.0
aF0.0
aa(lp172
F22.368847604336974
aF14.663818721072884
aF11.820860059998811
aF13.738152968935685
aF14.109873731320139
aF14.127726913159574
aF13.895002707426567
aa(lp173
F33.3878872465439
aF19.312210593876728
aF11.405894886157405
aF15.832866964839447
aF18.830470755435883
aF25.420301473518812
aF22.990159957506176
aa(lp174
F19.269562332180804
aF4.4231706547139575
aF4.593990903777407
aF8.173515131162882
aF12.02496590122659
aF3.4386939349267402
aF9.166604365062575
aa(lp175
F34.41819395567408
aF23.40775483922277
aF24.577060539480048
aF19.905531335258516
aF23.69420426622271
aF25.32141186501775
aF22.305168130102437
aa(lp176
F35.5826293121134
aF24.08700934743001
aF12.712456764776821
aF18.732263227728218
aF21.9156965875055
aF15.443884988384802
aF20.074185765193022
aa(lp177
F27.963591099143706
aF0.0
aF4.525434136306279
aF0.4239751199298577
aF0.0
aF9.178770358826991
aF8.559644819332188
aa(lp178
F19.593816251925787
aF7.139636605384068
aF7.0394975043110595
aF13.158342886349654
aF5.952140478361068
aF11.88743092583234
aF12.897453089469963
aa(lp179
F29.062318626160142
aF6.031999988591397
aF4.016717571850049
aF3.2334342512819076
aF5.452277676737288
aF11.979711510418895
aF5.441681702547319
aa(lp180
F0.0
aF0.0
aF0.0
aF0.0
aF0.0
aF0.0
aF0.0
aa(lp181
F0.0
aF0.0
aF0.0
aF0.0
aF0.0
aF0.0
aF0.0
aa(lp182
F0.0
aF0.0
aF0.0
aF0.0
aF0.0
aF0.0
aF0.0
aa(lp183
F0.0
aF0.0
aF0.0
aF0.0
aF0.0
aF0.0
aF0.0
aa(lp184
F0.0
aF0.0
aF0.0
aF0.0
aF0.0
aF0.0
aF0.0
aa(lp185
F0.0
aF0.0
aF0.0
aF0.0
aF0.0
aF0.0
aF0.0
aa(lp186
F0.0
aF0.0
aF0.0
aF0.0
aF0.0
aF0.0
aF0.0
aa(lp187
F0.0
aF0.0
aF0.0
aF0.0
aF0.0
aF0.0
aF0.0
aa(lp188
F0.0
aF0.0
aF0.0
aF0.0
aF0.0
aF0.0
aF0.0
aa(lp189
F0.0
aF0.0
aF0.0
aF0.0
aF0.0
aF0.0
aF0.0
aa(lp190
F13.7206343285701
aF13.591540172008376
aF14.027802082912977
aF23.73320615880604
aF12.193624591331751
aF14.014604681076818
aF12.224751110345482
aa(lp191
F0.0
aF3.194204656333019
aF6.655538414851919
aF24.844293100688127
aF0.0
aF4.390486426619714
aF0.0
aa(lp192
F0.0
aF0.2499820947477952
aF2.5796627071492604
aF21.598827492641917
aF2.6100096765796015
aF3.0606078053712036
aF3.459755952929267
aa(lp193
F6.926219909876364
aF0.0
aF3.5202302070525833
aF23.800989172668444
aF0.0
aF3.859598615320051
aF0.0
aa(lp194
F0.0
aF27.089224310929986
aF11.304658710449015
aF7.891931420019784
aF13.255195864850876
aF12.12643297586458
aF8.639299506742105
aa(lp195
F2.7002299609896054
aF-1.7151611537395581
aF-1.0
aF22.96993718866743
aF3.8943361527676057
aF0.0
aF-1.0
aa(lp196
F0.0
aF4.1693602149176385
aF-1.0
aF21.4877878605171
aF-1.0
aF3.7447954856001604
aF0.0
aa(lp197
F0.0
aF0.0
aF0.0
aF23.591180570410636
aF0.0
aF2.859676196774839
aF0.0
aa(lp198
F0.0
aF0.0
aF0.0
aF0.0
aF0.0
aF0.0
aF0.0
aa(lp199
F32.52126582724917
aF20.890790394675925
aF17.29728167279739
aF24.082593754003863
aF17.40877289125713
aF25.51043486957176
aF20.12683181566393
aa(lp200
F16.83588942866514
aF10.559875718855489
aF8.900137356296772
aF29.607225132650175
aF14.588321098106354
aF13.182860889068685
aF7.57702084577547
aa(lp201
F2.8961247998996207
aF3.1401688001208257
aF-1.0
aF28.28265722949402
aF9.926509158427006
aF0.0
aF4.617483961251869
aa(lp202
F29.50840319990077
aF17.192944408902243
aF9.981151334970027
aF24.291660209584265
aF23.632078402003568
aF18.049619325366674
aF19.10946797595493
aa(lp203
F37.220317460214574
aF9.947363673984967
aF-1.0
aF14.537487257527818
aF12.73721981665519
aF9.745945002709593
aF6.754386417794364
aa(lp204
F30.153542292386845
aF3.9576443557027092
aF-1.6055482047063654
aF2.823019073640781
aF0.0
aF0.0
aF8.693100083708716
aa(lp205
F5.561841780524014
aF4.631865393705694
aF3.4603164492997687
aF28.337699675724792
aF3.844547889381349
aF0.0
aF4.554454927810969
aa(lp206
F0.0
aF0.0
aF0.0
aF28.479683246715293
aF4.29070622175554
aF0.0
aF0.0
aa(lp207
F0.0
aF0.0
aF0.0
aF0.0
aF0.0
aF0.0
aF0.0
aa(lp208
F0.0
aF0.0
aF0.0
aF0.0
aF0.0
aF0.0
aF0.0
aa(lp209
F0.0
aF0.0
aF0.0
aF0.0
aF0.0
aF0.0
aF0.0
aa(lp210
F0.0
aF0.0
aF0.0
aF0.0
aF0.0
aF0.0
aF0.0
aa(lp211
F0.0
aF0.0
aF0.0
aF0.0
aF0.0
aF0.0
aF0.0
aa(lp212
F0.0
aF0.0
aF0.0
aF0.0
aF0.0
aF0.0
aF0.0
aa(lp213
F0.0
aF0.0
aF0.0
aF0.0
aF0.0
aF0.0
aF0.0
aa(lp214
F0.0
aF0.0
aF0.0
aF0.0
aF0.0
aF0.0
aF0.0
aa(lp215
F0.0
aF0.0
aF0.0
aF0.0
aF0.0
aF0.0
aF0.0
aa(lp216
F0.0
aF0.0
aF0.0
aF0.0
aF0.0
aF0.0
aF0.0
aa(lp217
F2.2509083247131105
aF12.306222711149188
aF1.2934269385428068
aF1.0562266181247457
aF1.9918267743575924
aF2.3585184156979575
aF1.8482042413412307
aa(lp218
F6.824450225642685
aF24.14380884399833
aF-1.7715002401740707
aF-1.7556424728836084
aF5.23211865823321
aF4.06184889925547
aF4.588609639798653
aa(lp219
F0.0
aF0.0
aF0.0
aF0.0
aF0.0
aF0.0
aF0.0
aa(lp220
F-0.2
aF7.594526250234107
aF11.707335674471434
aF5.4463467950562885
aF27.067952707574428
aF12.026362320928513
aF13.78165669630945
aa(lp221
F0.0
aF27.491780403404164
aF-1.0
aF0.0
aF0.0
aF0.0
aF0.0
aa(lp222
F0.0
aF0.0
aF0.0
aF0.0
aF0.0
aF0.0
aF0.0
aa(lp223
F0.0
aF0.0
aF0.0
aF0.0
aF0.0
aF0.0
aF0.0
aa(lp224
F0.0
aF0.0
aF0.0
aF0.0
aF0.0
aF0.0
aF0.0
aa(lp225
F0.0
aF0.0
aF0.0
aF0.0
aF0.0
aF0.0
aF0.0
aa(lp226
F19.57158491665086
aF4.400879407400494
aF4.868995792992185
aF8.017925316065481
aF7.330342934067453
aF8.210810847224959
aF6.115484750414558
aa(lp227
F30.125515525855707
aF5.998227716017919
aF4.371522204949369
aF7.951003678399279
aF0.0
aF0.0
aF9.108990180778168
aa(lp228
F0.0
aF0.0
aF0.0
aF0.0
aF0.0
aF0.0
aF0.0
aa(lp229
F31.945444644360855
aF8.047165162090465
aF8.79777616388494
aF0.0
aF2.2768492533033986
aF6.180023565104668
aF-0.6183274523767868
aa(lp230
F37.11555753913539
aF6.6900659096955195
aF3.92706806055143
aF0.0
aF0.0
aF5.959675007729223
aF0.0
aa(lp231
F0.0
aF0.0
aF0.0
aF0.0
aF0.0
aF0.0
aF0.0
aa(lp232
F0.0
aF0.0
aF0.0
aF0.0
aF0.0
aF0.0
aF0.0
aa(lp233
F0.0
aF0.0
aF0.0
aF0.0
aF0.0
aF0.0
aF0.0
aa(lp234
F0.0
aF0.0
aF0.0
aF0.0
aF0.0
aF0.0
aF0.0
aa(lp235
F0.0
aF0.0
aF0.0
aF0.0
aF0.0
aF0.0
aF0.0
aa(lp236
F0.0
aF0.0
aF0.0
aF0.0
aF0.0
aF0.0
aF0.0
aa(lp237
F0.0
aF0.0
aF0.0
aF0.0
aF0.0
aF0.0
aF0.0
aa(lp238
F0.0
aF0.0
aF0.0
aF0.0
aF0.0
aF0.0
aF0.0
aa(lp239
F0.0
aF0.0
aF0.0
aF0.0
aF0.0
aF0.0
aF0.0
aa(lp240
F0.0
aF0.0
aF0.0
aF0.0
aF0.0
aF0.0
aF0.0
aa(lp241
F0.0
aF0.0
aF0.0
aF0.0
aF0.0
aF0.0
aF0.0
aa(lp242
F0.0
aF0.0
aF0.0
aF0.0
aF0.0
aF0.0
aF0.0
aa(lp243
F0.0
aF0.0
aF0.0
aF0.0
aF0.0
aF0.0
aF0.0
aa.