(lp0
(lp1
F3.3304426429798335
aF3.528086111785221
aF3.5250108563186493
aF3.525331068388049
aF3.496759797250869
aF3.504011558601654
aF3.542049857765857
aa(lp2
F14.555384369286521
aF14.77682542948671
aF14.312727049847666
aF14.254002159742551
aF12.829600566837215
aF14.881741869790142
aF24.18108691611176
aa(lp3
F2.708005025806308
aF1.735378871224668
aF3.8599796867719274
aF2.897939387844887
aF2.7115610998901416
aF2.7049387044627324
aF1.78337308273226
aa(lp4
F14.68742812592693
aF13.247553208718788
aF12.870640750662023
aF13.33827483014511
aF26.363008088241745
aF14.661450257024816
aF13.94037432831871
aa(lp5
F17.58887440623829
aF28.90529707882407
aF14.499313096896032
aF14.580812175517258
aF17.660508358105027
aF17.961364675024658
aF19.197502237265628
aa(lp6
F13.771021595436384
aF12.54797275984273
aF14.061165119252646
aF14.173165222258897
aF17.265747695238534
aF13.701326319446146
aF12.604838851264379
aa(lp7
F2.7147804557033206
aF2.939857080723083
aF3.1443556313683256
aF3.545699826118005
aF0.984495882472492
aF2.9212573983964876
aF2.41377090277153
aa(lp8
F13.258779398412708
aF16.686559072057356
aF11.773376043620923
aF13.346052164322643
aF13.786716830061708
aF13.144164316946586
aF12.906186198429527
aa(lp9
F1.7935175814501059
aF1.4354205369099762
aF1.8660259054031358
aF8.628475720889508
aF1.62654599040396
aF2.734199804848567
aF2.6303546485899085
aa(lp10
F18.075494486844395
aF15.911455994165308
aF15.872914450469228
aF17.241492254166364
aF15.033093434588098
aF16.971103157586445
aF15.106932375650631
aa(lp11
F30.575961345205446
aF26.44470503435079
aF24.37983563126574
aF23.943171627171875
aF24.712753959844076
aF28.680639042377987
aF25.50387238437167
aa(lp12
F14.437763278611644
aF11.758632287544547
aF16.43661119358096
aF14.541391488436181
aF14.461173063814014
aF14.455811004579628
aF14.21608648697309
aa(lp13
F33.13858818898576
aF23.512220214551935
aF24.40904783825719
aF22.78661648526333
aF26.560007526817216
aF26.260913558995057
aF26.190148671161566
aa(lp14
F34.93042309390494
aF27.032329605319745
aF24.093438677015712
aF23.40909981362733
aF27.824896985733528
aF27.885151543190617
aF28.030045418607877
aa(lp15
F29.23416595583003
aF21.395085950226697
aF23.69916523775481
aF19.552647973499035
aF24.423704278651922
aF24.360386177470957
aF24.11184126308231
aa(lp16
F17.936309429576458
aF14.016075696798342
aF14.113567106192937
aF13.918252386677533
aF11.851355557223854
aF14.174418993854895
aF13.280556977147068
aa(lp17
F33.39268695859489
aF24.22988980845076
aF20.071411142903905
aF23.530538226385605
aF17.206815660575806
aF21.120998639550248
aF23.48952917303945
aa(lp18
F16.948330130755867
aF4.1829862396301145
aF13.115678565079866
aF13.193621724617962
aF6.311182428164483
aF11.969636956750787
aF9.912330940607994
aa(lp19
F0.0
aF0.0
aF0.0
aF0.0
aF0.0
aF0.0
aF0.0
aa(lp20
F0.0
aF0.0
aF0.0
aF0.0
aF0.0
aF0.0
aF0.0
aa(lp21
F0.0
aF0.0
aF0.0
aF0.0
aF0.0
aF0.0
aF0.0
aa(lp22
F0.0
aF0.0
aF0.0
aF0.0
aF0.0
aF0.0
aF0.0
aa(lp23
F0.0
aF0.0
aF0.0
aF0.0
aF0.0
aF0.0
aF0.0
aa(lp24
F0.0
aF0.0
aF0.0
aF0.0
aF0.0
aF0.0
aF0.0
aa(lp25
F0.0
aF0.0
aF0.0
aF0.0
aF0.0
aF0.0
aF0.0
aa(lp26
F0.0
aF0.0
aF0.0
aF0.0
aF0.0
aF0.0
aF0.0
aa(lp27
F0.0
aF0.0
aF0.0
aF0.0
aF0.0
aF0.0
aF0.0
aa(lp28
F14.53592639582279
aF14.436836131080254
aF12.429460708534979
aF21.361581705056864
aF14.668870280374414
aF18.843929414831926
aF10.63013170776139
aa(lp29
F15.996869180017983
aF18.873049111703885
aF17.57060678567759
aF23.197219658860824
aF15.627463828449518
aF16.26254776002518
aF18.998962776746414
aa(lp30
F14.597913256941096
aF12.903318829720414
aF13.622153315220109
aF21.553672158617527
aF9.0990583920163
aF13.825617740720782
aF12.443365194187708
aa(lp31
F15.586290104388837
aF14.78533466477577
aF14.427397018654467
aF15.724078176891364
aF27.719954748363975
aF15.870551545733441
aF14.406814677133102
aa(lp32
F16.500520176963633
aF28.894356221162397
aF4.530750610663828
aF21.307043648578507
aF20.66526745526566
aF14.656586060554957
aF9.19718880102992
aa(lp33
F12.601636748114746
aF13.157795382372711
aF10.395312004223307
aF19.272196343948266
aF14.67502761223681
aF6.305537347078557
aF14.64556427804791
aa(lp34
F14.85763640178981
aF11.104610163916034
aF14.128810168038655
aF28.74273929941351
aF14.612833005775894
aF15.34000894269064
aF15.808665446843918
aa(lp35
F4.606904669159682
aF25.117721742521205
aF10.50534560999493
aF15.38161456393015
aF9.914415805992459
aF14.700385024524753
aF13.676517067904934
aa(lp36
F-0.2
aF2.7940792272974377
aF0.3480092558314294
aF14.388721981101384
aF0.0
aF3.104974800010007
aF5.36264483356511
aa(lp37
F32.21036024094371
aF24.731812310083434
aF23.802936808093055
aF28.38383090085199
aF24.353021653476475
aF27.82260103768693
aF25.13616752045847
aa(lp38
F33.538545832711755
aF27.946289166968317
aF22.511840588186438
aF28.73910312260272
aF23.52538407236561
aF29.3293479419307
aF26.708977864544522
aa(lp39
F30.08214689502548
aF22.530112732480895
aF20.523044547893903
aF21.95244651952467
aF21.408689738470287
aF22.677307087265458
aF22.809404493368884
aa(lp40
F34.226034193998494
aF20.55289367309278
aF22.87160265251012
aF27.95725594020984
aF26.147383117388458
aF28.130630659095637
aF22.9285021652557
aa(lp41
F36.55595474069073
aF18.422423686398872
aF19.495464401712063
aF26.438803328267444
aF25.74242612923533
aF25.700601517290906
aF20.222395968152487
aa(lp42
F26.584292953504224
aF3.9885770953714643
aF11.387238169050905
aF19.071104192258954
aF0.7357413815577942
aF12.883531702285737
aF8.930406677841244
aa(lp43
F34.38860774843268
aF16.664524407009132
aF14.011685100927245
aF9.733089992804548
aF22.922563074942342
aF21.794103068241988
aF20.870278547164446
aa(lp44
F31.245012348928093
aF12.280729209559423
aF16.92767717492446
aF18.147784758425786
aF11.67622826590747
aF16.628888182551048
aF20.676667296852813
aa(lp45
F0.0
aF-1.0
aF4.054999978368752
aF26.59673558994068
aF0.0
aF4.904370603298078
aF4.356143162024236
aa(lp46
F0.0
aF0.0
aF0.0
aF0.0
aF0.0
aF0.0
aF0.0
aa(lp47
F0.0
aF0.0
aF0.0
aF0.0
aF0.0
aF0.0
aF0.0
aa(lp48
F0.0
aF0.0
aF0.0
aF0.0
aF0.0
aF0.0
aF0.0
aa(lp49
F0.0
aF0.0
aF0.0
aF0.0
aF0.0
aF0.0
aF0.0
aa(lp50
F0.0
aF0.0
aF0.0
aF0.0
aF0.0
aF0.0
aF0.0
aa(lp51
F0.0
aF0.0
aF0.0
aF0.0
aF0.0
aF0.0
aF0.0
aa(lp52
F0.0
aF0.0
aF0.0
aF0.0
aF0.0
aF0.0
aF0.0
aa(lp53
F0.0
aF0.0
aF0.0
aF0.0
aF0.0
aF0.0
aF0.0
aa(lp54
F0.0
aF0.0
aF0.0
aF0.0
aF0.0
aF0.0
aF0.0
aa(lp55
F2.82819566408615
aF10.713944060582703
aF3.117906325294441
aF2.0680470859779083
aF3.091969219188987
aF2.8131440147662072
aF2.3460366012898155
aa(lp56
F15.686982690855888
aF24.985481813649184
aF14.589314162823444
aF14.822457930138102
aF12.40037967478112
aF13.649699573774889
aF12.36562705545293
aa(lp57
F2.1329698945060196
aF0.4106558833982228
aF2.4083973508650742
aF0.45035371615651326
aF6.369679359092764
aF2.4013653579848335
aF1.3393889736124356
aa(lp58
F14.127451034603885
aF11.61061583123583
aF12.71990897538065
aF13.71999350476036
aF29.384092529000192
aF12.298216078391093
aF13.435836002527864
aa(lp59
F14.278675866026568
aF12.818245047797568
aF8.920826246299832
aF3.4068760334918085
aF28.042632375310472
aF11.119936922329021
aF16.16544652238893
aa(lp60
F6.880407489835786
aF-0.47547123705812355
aF6.264823898509821
aF1.546460019748915
aF14.42929312169724
aF0.0
aF5.149906747548659
aa(lp61
F1.061763657620999
aF14.639910100952422
aF1.1615287237562368
aF-0.8569433537480841
aF0.134711520818808
aF1.1607202465631148
aF0.6561085172769173
aa(lp62
F3.4544443142090957
aF24.873924911749448
aF4.5349442084171185
aF4.157184010281705
aF3.257286088270515
aF0.0
aF0.0
aa(lp63
F0.0
aF0.0
aF0.0
aF0.0
aF0.0
aF0.0
aF0.0
aa(lp64
F17.358692501947765
aF14.844159442402525
aF13.924701802937793
aF12.089591012851324
aF14.739034607124223
aF14.643884147016431
aF13.82222311753888
aa(lp65
F31.833083124877476
aF26.22478551583181
aF16.32269999317736
aF19.039140373639707
aF22.66591095979799
aF26.535609601624024
aF18.713428194352595
aa(lp66
F16.42679384556744
aF7.018655490657694
aF13.365616714673445
aF1.8266098033459497
aF8.561571197841978
aF8.414405932564193
aF7.888632895185955
aa(lp67
F35.55780000696598
aF19.305133682513855
aF15.575919887969196
aF14.845564187881399
aF19.50430710149855
aF18.07306381255089
aF25.23137264175485
aa(lp68
F33.29200474668111
aF6.813088239689856
aF10.760790967875117
aF11.734421563194743
aF17.92743906574249
aF20.80256741332478
aF20.18951314167511
aa(lp69
F30.460591445231195
aF4.466432594655935
aF4.728963582969197
aF0.0
aF9.857425952592688
aF12.558493850593976
aF0.0
aa(lp70
F21.235244850420003
aF4.113661662947455
aF4.948484232744499
aF2.8886546922236533
aF2.5059296232142447
aF4.391691286365538
aF12.367939329657014
aa(lp71
F10.74550684044164
aF25.563395414240354
aF0.0
aF-0.3205614502078019
aF3.560327148243715
aF0.8955257094183587
aF8.957153839254616
aa(lp72
F0.0
aF0.0
aF0.0
aF0.0
aF0.0
aF0.0
aF0.0
aa(lp73
F0.0
aF0.0
aF0.0
aF0.0
aF0.0
aF0.0
aF0.0
aa(lp74
F0.0
aF0.0
aF0.0
aF0.0
aF0.0
aF0.0
aF0.0
aa(lp75
F0.0
aF0.0
aF0.0
aF0.0
aF0.0
aF0.0
aF0.0
aa(lp76
F0.0
aF0.0
aF0.0
aF0.0
aF0.0
aF0.0
aF0.0
aa(lp77
F0.0
aF0.0
aF0.0
aF0.0
aF0.0
aF0.0
aF0.0
aa(lp78
F0.0
aF0.0
aF0.0
aF0.0
aF0.0
aF0.0
aF0.0
aa(lp79
F0.0
aF0.0
aF0.0
aF0.0
aF0.0
aF0.0
aF0.0
aa(lp80
F0.0
aF0.0
aF0.0
aF0.0
aF0.0
aF0.0
aF0.0
aa(lp81
F0.0
aF0.0
aF0.0
aF0.0
aF0.0
aF0.0
aF0.0
aa(lp82
F14.760022932797224
aF12.246431803002627
aF22.40560252136395
aF13.635458351580152
aF14.316080334237228
aF14.898388483434706
aF14.916955161045557
aa(lp83
F18.0937915073156
aF21.577997300410736
aF25.83752901499407
aF16.14907644649295
aF16.15431968485224
aF17.593493296971317
aF15.117178459356616
aa(lp84
F0.0997235002178881
aF-1.6556429927257044
aF24.609828580015254
aF12.508660028338799
aF6.23788783382014
aF0.3929199086037663
aF0.0
aa(lp85
F19.00944202944243
aF13.709158819847435
aF26.459574246635807
aF15.972702084429528
aF18.606015087140037
aF19.24787100296041
aF18.832725497614042
aa(lp86
F4.296878143133873
aF0.6451177508066197
aF0.0
aF2.3352236624861162
aF11.431955463916768
aF6.926822618396468
aF19.327912443394954
aa(lp87
F4.390831367626391
aF-1.0
aF26.116604900228587
aF0.0
aF0.0
aF0.0
aF5.7000382360952
aa(lp88
F13.587375687084297
aF13.383764711944265
aF23.786316438156263
aF13.495697604547885
aF13.241726035544596
aF15.172636555732584
aF13.381188249035205
aa(lp89
F10.886011804634077
aF20.930461118644494
aF10.33225753872644
aF10.397501297824205
aF1.1294324783516174
aF7.276228127185728
aF9.601057055785116
aa(lp90
F-0.2
aF-1.0
aF22.73693637241882
aF3.8486012564517544
aF5.718989864861998
aF0.0
aF1.703288006508777
aa(lp91
F33.732685430845606
aF23.637974043375284
aF27.256035567591447
aF24.711306402395458
aF23.32723916252995
aF28.39794351403709
aF24.431694802313103
aa(lp92
F35.29790390763585
aF28.00766409501442
aF26.792800753158957
aF22.166282555874602
aF22.99532456792875
aF25.28439762123648
aF24.16150480382053
aa(lp93
F0.0
aF16.82208571739674
aF29.54407125552961
aF18.5418032997661
aF16.02764424425304
aF13.236169772617181
aF16.308882086928424
aa(lp94
F33.65890646977122
aF24.021790434484934
aF29.15526544785321
aF22.332660406414547
aF29.91982288063505
aF28.378663712958684
aF26.61260499809802
aa(lp95
F16.177359086053656
aF21.878370857492502
aF29.559518888107934
aF16.99005618164773
aF24.085290160555576
aF24.77657112043093
aF21.550237857627614
aa(lp96
F20.56881032254919
aF10.606943985851526
aF30.300972373176663
aF10.86608879866583
aF16.586079539852005
aF12.750986248894776
aF10.0908223322882
aa(lp97
F30.313931955005934
aF19.71209689577097
aF25.340790188963283
aF22.01225404712109
aF8.017942480894712
aF26.344262820519692
aF21.23434233164199
aa(lp98
F30.569367934364166
aF2.665816920555294
aF9.59049090978493
aF11.178158300319266
aF10.614144339550762
aF17.966160561901678
aF18.57269238625549
aa(lp99
F31.138442116215053
aF3.645372060921054
aF5.717159310918526
aF4.69324487056349
aF3.3897651241360682
aF5.326764034262182
aF7.878246016513256
aa(lp100
F0.0
aF0.0
aF0.0
aF0.0
aF0.0
aF0.0
aF0.0
aa(lp101
F0.0
aF0.0
aF0.0
aF0.0
aF0.0
aF0.0
aF0.0
aa(lp102
F0.0
aF0.0
aF0.0
aF0.0
aF0.0
aF0.0
aF0.0
aa(lp103
F0.0
aF0.0
aF0.0
aF0.0
aF0.0
aF0.0
aF0.0
aa(lp104
F0.0
aF0.0
aF0.0
aF0.0
aF0.0
aF0.0
aF0.0
aa(lp105
F0.0
aF0.0
aF0.0
aF0.0
aF0.0
aF0.0
aF0.0
aa(lp106
F0.0
aF0.0
aF0.0
aF0.0
aF0.0
aF0.0
aF0.0
aa(lp107
F0.0
aF0.0
aF0.0
aF0.0
aF0.0
aF0.0
aF0.0
aa(lp108
F0.0
aF0.0
aF0.0
aF0.0
aF0.0
aF0.0
aF0.0
aa(lp109
F18.323160083483266
aF17.46111559049353
aF17.65001229061553
aF25.69506437622427
aF11.848016520972028
aF18.967396390073002
aF17.883528007143614
aa(lp110
F19.023643275894035
aF25.579144812938253
aF19.15329385633873
aF18.912711000187834
aF12.884794196297438
aF19.752367116281
aF13.172194720081773
aa(lp111
F4.056094039369114
aF2.58404180543656
aF28.81103470513797
aF0.0
aF0.19165385126297685
aF10.161735176338262
aF11.082317355011886
aa(lp112
F5.388749211000613
aF8.447779579774096
aF14.435496677493155
aF25.67318873310358
aF12.723215441256936
aF13.738548356131059
aF11.469600516812491
aa(lp113
F0.0
aF6.421553602765293
aF6.025118218981921
aF27.179952077782815
aF9.728469632602165
aF0.2116305000559137
aF0.0
aa(lp114
F6.484312186375966
aF-1.8900497056641097
aF0.0
aF25.01845447083007
aF4.437126900351418
aF7.532502442328838
aF5.487555146458409
aa(lp115
F15.037396936382974
aF11.467119364124226
aF24.76569775026617
aF6.128472781101863
aF11.041112588808716
aF11.65551781298575
aF12.689885557206123
aa(lp116
F0.0
aF0.0
aF0.0
aF30.968486678344128
aF0.0
aF0.0
aF3.9641246836827846
aa(lp117
F0.0
aF-1.0
aF24.836537727456296
aF0.0
aF0.0
aF0.0
aF-1.0
aa(lp118
F33.3533147494462
aF23.026492915434186
aF29.09332437049958
aF28.755896176748685
aF19.368378981423273
aF28.89514635944904
aF28.359900942890956
aa(lp119
F32.09914663809972
aF21.96631558915668
aF17.515597763092373
aF16.337435877106813
aF19.933224918567355
aF15.077262190233895
aF10.64479848899577
aa(lp120
F11.093503534050082
aF6.981508233362174
aF29.470024935687128
aF17.180840900796966
aF12.020917398130194
aF12.926445369846942
aF20.220871430058686
aa(lp121
F31.242462765355405
aF15.064412770298642
aF23.023234940816703
aF19.26521446538738
aF19.822643105585076
aF17.677826866760626
aF25.197790522442936
aa(lp122
F11.743686863026918
aF8.886943678097284
aF31.315543161190575
aF17.898018436837454
aF17.176113446435018
aF4.75334396845119
aF9.9724352270387
aa(lp123
F32.68299844785153
aF-1.0
aF6.2466527906374845
aF0.0
aF0.0
aF2.859303138192147
aF0.0
aa(lp124
F31.145053451579003
aF15.3606781501955
aF6.989958521754072
aF18.09179886701135
aF18.267650751422984
aF14.535505406617384
aF8.434951966673365
aa(lp125
F0.0
aF5.720437914248234
aF9.364862724270365
aF10.733846498666644
aF2.256025376799619
aF0.8889680046712657
aF24.92859717618026
aa(lp126
F0.0
aF-1.0382090566346809
aF0.6314581156522059
aF0.0
aF-1.0
aF0.2221007845843096
aF14.279719480332055
aa(lp127
F0.0
aF0.0
aF0.0
aF0.0
aF0.0
aF0.0
aF0.0
aa(lp128
F0.0
aF0.0
aF0.0
aF0.0
aF0.0
aF0.0
aF0.0
aa(lp129
F0.0
aF0.0
aF0.0
aF0.0
aF0.0
aF0.0
aF0.0
aa(lp130
F0.0
aF0.0
aF0.0
aF0.0
aF0.0
aF0.0
aF0.0
aa(lp131
F0.0
aF0.0
aF0.0
aF0.0
aF0.0
aF0.0
aF0.0
aa(lp132
F0.0
aF0.0
aF0.0
aF0.0
aF0.0
aF0.0
aF0.0
aa(lp133
F0.0
aF0.0
aF0.0
aF0.0
aF0.0
aF0.0
aF0.0
aa(lp134
F0.0
aF0.0
aF0.0
aF0.0
aF0.0
aF0.0
aF0.0
aa(lp135
F0.0
aF0.0
aF0.0
aF0.0
aF0.0
aF0.0
aF0.0
aa(lp136
F14.497003287193793
aF10.506973108719304
aF21.935581779170548
aF13.925631599404252
aF12.696827064452023
aF14.575863868967515
aF12.927891296475448
aa(lp137
F13.681265863185374
aF21.513990475133166
aF10.6827188873687
aF11.011442159982774
aF12.188838601296506
aF10.023358201383159
aF13.063951091583451
aa(lp138
F-0.2
aF-1.0
aF20.65485944213779
aF-1.0
aF1.2181987133141177
aF0.0
aF0.0
aa(lp139
F8.677668831954747
aF1.6593477322549028
aF5.214765410348099
aF9.83827136128722
aF27.7961124037784
aF5.491379111243265
aF7.6988864559781
aa(lp140
F3.8417455585412137
aF29.614264712293586
aF6.014619216212213
aF0.0
aF2.111293730279347
aF4.280438474211882
aF8.258150007363371
aa(lp141
F-0.2
aF0.0
aF24.168780174870758
aF0.0
aF0.0
aF4.858600636656748
aF-0.27752454925027836
aa(lp142
F6.287281636749677
aF4.804100676927751
aF24.084774332756012
aF-0.8388306548777286
aF-1.0504879866582204
aF1.7078867972291891
aF5.755630032917415
aa(lp143
F-0.2
aF0.0
aF24.662813779275083
aF0.0
aF-1.0
aF0.0
aF0.0
aa(lp144
F0.0
aF0.0
aF0.0
aF0.0
aF0.0
aF0.0
aF0.0
aa(lp145
F32.85184614352375
aF18.148488753056334
aF25.18404872001023
aF22.06295081546913
aF22.222860299033325
aF25.69973909636604
aF22.615864234557087
aa(lp146
F28.79190676699922
aF16.79244513907711
aF16.811874705522982
aF7.21358205365078
aF17.218684759537027
aF10.275273266446934
aF21.64474274688406
aa(lp147
F27.876142736211236
aF4.094166658946338
aF5.2659126785359724
aF8.300288666221613
aF2.4636934589096064
aF0.0
aF8.44751543982039
aa(lp148
F34.2802570853613
aF4.444073589340227
aF13.767914504391515
aF10.034603876393287
aF6.0375321541154365
aF20.625159109233426
aF16.168850467653677
aa(lp149
F35.546171970686004
aF0.0
aF5.554859568097462
aF8.558759212662489
aF6.247720325499472
aF0.0
aF6.067345709647581
aa(lp150
F30.603363327352127
aF0.41237615423494633
aF6.443117456481082
aF1.0580020989363395
aF6.0827451517694415
aF0.19556447794719356
aF7.7522957071664145
aa(lp151
F32.51745271114169
aF5.056006136378987
aF10.410234033758554
aF3.6132011078478623
aF0.0
aF12.838100129503356
aF0.0
aa(lp152
F0.0
aF28.141761587899914
aF8.097788998821159
aF-1.0
aF-1.0
aF0.0
aF4.076270374960498
aa(lp153
F0.0
aF0.0
aF0.0
aF0.0
aF0.0
aF0.0
aF0.0
aa(lp154
F0.0
aF0.0
aF0.0
aF0.0
aF0.0
aF0.0
aF0.0
aa(lp155
F0.0
aF0.0
aF0.0
aF0.0
aF0.0
aF0.0
aF0.0
aa(lp156
F0.0
aF0.0
aF0.0
aF0.0
aF0.0
aF0.0
aF0.0
aa(lp157
F0.0
aF0.0
aF0.0
aF0.0
aF0.0
aF0.0
aF0.0
aa(lp158
F0.0
aF0.0
aF0.0
aF0.0
aF0.0
aF0.0
aF0.0
aa(lp159
F0.0
aF0.0
aF0.0
aF0.0
aF0.0
aF0.0
aF0.0
aa(lp160
F0.0
aF0.0
aF0.0
aF0.0
aF0.0
aF0.0
aF0.0
aa(lp161
F0.0
aF0.0
aF0.0
aF0.0
aF0.0
aF0.0
aF0.0
aa(lp162
F0.0
aF0.0
aF0.0
aF0.0
aF0.0
aF0.0
aF0.0
aa(lp163
F2.592073261557859
aF3.6094588000129924
aF0.44814419876756734
aF2.7500240617486362
aF2.700688902573833
aF2.7502619051666914
aF1.9145829113023538
aa(lp164
F14.176407390043563
aF25.059679966970382
aF14.226902732320953
aF14.450076057984647
aF11.62923522103006
aF14.416932455618802
aF13.134941619928668
aa(lp165
F-0.006162453916747579
aF-0.5442653492320053
aF-1.0177265255691765
aF13.533785608295695
aF0.16314536319289932
aF0.16475785583162705
aF-0.564016409899899
aa(lp166
F12.966806666496566
aF13.62272326344895
aF14.004629997670323
aF13.76929289915202
aF22.656713524647675
aF14.478573467565258
aF12.791693478873079
aa(lp167
F4.561125387635317
aF17.280350014776175
aF16.60663839923832
aF7.68972115860133
aF26.20336066210715
aF17.01558801822864
aF12.817962968601265
aa(lp168
F10.057171835561245
aF-0.5834732562448535
aF0.0
aF3.3067079685655933
aF18.90810574829613
aF3.3847816055100703
aF0.09052022298370888
aa(lp169
F1.986040293919812
aF2.9524248775539146
aF1.6252178798495083
aF11.089750624616041
aF-0.05639884593666067
aF2.192766065110615
aF2.3764377655583395
aa(lp170
F3.7055831865628757
aF23.782274018742484
aF-1.0
aF8.38947436567863
aF0.0
aF11.639032439015851
aF-1.0
aa(lp171
F0.0
aF0.0
aF0.0
aF0.0
aF0.0
aF0.0
aF0.0
aa(lp172
F16.314915973048706
aF15.279913540387563
aF11.959858127279887
aF14.605071122135666
aF15.266855895056148
aF14.715239123053745
aF12.873341848853512
aa(lp173
F31.412211354590973
aF19.312210593876728
aF11.405894886157405
aF15.832866964839447
aF18.830470755435883
aF25.420301473518812
aF21.571488362500844
aa(lp174
F18.475886500114957
aF4.4231706547139575
aF4.593990903777407
aF4.988178921926568
aF12.02496590122659
aF3.4386939349267402
aF9.166604365062575
aa(lp175
F31.98055660591747
aF23.546354662246696
aF23.949448005525465
aF20.45189828707247
aF23.69420426622271
aF25.32141186501775
aF22.305168130102437
aa(lp176
F33.83472240321338
aF24.08700934743001
aF12.712456764776821
aF17.790147954288273
aF21.9156965875055
aF15.443884988384802
aF20.074185765193022
aa(lp177
F30.4687306555118
aF0.0
aF4.525434136306279
aF0.4239751199298577
aF0.0
aF9.178770358826991
aF8.559644819332188
aa(lp178
F18.609567707302848
aF7.139636605384068
aF5.598749609149446
aF13.158342886349654
aF5.952140478361068
aF11.144994142870237
aF14.1810745810918
aa(lp179
F32.88121667449958
aF6.031999988591397
aF4.016717571850049
aF3.2334342512819076
aF0.7827040309964414
aF11.979711510418895
aF5.441681702547319
aa(lp180
F0.0
aF0.0
aF0.0
aF0.0
aF0.0
aF0.0
aF0.0
aa(lp181
F0.0
aF0.0
aF0.0
aF0.0
aF0.0
aF0.0
aF0.0
aa(lp182
F0.0
aF0.0
aF0.0
aF0.0
aF0.0
aF0.0
aF0.0
aa(lp183
F0.0
aF0.0
aF0.0
aF0.0
aF0.0
aF0.0
aF0.0
aa(lp184
F0.0
aF0.0
aF0.0
aF0.0
aF0.0
aF0.0
aF0.0
aa(lp185
F0.0
aF0.0
aF0.0
aF0.0
aF0.0
aF0.0
aF0.0
aa(lp186
F0.0
aF0.0
aF0.0
aF0.0
aF0.0
aF0.0
aF0.0
aa(lp187
F0.0
aF0.0
aF0.0
aF0.0
aF0.0
aF0.0
aF0.0
aa(lp188
F0.0
aF0.0
aF0.0
aF0.0
aF0.0
aF0.0
aF0.0
aa(lp189
F0.0
aF0.0
aF0.0
aF0.0
aF0.0
aF0.0
aF0.0
aa(lp190
F14.407444621060407
aF13.244434968661208
aF14.401440800515463
aF24.65155866607424
aF12.56899808433999
aF15.44635385433087
aF14.083506628584686
aa(lp191
F0.0
aF3.194204656333019
aF6.655538414851919
aF25.717386801910745
aF0.0
aF4.390486426619714
aF0.0
aa(lp192
F0.0
aF0.2499820947477952
aF2.5796627071492604
aF20.97036334280035
aF0.29377691983066284
aF3.0606078053712036
aF3.459755952929267
aa(lp193
F6.926219909876364
aF0.0
aF3.5202302070525833
aF22.409020026661562
aF0.0
aF0.0
aF0.0
aa(lp194
F0.0
aF28.193266783204095
aF11.304658710449015
aF7.891931420019784
aF9.337353090753515
aF9.023470618311524
aF5.596779408502709
aa(lp195
F2.7002299609896054
aF-1.7151611537395581
aF-1.0
aF21.576251034119487
aF3.8943361527676057
aF0.0
aF-1.0
aa(lp196
F0.0
aF4.1693602149176385
aF-1.0
aF17.607944935603566
aF-1.0
aF3.7447954856001604
aF0.0
aa(lp197
F0.0
aF0.0
aF0.0
aF15.554340564780697
aF0.0
aF2.859676196774839
aF0.0
aa(lp198
F0.0
aF0.0
aF0.0
aF0.0
aF0.0
aF0.0
aF0.0
aa(lp199
F32.325346785408236
aF19.87408222900723
aF17.29728167279739
aF24.082593754003863
aF17.40877289125713
aF25.51043486957176
aF19.87496426094281
aa(lp200
F16.83588942866514
aF10.559875718855489
aF8.900137356296772
aF29.25787629449093
aF10.746589901234659
aF13.182860889068685
aF7.57702084577547
aa(lp201
F2.8961247998996207
aF3.1401688001208257
aF-1.0
aF27.11421329626451
aF7.432919854382105
aF0.0
aF4.617483961251869
aa(lp202
F23.54142482325659
aF15.066545231068117
aF6.4828727012710194
aF30.246030714162682
aF20.527370150807712
aF18.049619325366674
aF18.538441028477173
aa(lp203
F34.656032268038516
aF9.947363673984967
aF-1.0
aF14.537487257527818
aF9.287802064269494
aF9.745945002709593
aF6.754386417794364
aa(lp204
F29.210942224176
aF3.9576443557027092
aF-1.6055482047063654
aF2.823019073640781
aF0.0
aF0.0
aF8.693100083708716
aa(lp205
F0.0
aF4.631865393705694
aF3.4603164492997687
aF29.36755564643217
aF3.844547889381349
aF0.0
aF4.554454927810969
aa(lp206
F0.0
aF0.0
aF0.0
aF30.102284202530132
aF4.29070622175554
aF0.0
aF0.0
aa(lp207
F0.0
aF0.0
aF0.0
aF0.0
aF0.0
aF0.0
aF0.0
aa(lp208
F0.0
aF0.0
aF0.0
aF0.0
aF0.0
aF0.0
aF0.0
aa(lp209
F0.0
aF0.0
aF0.0
aF0.0
aF0.0
aF0.0
aF0.0
aa(lp210
F0.0
aF0.0
aF0.0
aF0.0
aF0.0
aF0.0
aF0.0
aa(lp211
F0.0
aF0.0
aF0.0
aF0.0
aF0.0
aF0.0
aF0.0
aa(lp212
F0.0
aF0.0
aF0.0
aF0.0
aF0.0
aF0.0
aF0.0
aa(lp213
F0.0
aF0.0
aF0.0
aF0.0
aF0.0
aF0.0
aF0.0
aa(lp214
F0.0
aF0.0
aF0.0
aF0.0
aF0.0
aF0.0
aF0.0
aa(lp215
F0.0
aF0.0
aF0.0
aF0.0
aF0.0
aF0.0
aF0.0
aa(lp216
F0.0
aF0.0
aF0.0
aF0.0
aF0.0
aF0.0
aF0.0
aa(lp217
F2.3531509857075177
aF4.05637390915685
aF0.7287819329005881
aF0.9808157248029606
aF3.0653711502132706
aF3.0920400072306053
aF2.76570532624366
aa(lp218
F6.824450225642685
aF27.17306124172339
aF-1.7715002401740707
aF-1.7556424728836084
aF5.23211865823321
aF4.06184889925547
aF-0.09724670507982391
aa(lp219
F0.0
aF0.0
aF0.0
aF0.0
aF0.0
aF0.0
aF0.0
aa(lp220
F-0.2
aF7.594526250234107
aF11.707335674471434
aF5.4463467950562885
aF27.50740287135394
aF12.026362320928513
aF13.78165669630945
aa(lp221
F0.0
aF25.978459066022232
aF-1.0
aF0.0
aF0.0
aF0.0
aF0.0
aa(lp222
F0.0
aF0.0
aF0.0
aF0.0
aF0.0
aF0.0
aF0.0
aa(lp223
F0.0
aF0.0
aF0.0
aF0.0
aF0.0
aF0.0
aF0.0
aa(lp224
F0.0
aF0.0
aF0.0
aF0.0
aF0.0
aF0.0
aF0.0
aa(lp225
F0.0
aF0.0
aF0.0
aF0.0
aF0.0
aF0.0
aF0.0
aa(lp226
F17.26501165711934
aF4.400879407400494
aF3.870920614107724
aF8.017925316065481
aF7.330342934067453
aF8.210810847224959
aF6.115484750414558
aa(lp227
F32.04370479981897
aF5.998227716017919
aF4.371522204949369
aF7.951003678399279
aF0.0
aF0.0
aF9.108990180778168
aa(lp228
F0.0
aF0.0
aF0.0
aF0.0
aF0.0
aF0.0
aF0.0
aa(lp229
F30.640388259838748
aF8.047165162090465
aF8.79777616388494
aF0.0
aF2.2768492533033986
aF6.180023565104668
aF-0.6183274523767868
aa(lp230
F34.18179139877457
aF6.6900659096955195
aF3.92706806055143
aF0.0
aF0.0
aF5.959675007729223
aF0.0
aa(lp231
F0.0
aF0.0
aF0.0
aF0.0
aF0.0
aF0.0
aF0.0
aa(lp232
F0.0
aF0.0
aF0.0
aF0.0
aF0.0
aF0.0
aF0.0
aa(lp233
F0.0
aF0.0
aF0.0
aF0.0
aF0.0
aF0.0
aF0.0
aa(lp234
F0.0
aF0.0
aF0.0
aF0.0
aF0.0
aF0.0
aF0.0
aa(lp235
F0.0
aF0.0
aF0.0
aF0.0
aF0.0
aF0.0
aF0.0
aa(lp236
F0.0
aF0.0
aF0.0
aF0.0
aF0.0
aF0.0
aF0.0
aa(lp237
F0.0
aF0.0
aF0.0
aF0.0
aF0.0
aF0.0
aF0.0
aa(lp238
F0.0
aF0.0
aF0.0
aF0.0
aF0.0
aF0.0
aF0.0
aa(lp239
F0.0
aF0.0
aF0.0
aF0.0
aF0.0
aF0.0
aF0.0
aa(lp240
F0.0
aF0.0
aF0.0
aF0.0
aF0.0
aF0.0
aF0.0
aa(lp241
F0.0
aF0.0
aF0.0
aF0.0
aF0.0
aF0.0
aF0.0
aa(lp242
F0.0
aF0.0
aF0.0
aF0.0
aF0.0
aF0.0
aF0.0
aa(lp243
F0.0
aF0.0
aF0.0
aF0.0
aF0.0
aF0.0
aF0.0
aa.