(ilinear_regression
LinearRegression
p0
(dp1
S'_weights'
p2
(lp3
F-18.67617257492419
aF5.652902465653659
aF8.704860090933293
aF5.006296696237617
aF5.07042650278077
aF8.3532350361211
aF5.656747024774076
aF6.272215803500779
aF8.851159843873562
aF3.4014193346624237
aF5.546558108135815
aF6.9475842764994455
aF5.874228466448348
aF4.9821369964044395
aF6.464160890478168
aF4.95062398286021
aF4.174355120448487
aF8.27091559928922
aF4.7100006524019244
aF4.822300648286247
aF9.309094258729104
aF5.175180125834403
aF4.523139552715475
aF8.767356136251419
aF3.698815128061186
aF5.85569605948488
aF7.896336945808591
aF5.55202020874
aF5.3496855697791865
aF6.983372231480417
aF5.312085288390778
aF5.609524072730549
aF10.011498566896309
aF2.699828281567777
aF4.248531112607913
aF9.889006173074627
aF2.371905802477928
aF6.590350916813603
aF11.055718348796676
aF0.5202967732526809
aF5.699183614613114
aF8.434731398242521
aF4.559861277134707
aF4.764017949732425
aF7.42307527078593
aF4.237023826151906
aF4.29398520923536
aF7.572025760556316
aF4.196351528630777
aF4.4000842769462
aF8.790634231890843
aF4.379092295887981
aF4.396945362447425
aF8.927642564788018
aF3.8611309302928905
aF4.898792383531386
aF6.7939024883358465
aF5.094144053407028
aF5.522979633295139
aF6.899640674968266
aF5.418905523840961
aF5.718672831545013
aF8.519358031513175
aF6.0423856917632595
aF5.55475024496302
aF8.662531864839805
aF5.762118728163817
aF5.246006292150936
aF8.910860010437176
aF3.948528800571954
aF4.839801903451666
aF7.591062146782526
aF6.628152550974629
aF5.039854152062569
aF7.203057618925425
aF5.852766104421912
aF2.863426835726689
aF1.9945360440376085
aF3.028280847325211
aF2.9229823301979554
aF1.033148688560377
aF3.0487497719059347
aF3.573830046604013
aF0.46688392853348604
aF2.148713353353465
aF0.938848235984239
aF-1.2825647466113546
aF3.3803181035033134
aF-0.07925459044738012
aF1.7054643365502073
aF-1.0638105875374053
aF1.1065555011587416
aF2.2901518481588896
aF-1.21950495324611
aF2.1894312376111214
aF-1.4179724937910985
aF1.5412248736956202
aF0.37927622100815284
aF0.6274002357418801
aF1.523021168854747
aF1.3223996698343534
aF1.2123925350075306
aF0.20433775313449057
aF1.5179834688152318
aF0.6708157793201746
aF1.4089159754145912
aF1.4526654041411164
aF-1.091820755783658
aF4.004075814412971
aF0.5220552086695044
aF2.434524328259915
aF-1.2184901029591868
aF1.9224837307751441
aF1.519923331628029
aF0.8077548456735514
aF0.7598407779108602
aF0.5397641591921148
aF0.8372304494907172
aF-0.2004653808790638
aF0.6394141534515986
aF1.4052072751598452
aF0.03619914201195406
aF0.45753318350196115
aF0.4284938682226352
aF1.1969412281301193
aF1.678681482457457
aF2.0464331973559973
aF-0.03483303393458207
aF-0.31856725736148045
aF5.202160541811341
aF-3.6204049040650523
aF1.1311571893436252
aF-2.7874419481293726
aF3.0642127622768025
aF0.29991453755072134
aF1.4453187805602454
aF0.8262695104643812
aF1.3701204568346568
aF-1.2259935070076402
aF1.2353196009699836
aF0.4884710350375936
aF1.3077242746804623
aF1.1105484974980184
aF0.9782477588140578
aF1.9635224705573409
aF0.005694319340624339
aF0.6506852830695624
aF0.6934963822325891
aF1.3632945669540417
aF0.016554229370902836
aF0.9135613750454727
aF0.3871219396448016
aF1.5413648481777098
aF-0.5922485734052064
aF1.0669493531716512
aF-0.8937788271658321
aF4.8028918864264165
aF-1.4102982509387252
aF1.4225455950158756
aF0.37708134425261997
aF1.4202688468243188
aF0.9504832982050745
aF1.4545890789294695
aF0.38225237359969105
aF0.9800545362766266
aF2.1766641824421544
aF0.39770555890179177
aF1.092403659350328
aF1.0813137517086886
aF1.2548078025927671
aF-0.2802584356887342
aF0.6536824285388603
aF0.5891364680794857
aF1.8866591658191298
aF0.3953172133871615
aF1.8973077593406953
aF-0.42286916970400484
aF3.412204749992056
aF-0.012133566749462026
aF0.9223618713759061
aF0.18786954551330884
aF0.8840971380037469
aF0.9916782427772554
aF0.8728120768974856
aF1.5255696435838757
aF1.1487875143565462
aF0.649655974039011
aF1.8236520926887199
aF0.6091461058336398
aF1.5449397103042704
aF1.4794526495643816
aF-0.18810923596917928
aF3.434133982698274
aF-0.9578714035181587
aF1.3603634848464248
aF-0.02388022104502063
aF1.3121181373100115
aF3.235218032389814
aF-1.8102510846026865
aF3.3771779123177526
aF-1.0828227257899825
aF1.597597907744111
aF-0.7047340375886719
aF0.800350618776694
aF1.5277274192597345
aF0.1725111103043963
aF1.869685969508019
aF0.7777061170291992
aF1.7077809031670235
aF0.017663745891898806
aF1.2167087360551923
aF0.8908004211817223
aF-0.9874233462797638
aF4.5065037671562065
aF-0.9172032279341662
aF2.354363009561413
aF-0.5858626000720696
aF1.7442289565089641
aF2.2988857055550165
aF-0.44362628305607993
aF0.29191798547194153
aF0.3635671492000661
aF2.0436971628835487
aF0.7359277851164094
aF0.953477502793551
aF2.230515416764565
aF0.6058043668328474
aF0.5914715312182984
aF1.90765879255986
aF-0.3817507499902524
aF1.2943215732077002
aF2.066240655110446
aF-0.22704109841734813
aF-2.170470113397161
aF6.2148697628248994
aF-1.9583386266796696
aF1.6842232005215731
aF-3.0639289950969197
aF2.009388827121822
aF0.11455324024163842
aF0.08110530573126365
aF1.342503223300922
aF1.6867951693723686
aF-1.3944648553972354
aF1.4009709920267805
aF0.30451209785365574
aF2.1418532430018766
aF0.8712634086780129
aF-0.5082462739463447
aF2.046488404018108
aF0.6387017648415597
aF1.3734751629689594
aF1.1413393047662141
aF2.2407900182142937
aF0.42922192444511265
aF1.1465857182133166
aF0.20072232556700825
aF1.6398851432060317
aF-0.3939108431096585
aF1.7893996391712104
aF-1.0948577613968355
aF5.092803002402574
aF-1.448319277456732
aF1.8476967983404098
aF-0.8521694804537037
aF1.4604697627176355
aF1.2726715312165449
aF1.8284964908762975
aF1.0362097848149434
aF0.5947669908091817
aF2.737022734857838
aF0.04489125801166552
aF1.1958281370503874
aF1.051380232634463
aF1.6942080815064235
aF0.2615128057668049
aF0.9405680137624705
aF0.0884771056966791
aF1.123653652380552
aF-0.9918958963948257
aF1.0005764172699585
aF-0.3317716028227191
aF4.393019933025879
aF-0.08548824596416425
aF0.951494774021229
aF-0.6579144359368385
aF1.3975395741914995
aF0.9565421354323503
aF0.803338342561946
aF1.374174935347323
aF1.4034732624890773
aF1.0798385570809699
aF0.9566889842675501
aF1.0448603866546995
aF3.1549096489109383
aF-0.863348885998563
aF1.0005078954250732
aF1.1988571926487437
aF0.4439784125838887
aF1.3454874154165546
aF1.1912330227157981
aF1.6535247819228802
aF1.397728208656567
aF-3.5614791024189936
aF3.344879420369155
aF0.33987507674021805
aF6.681428093571975
aF-4.09117717925144
aF0.9247016453355204
aF1.8154349623697903
aF1.1432686664031213
aF1.6766260402686384
aF0.5037550739492338
aF1.5250343710648437
aF0.9932627123886132
aF2.894937971026922
aF-0.5925808377456036
aF1.751570395923333
aF0.07833810217302564
aF1.486898697337114
aF0.8726031969683807
aF-0.4501083593994337
aF1.0108606525163017
aF2.007489553208928
aF-2.4785416800765323
aF4.1673129496310715
aF-1.8400513092598083
aF6.3190883194742415
aF-1.842922401551607
aF0.08547302167456405
aF1.4764985285537815
aF0.9140768474844541
aF1.1847352480276374
aF1.863777989264498
aF0.24439918533958566
aF-4.142951222844622
aF6.929196986221035
aF-0.18717443968417902
aF2.6718058899478985
aF0.04568975519988351
aF0.305370694537209
aF2.493157882811008
aF-0.6873768941520378
aF-0.5833666175014303
aF3.204073428475302
aF0.207647357569199
aF-0.08119690248401046
aF3.3623791776047556
aF-0.3688405053261193
aF0.22948131903639357
aF-1.7328379876837723
aF4.192108012286845
aF0.9341807618017715
aF0.11817139372941451
aF2.8012341798608764
aF0.2125406265152141
aF1.8534581899447433
aF0.8909800936699231
aF0.28705524935095705
aF1.48937977401354
aF-0.2209359520966804
aF2.6159554294155076
aF1.0526101969657191
aF-1.4506312135129085
aF1.1915677081535712
aF-0.5474329546989564
aF5.277617605068997
aF-2.9264354666189236
aF1.853834937107648
aF-1.5948834363795463
aF3.224385333687326
aF0.7802917797139824
aF1.2495688154115778
aF0.9410581494890725
aF-0.11545906678861205
aF3.526950734832795
aF-0.044737979284450315
aF1.256818356067715
aF0.8614344408868845
aF0.37340309854931236
aF1.899313403874689
aF0.876994669470232
aF0.9300932238154076
aF1.308216198663578
aF0.32154999616947355
aF1.2931043449719182
aF0.3577976558413514
aF5.602763476743987
aF-1.623302959978025
aF1.410904301276828
aF-0.35266069092939023
aF2.067237225798792
aF1.3038251925672975
aF0.6425630490795152
aF0.28749604538545076
aF1.2925822867895154
aF0.5214362334822193
aF0.974080696847511
aF-0.7523802043864182
aF1.3427200310947738
aF0.8729475437882228
aF1.3288114344299895
aF0.15746283226534113
aF1.3821235449640539
aF-1.1177911418367303
aF3.7972647815483307
aF-0.8846732924045748
aF2.3710610861820736
aF-1.7579820005296865
aF2.596301496540556
aF-0.9304234683364282
aF2.6779659260678046
aF-0.016775121170845907
aF1.017430756994686
aF1.8550841557039748
aF1.579456919445799
aF0.20709256625213626
aF0.5949113526003854
aF0.9733987911854705
aF0.5366533463315463
aF1.7565060094833431
aF1.0851974897499068
aF2.1583402259383018
aF-0.14062559220105741
aF1.3745072137948413
aF-1.3648688047904813
aF4.149401224965526
aF-0.9594175926184347
aF2.1652662727901366
aF-0.7791821935824401
aF1.1914375847026837
aF-0.3306428319989446
aF1.0366109371935814
aF1.2878204225223977
aF0.8614972574003785
aF1.6765788887758724
aF0.5709463477469994
aF1.1693140417811372
aF2.446345342374054
aF0.2222012896390121
aF1.5520679156739894
aF2.0813338908271395
aF0.14206348269786684
aF1.722277765138521
aF-2.012568623355345
aF3.24969418743505
aF-1.42163521352661
aF6.4115520948744775
aF-2.1428821837503635
aF1.1438456655890228
aF0.0425075486817708
aF0.6559349247610171
aF2.015043546992483
aF-2.094937771166853
aF1.0777384659945808
aF0.7321049519052714
aF1.210787611283466
aF0.5062090062182131
aF0.8185921765383478
aF2.875754491329361
aF0.43863889997369554
aF0.8697397182850902
aF0.8163571304230576
aF2.117743607151282
aF1.2387034452386383
aF-0.541412133889715
aF1.109983110945286
aF0.7293744633978981
aF1.3641466443735577
aF1.123308554377273
aF-0.48079873256980094
aF4.281530965020183
aF0.5565790595361353
aF1.2356231872847085
aF-0.02275671555355247
aF1.1920462734262547
aF0.6902606335603316
aF1.4903155823637162
aF1.2794846994267548
aF0.12856099219448586
aF2.508702913562029
aF0.6253563371116871
aF0.32144829904239547
aF0.2710294606445174
aF0.940414912992036
aF0.6876158200563687
aF-0.27892941941228344
aF1.3909622490161297
aF0.6340133363705605
aF0.43293457035848015
aF0.5968451973059752
aF-1.030150634790144
aF3.612987239440095
aF-0.1456401372954458
aF1.482294790967547
aF0.025690788887510068
aF1.475435872351014
aF0.8513184435718406
aF0.9243246486304408
aF1.2623682179521267
aF0.2436894687136462
aF0.44273503742332193
aF0.34218097540191145
aF0.06687533017640476
aF1.7980757886646548
aF0.30152278577422953
aF1.9971442754503699
aF-0.3933061466221083
aF1.4521129044585963
aF-1.2113040213103505
aF4.877533994134145
aF-0.36565246811175567
aF1.22671097570939
aF-1.3207447204355542
aF1.123024464684869
aF-0.43038117421139416
aF1.4014698010562012
aF0.12122367453417493
aF0.7733952014379655
aF1.1118591891122163
aF0.907525884920156
aF0.745809946438612
aF0.21171476567015557
aF1.1859354983941965
aF0.23197497174722403
aF1.6238238104300062
aF0.5944694085256385
aF1.6111524420763959
aF-1.8096779415956077
aF2.258710636698854
aF-1.9807831715683515
aF4.041395947007905
aF-1.246943649603446
aF1.3740297102384258
aF-0.023929257929445988
aF1.0687948603484234
aF0.3509495710621941
aF1.6952140964436924
aF1.2767922231412696
aF0.9125089403862165
aF1.5244249704300166
aF1.3370562964974801
aF0.798951833141257
aF1.2992242874135012
aF1.328478959741445
aF0.8611245735262427
aF1.5031408656647698
aF0.5975271155133289
aF2.0287944446505275
aF-1.1555604121738885
aF3.605244371358408
aF0.013124268543013653
aF5.61229455074619
aF-1.4332850322668498
aF0.7701934655590329
aF0.9573375456173803
aF1.0260677751151255
aF1.3553776832416744
aF0.16199547432793984
aF1.7181509259663412
aF1.058807076485608
aF1.1527089174409455
aF1.1847251535651462
aF0.002382288667146129
aF0.984495304950387
aF0.08099586694660305
aF1.19942815725773
aF0.4661007445417934
aF0.9180283843757943
aF1.9277259399237237
aF-0.6047345222375446
aF1.599013223113442
aF1.7149846773110424
aF2.23916293119428
aF1.2711955666400392
aF-0.26992231802285654
aF3.066010071944181
aF-0.33796054113476226
aF1.5336424533232784
aF-0.018944074674894534
aF1.4293510136110399
aF1.3990104867623545
aF1.2396538022873962
aF0.9454706503634828
aF0.9701349192691211
aF1.8369974192967968
aF0.04646248452653325
aF1.303334348641904
aF1.0194725171591559
aF1.4820036694475478
aF1.5747194873590002
aF-0.4076491054358209
aF1.3309840044093513
aF0.6668769684702428
aF1.0414096919229947
aF0.4915498638085857
aF-0.2851010868841839
aF2.920995539031942
aF-0.33659459070454634
aF0.8560126583537151
aF-0.13790398264159773
aF0.9470486643781308
aF0.9969792287685971
aF0.5433480848660444
aF1.0179316335997683
aF0.8485140634940375
aF0.22781528703810455
aF0.6922680301458594
asS'_inputs'
p4
I608
sb.