(ilinear_regression
LinearRegression
p0
(dp1
S'_weights'
p2
(lp3
F-18.37397082335683
aF5.799661985245962
aF7.643605811895564
aF5.618589704112429
aF5.406241098751193
aF7.557959389396213
aF5.8140063239575
aF5.527069251526729
aF8.05543110008236
aF4.640092878857151
aF5.522850053804357
aF6.6760601066342256
aF5.867258939074272
aF5.066068161696972
aF6.198568802488679
aF4.830083153986421
aF4.3739675689636766
aF7.759127224963354
aF4.719974826641949
aF4.915248134129246
aF8.997382102372729
aF5.091743044777963
aF4.510849595727481
aF8.050338422818815
aF4.125921046911469
aF5.618778403464492
aF7.638561446532479
aF5.744511612465991
aF5.172064742907247
aF6.69235652202906
aF5.47852007314332
aF5.053399394008524
aF9.75981917946852
aF3.205430596147303
aF3.5565637919804254
aF9.501483994750465
aF3.149193549860723
aF6.32906287495581
aF11.014804639084153
aF0.5202967732526809
aF5.368770862103995
aF8.779776549493041
aF4.24302712682266
aF5.055288109996754
aF7.352755387903232
aF3.7138717971995785
aF3.864473850920696
aF8.053311928044657
aF3.842374967887119
aF3.702108153739609
aF9.388563360104843
aF4.176937539311011
aF3.909607951157415
aF9.541150199906017
aF3.43275895489521
aF4.576020651239547
aF7.596367904284771
aF4.312248618179157
aF5.163909109663701
aF7.262249046348697
aF5.11316592452122
aF5.243647733018191
aF9.01473596763658
aF5.7198311025970066
aF4.755248890873099
aF9.13119880371044
aF5.79075139181315
aF5.278986018824276
aF9.679793608703939
aF2.844413724062014
aF4.751902087635576
aF7.7656350904330385
aF6.239277671569519
aF5.048845356478973
aF7.216344982205969
aF5.52828578515421
aF2.768818483225538
aF2.1257715474650585
aF2.7266973792368305
aF2.9602573961157157
aF1.1532018608389978
aF2.949022841336364
aF3.4789833045696645
aF0.7242870575963954
aF1.3885756418604553
aF1.3469744659130192
aF-0.9819383785044232
aF3.262397583448092
aF-0.13072493507162677
aF0.84075859995858
aF-0.30915355332631184
aF0.9150207354510184
aF1.6003224270191923
aF-0.49253776044262704
aF2.1895685318650395
aF-0.39248382891413336
aF0.5016668307538453
aF0.5133987713516104
aF0.928116013450831
aF0.7997432896099856
aF1.6452348408006041
aF1.0294532725759804
aF0.3023534008169439
aF1.5080603415300267
aF1.159541940034054
aF1.2420929854991003
aF1.0361538808414494
aF-0.8312701405171571
aF4.306371550148303
aF0.09044436109518288
aF1.7023135846569533
aF-0.43356890171655194
aF1.5681898050470415
aF1.5569722193759812
aF-0.15142745255432086
aF1.7192492543084907
aF0.6746992113653775
aF0.8317787737905676
aF-0.20989558507353703
aF0.8800744115853071
aF0.7745901085011528
aF0.32642911996737206
aF0.36363754904078904
aF0.3080754150223523
aF1.3164085737572802
aF1.2669324003893132
aF1.5071979492810663
aF0.8215429437072523
aF-0.8829454817001952
aF5.190338982725052
aF-2.912969617212627
aF0.7843791277917187
aF-1.7322925466441697
aF2.054257954255245
aF1.2061867231172123
aF0.12175602771382955
aF1.2808351436620067
aF0.6363227683131321
aF-0.31853836748062
aF1.1817153222431445
aF0.7716488435844935
aF0.816201663233372
aF1.2191663698286463
aF1.1003542692076451
aF1.5713313572087777
aF0.1809321802613062
aF0.6459211047211778
aF0.8500383762344791
aF1.1169083987992583
aF-0.3300802327390693
aF2.113248750763521
aF-0.3346954705357259
aF1.0199748391174555
aF-0.13105994693947717
aF0.8255672676778913
aF0.2207362686440412
aF2.5814492990246936
aF-0.2660956934291843
aF1.3241876179019705
aF0.7902063070317904
aF1.2255550334376761
aF0.8578082722947027
aF1.3582045199504151
aF0.47158502791955165
aF0.905653038678843
aF1.9924241999932872
aF0.5615002969141447
aF0.9756462444358109
aF0.928345001634695
aF1.4299256150799837
aF-0.17046649495909397
aF1.3769940101487785
aF-0.11273155083254588
aF1.5531644293900038
aF0.5583934074972556
aF1.7661428335713487
aF0.2476130769156145
aF2.0302552454137355
aF0.7366087571269369
aF0.779798388014935
aF0.03647850535938741
aF1.298104833797267
aF0.9984884681388557
aF0.8588880197231193
aF1.4329565448270785
aF1.0384499016435784
aF1.197909462310303
aF1.2908894750960835
aF0.8154896495874019
aF0.9532004647950733
aF1.7702399988185373
aF-0.8915863413507965
aF4.450913205702649
aF-1.1399380177135074
aF1.514125203936026
aF-0.48693706512406953
aF1.3198297942111423
aF3.0923065661213696
aF-1.2906191386813215
aF3.0377324985825873
aF-0.2268684504208772
aF0.37259105055643615
aF-0.21562828349145
aF0.9804687426737252
aF0.9846690187652558
aF0.43572445633228046
aF1.519509327564354
aF1.552367921048078
aF1.188448999057509
aF0.4233916247048788
aF0.795705109036933
aF0.811467816885725
aF-1.4242580007146224
aF5.532660037425487
aF-1.375289340341171
aF2.1400408578609125
aF-0.17205793318032586
aF1.2431629732293583
aF1.9168714785248417
aF-0.5824959542778434
aF0.8500769496415623
aF0.8778750389742124
aF1.277723598312265
aF1.1076466321921667
aF1.154725971131428
aF1.7460278983196338
aF0.7893164863703308
aF0.596305813302368
aF1.9663200802978318
aF-0.5400930618465879
aF1.7157225120840083
aF1.3453427844337917
aF-0.02215251911830475
aF-1.4989374286104122
aF5.982353303179759
aF-2.266119348393858
aF0.7561780414264841
aF-2.3456878310705918
aF1.9176093541022607
aF0.4991513409581201
aF-0.5991786078174091
aF1.675464102050813
aF1.0665012563429106
aF-1.0198217751222272
aF1.7666749970598639
aF0.5483446083877532
aF1.6887679192619087
aF0.9807892913143206
aF-0.6935613937227404
aF2.3233700138943965
aF0.4522885327073778
aF1.341972342274613
aF0.9088588376123165
aF2.4101649535612575
aF0.22852367743538596
aF1.9094114982522978
aF-0.23016970403471648
aF1.1095475518000981
aF0.08683514263689972
aF1.5374077767422707
aF-0.04525028864115211
aF3.041383757434101
aF-0.4092324393262684
aF1.8105438873626745
aF-0.416053843006879
aF1.1815602085272006
aF1.017622202693661
aF1.91343270965649
aF1.1065959639880718
aF0.3629827606447427
aF2.9985233256912056
aF-0.07967184469158739
aF1.392506458774676
aF0.6592574149414135
aF1.7950442249738765
aF-0.06519158897966339
aF1.5854601898501792
aF-0.09847517221705461
aF0.9153893815947307
aF-0.7811414150525987
aF0.6965027386252584
aF0.36340586156190524
aF2.858885684993334
aF0.7907436036014612
aF1.1681739540618554
aF-0.6977478857893817
aF1.3407470162820307
aF0.8651615289616326
aF0.8309877852736358
aF1.338179168536785
aF0.7436667414713917
aF1.8716172630662533
aF0.7298700572657003
aF1.0993623585624934
aF2.8492640634270088
aF-0.7068136249237242
aF-0.10916471580457891
aF2.0539543761150654
aF0.8297893437747519
aF1.842534511241957
aF0.33122948972761956
aF1.7148977509973369
aF1.4291822637480471
aF-3.5334825857358134
aF3.322703914512197
aF0.6885032731033398
aF6.246617573917854
aF-3.8849416836819533
aF0.9656025565209242
aF1.7563211906625253
aF1.0617545963554196
aF1.257641742403806
aF1.0285553962052538
aF1.324371604639357
aF0.9383673729414289
aF2.652852166107849
aF-0.39020804588061786
aF1.1018640193034601
aF0.894557101811024
aF1.451621577746567
aF1.1190847166570401
aF-1.4057449704224576
aF1.418432275762329
aF2.072917376485656
aF-2.744478713017241
aF4.405097225212745
aF-1.7037795419086639
aF6.411899498305746
aF-1.9519521754557467
aF0.0018039021129915762
aF1.4330659221959887
aF0.9414516428342559
aF0.8328576527122649
aF2.074317687710663
aF0.2908903401745345
aF-4.04486808060595
aF6.7365054914809965
aF-0.18717443968417902
aF2.975476625917935
aF-0.12674547734274785
aF0.305370694537209
aF2.542204928888764
aF-1.0380074083181519
aF-0.5833666175014303
aF2.865721408702076
aF0.5832744432601071
aF-0.08119690248401046
aF3.486634275398597
aF-0.3730424308413641
aF0.22948131903639357
aF-1.8273924803686983
aF4.1869355744022245
aF0.9341807618017715
aF-0.2852661577496587
aF3.10982498930563
aF0.2125406265152141
aF1.9201138414391026
aF0.8567094928976409
aF0.16006184612757376
aF1.6713776816133705
aF0.062071472274334225
aF2.282185600872238
aF1.0094568339743395
aF-1.7199830518385055
aF1.2024894413822382
aF-1.2985507352495096
aF6.298598800771961
aF-3.159023815853804
aF2.0751680125103062
aF-1.956987055362048
aF3.4852090495457877
aF0.6298613362410871
aF1.284768172720068
aF0.9565623050839123
aF0.028843133221342406
aF3.198533966781088
aF0.04452984672299759
aF1.3425466327119944
aF0.671973149440123
aF0.3825277608505016
aF1.9442163526351504
aF0.978149647326464
aF0.9152708006262023
aF1.8078788247408966
aF-0.2253258170187418
aF1.0387340639945049
aF0.2935953802957757
aF5.671722263233033
aF-1.590784405003889
aF1.7072768581181976
aF-0.3974611903003475
aF1.9357183406070202
aF1.135728312222661
aF0.757030008210291
aF0.24139903602974694
aF0.8894851946213167
aF0.947673231129707
aF0.85609404933398
aF-0.8703659961053885
aF1.4727556361930192
aF0.7662893779076164
aF0.8399278995603037
aF0.3997243407466428
aF1.7599810747799682
aF-0.2645027552359532
aF2.496700272468037
aF-0.7389806380134158
aF2.4719379312718432
aF-1.7348123529473596
aF2.5095300697861944
aF-1.690622553147919
aF3.853657009994906
aF-0.31221394800782276
aF0.8226069404294448
aF2.227946294652468
aF1.3016916664929776
aF0.3853082042124373
aF0.4327420451316262
aF0.8625057186596583
aF0.14726460679768297
aF1.8612990704764771
aF1.2751848157893495
aF2.4620996731345377
aF-0.22700837103584312
aF1.2883660488607802
aF-0.8258793268995153
aF2.726256957707963
aF-0.37684627134018445
aF2.13161079587732
aF-0.29144994266354823
aF0.7746358766143981
aF-1.2019800758683512
aF2.5537441965865444
aF0.7620775792774193
aF0.5662053519340143
aF1.9962864808143879
aF0.4468037306052849
aF1.2182623592699426
aF2.1244353533363483
aF0.4003162191536101
aF1.334460610596851
aF2.6236608938484682
aF-0.2772645677475791
aF2.3363840069463855
aF-2.8683265419158666
aF3.6225813676152976
aF-1.9274259151529032
aF6.382277985807247
aF-1.9094008411454266
aF0.9437281665865143
aF0.57838400329966
aF0.3574510350633296
aF1.9799822812016818
aF-1.578833939598846
aF0.7167490724959412
aF0.38683891469651716
aF1.5867536596152225
aF0.3757820645256452
aF1.0209913321461457
aF2.4040208165358057
aF0.6131266771251405
aF0.738326384731139
aF1.0710078490061292
aF1.8998978696209559
aF1.3985703515486003
aF-0.35232092400337056
aF0.8922604981765698
aF0.9947740026673643
aF0.5925241299312776
aF1.3279480614617762
aF-1.8271835499129971
aF6.301223513532799
aF-0.07945360571565854
aF1.7682305499153024
aF-0.47584794824238824
aF1.2325833157631756
aF0.7177717939967926
aF1.5495311858624679
aF1.09303100492198
aF0.2982024421543992
aF2.013231996161478
aF0.8563390625180297
aF0.37982517112673664
aF0.3738160507865422
aF0.6846430982643923
aF0.692009861338948
aF-0.11375466993186835
aF1.3526289616807048
aF0.18427024237053782
aF0.5750960936243567
aF0.602843299951834
aF-1.261484923324631
aF4.415221351331583
aF-0.6792648947347357
aF1.4786964169598045
aF-0.4953125603868556
aF2.120090767911776
aF0.8691516860012961
aF0.9607244347392165
aF1.108408258844327
aF0.4886905458287391
aF0.0775899971899953
aF0.36747819648587027
aF-0.28835414729253794
aF2.409894402457139
aF-0.04967470305057392
aF2.5582663439400584
aF-1.2891485204974453
aF1.9180687132717058
aF-1.2380024382569428
aF4.303878415450372
aF-0.06688194056978652
aF1.7505370324110474
aF-1.8754233955727466
aF1.1911521490381451
aF-1.5836555118272964
aF3.035181243476865
aF-0.23916025799191135
aF0.3948659744393392
aF1.6562358319884294
aF0.6419515384729995
aF1.099568181750833
aF-0.05863736960033946
aF1.0076826563181984
aF-0.24441335505435322
aF1.8092582464565308
aF0.7908149467994028
aF2.3154044653152184
aF-2.4803164225640555
aF2.356332597856006
aF-1.9194218188012282
aF3.507789870901358
aF-1.076282394352353
aF0.6201247315908502
aF0.748784176775525
aF1.0872614702087504
aF0.2915422866173575
aF2.462278163081345
aF0.6891886132271439
aF0.6162129134148305
aF1.8351744469043882
aF1.2228759164249312
aF0.819833719911107
aF0.9361743695151712
aF1.5758002488356022
aF0.7895502366374191
aF2.3143182542280147
aF-0.2366842886624037
aF2.2378217479353593
aF-1.9935534699663242
aF4.365445629293303
aF0.228841127406192
aF5.909894609241914
aF-2.2481854177141583
aF-0.07387705021080639
aF2.1276823350301513
aF0.7370685673899284
aF1.7600353806055273
aF0.09914404397177079
aF1.4963978312372457
aF0.7955282636148748
aF1.3637602728719893
aF1.1372256804352732
aF0.3848838213582409
aF0.16409979946267964
aF0.4240430977089414
aF0.8664240308695121
aF0.6483818634600175
aF0.9741430393444944
aF2.209328370755793
aF-0.9204199374118429
aF1.7643317108831804
aF1.6788943730494543
aF1.9426274526823537
aF1.3022378813252162
aF-0.7972413404150268
aF4.567388982343954
aF-1.2747453632245997
aF1.9281361343473098
aF-0.3363432802752922
aF1.4723097104660596
aF1.397905450570055
aF1.2616795310149387
aF0.8248230272586766
aF1.103657480831873
aF1.235504704188607
aF0.41958589603768837
aF1.2790705970847285
aF1.1937827202761266
aF1.237348865386448
aF1.626753206780704
aF-0.5754608306563966
aF1.577997513635785
aF0.49816585082776677
aF0.8577373629753026
aF0.5423498423104813
aF-0.4747976116768318
aF3.4134619056103674
aF-0.6020893665726009
aF1.1450787812348353
aF-0.1169817903788951
aF0.7571135215129666
aF1.0199643010635426
aF0.5006767650703781
aF0.9378909505309261
aF0.8760917473056772
aF-0.05244073767524986
aF0.8500996290132815
asS'_inputs'
p4
I608
sb.