(ilinear_regression
LinearRegression
p0
(dp1
S'_weights'
p2
(lp3
F-18.389868384494417
aF5.586819856958468
aF8.159736746862805
aF5.331198458569771
aF4.875427412317792
aF8.342894345679452
aF5.575782615244722
aF5.592838158310436
aF8.393564829395334
aF4.252087803897583
aF4.959076564028627
aF6.9392860353105155
aF6.183704061310833
aF5.0200224557633835
aF5.766051762823628
aF5.3245434607221815
aF3.8839690538131113
aF8.243887431987638
aF4.741110695905455
aF4.8641810411482975
aF9.171835484278123
aF4.984254316990885
aF4.310731464792913
aF8.263885474521176
aF4.128389687280905
aF5.245535394861792
aF7.8843530179456325
aF5.887860610792651
aF5.002185926215556
aF6.759414089658622
aF5.597238883342571
aF5.04309669681488
aF10.00835606382952
aF2.9830939701170562
aF3.448602221462537
aF9.717083808650042
aF3.0574528676159294
aF6.123488150385887
aF11.236276924790914
aF0.5202967732526809
aF5.190990149957454
aF8.810936484571508
aF4.405545465027832
aF4.808581475064861
aF7.3129294376453275
aF4.016301943526491
aF3.791106849031641
aF7.862294145365903
aF4.12265731359218
aF3.789750754911817
aF9.181009463827627
aF4.312746395553312
aF3.971269461382423
aF9.371173269231234
aF3.5569719364821237
aF4.480622786119755
aF7.4600074154286915
aF4.559904533292122
aF5.144939416587171
aF7.115800359054033
aF5.294481866029535
aF5.354265751479368
aF8.663908270147026
aF5.975938342762504
aF5.1532271980006525
aF8.587734536372718
aF5.952134913160425
aF5.615134424321553
aF9.122481742851171
aF3.081474745554517
aF4.850601460720712
aF7.712681501172211
aF6.209429448882307
aF4.955949616281272
aF7.107553084854027
aF5.745870983840975
aF2.7533789499564914
aF2.011936264093394
aF2.812347590766656
aF3.0513194963558288
aF1.0188103894947842
aF2.9866778720961555
aF3.544179811161958
aF0.5650060515127086
aF1.6454331133848408
aF1.2339584672033157
aF-1.5130569679507124
aF3.8411801963417487
aF-0.29222424189069424
aF1.2857648409623876
aF-0.8278473121726627
aF1.0743584648233957
aF1.932113006779949
aF-0.6751209847414945
aF2.1314232766433068
aF-0.6363963320127942
aF0.9462744560781811
aF0.17831217778171887
aF0.9173871425233397
aF0.812861176660258
aF1.6805008554376146
aF0.9848552930799888
aF0.22639572213682832
aF1.6938125062984033
aF0.9907965685720659
aF1.5976316947244287
aF0.8339210098091037
aF-0.9731896440605449
aF4.2649127808266565
aF0.15998735058847244
aF1.718934079989783
aF-0.8076848353967647
aF2.011335454924244
aF1.7207866953108026
aF0.16773234163960243
aF1.327337084419859
aF0.41980061311603534
aF0.9139951033164005
aF-0.17160478769423862
aF0.855509762729064
aF0.8612166624496742
aF0.30202224563488594
aF0.24251701345065957
aF0.6650436874138513
aF1.1457573435481645
aF1.1939836929944518
aF1.5871085857509486
aF0.7991414813632205
aF-0.4970358690251877
aF4.720150021750532
aF-2.942525552284792
aF0.764789668158405
aF-1.858486672385482
aF2.285691751159726
aF0.600367262774817
aF1.1996579605384763
aF0.89981477141987
aF0.8639411913422477
aF-0.6401851512163453
aF1.1413522116055312
aF0.8338731870307314
aF0.7980605022841165
aF1.2127382180914557
aF1.1887284242115261
aF1.687823548628022
aF0.041262340430449816
aF0.6821220566139161
aF0.7962071206537239
aF1.1190991692182775
aF-0.34625545405002217
aF1.5882973003394885
aF0.09259591782754828
aF1.2675518617087431
aF-0.6781043790903675
aF1.2106848887673336
aF-0.45447146454213133
aF3.71214911440299
aF-0.6305256753811798
aF1.2855258496258435
aF0.6047316997947477
aF1.3152999376066297
aF0.8431889848880745
aF1.4588713999471303
aF0.42319246608925615
aF0.8027655845989277
aF2.3355851786872996
aF0.3864232788923002
aF0.9985248204502559
aF0.9266396886905796
aF1.3933128187406463
aF0.06530508560694533
aF0.4518491081225664
aF0.46280648725590845
aF1.6261998860394218
aF0.25177119766759914
aF2.0853797982813926
aF-0.04715874223525904
aF2.857797214788539
aF0.2949007071431366
aF0.6471754495006417
aF-0.03664054538603738
aF1.36945535171277
aF0.9951433087644315
aF0.9025648134910995
aF1.4302799411933138
aF1.0914584995197247
aF1.2007651350477706
aF1.3002217110747336
aF0.5084614775471493
aF1.3065390793230125
aF1.7084900230618396
aF-0.992551141848658
aF4.534506773337443
aF-1.2364020682221768
aF1.8057682527461114
aF-0.536273743714183
aF1.1631736355210018
aF3.0840997721499157
aF-1.4338099970786717
aF3.2801922511915054
aF-0.566663271323823
aF0.7253669949868768
aF-0.36300087836316147
aF0.9170499179375781
aF1.0594186622448556
aF0.4620486683486202
aF1.5572811757523113
aF1.3651978949869792
aF1.4030436835229159
aF0.2447721543206358
aF1.1430787208068796
aF0.627274142231003
aF-1.2131254785706829
aF5.021351747890136
aF-1.188948856321507
aF2.246164057496605
aF-0.29241094690257224
aF1.343042998845712
aF1.9460060837420994
aF-0.2485228784718723
aF0.5780313688584707
aF0.5964825230402582
aF1.296421622068456
aF1.2359496530257192
aF1.1574807344554905
aF1.8212532058002449
aF0.7489914463254481
aF0.6561056163185361
aF1.9971647466479427
aF-0.5655410246205962
aF1.3158242321050135
aF1.699392732074428
aF0.008256279951050365
aF-1.7984701472476803
aF6.205319445302936
aF-2.303388055251526
aF1.1342264992006807
aF-2.89614926666578
aF2.175672543453085
aF0.28575745258769975
aF0.0701867149498082
aF1.3105547678941425
aF1.35972367094108
aF-1.5301766690988818
aF1.849416005094131
aF0.6296333946020214
aF1.6325454929912655
aF0.9933779621304878
aF-0.7334142962573205
aF2.4075744089081406
aF0.4731335468204888
aF1.1772216932187802
aF1.0231113858340897
aF2.4452235211263043
aF0.16912021773205663
aF1.3954587160336656
aF0.22935125451554028
aF1.1809211105458444
aF0.034766222754586754
aF1.6037533494086589
aF-0.3268467416058185
aF3.8437840021242473
aF-0.83897413081161
aF1.6824076028147397
aF-0.5098060733227879
aF1.2690572520468242
aF1.0976200096857327
aF1.8928205808299705
aF1.0848653165823108
aF0.47225523257606494
aF3.0080481654357936
aF-0.13327264977522488
aF1.3548856931580213
aF0.7671484866706828
aF1.70933438559226
aF0.18982367002827485
aF0.7105239633637909
aF0.4076105118896818
aF0.7363054157503017
aF-0.6330164482473412
aF0.8131119491942737
aF0.13740684795807043
aF3.6723092073145294
aF0.29438119512422783
aF1.0656676086544394
aF-0.6626377122727879
aF1.2737517168286332
aF0.8333847872070786
aF0.8769412205701698
aF1.3616575057545965
aF0.8957594979986564
aF1.663107887513345
aF0.8514831828836076
aF1.035358188833582
aF3.09546406112752
aF-0.9044489861643322
aF0.3103868617162756
aF1.5705953047956422
aF0.7797615542016155
aF1.52437166891808
aF1.0284386573611117
aF1.4215016372175273
aF1.7207195652431326
aF-4.075256056203705
aF3.6640021837251475
aF0.27428211049470713
aF6.714768648041627
aF-4.073263066541292
aF0.9809603608914085
aF1.7543076619485103
aF1.0860653514587435
aF1.3172805364851539
aF0.8926781116097591
aF1.4658066017457725
aF1.0033748639823945
aF2.726100677414449
aF-0.5439035814971963
aF1.143909763919405
aF0.5150668829460171
aF1.6752307686238974
aF1.1706135422709736
aF-1.2470317808367746
aF1.2938404720925418
aF2.051867625218026
aF-2.639461428073228
aF4.412191791776484
aF-1.7974941342073951
aF6.316989129808695
aF-1.8977186860042083
aF-0.009872565220476758
aF1.5344950332531444
aF0.88935402987036
aF0.6927548318233545
aF2.32590999207898
aF0.24459736328741502
aF-4.15515801409624
aF6.831355891702352
aF-0.18717443968417902
aF3.12922860447031
aF-0.39433273926681095
aF0.305370694537209
aF2.3481549628474743
aF-0.7583072307470337
aF-0.5833666175014303
aF2.730900512622543
aF0.8091574395797471
aF-0.08119690248401046
aF3.126806281906022
aF-0.14760590869300197
aF0.22948131903639357
aF-1.8224203098747536
aF4.219618434668063
aF0.9341807618017715
aF0.14942375773781486
aF2.7403315804104253
aF0.2125406265152141
aF1.8573387998512776
aF0.9332108307657763
aF0.13089601657825525
aF1.3302913057097763
aF-0.22587003196381786
aF2.797378197642248
aF0.6468997138432743
aF-1.0872856629297833
aF1.0179993841344286
aF-0.7180210196965198
aF5.8506099684261725
aF-3.2005025988209037
aF1.7954958267862642
aF-1.8244205444790094
aF3.4979232530425715
aF0.6798441866302064
aF1.3061988882500926
aF0.9228037699245591
aF0.266640578479198
aF3.102428285253613
aF-0.03196541041511682
aF1.242282706799657
aF0.8505462876793576
aF0.2887790152546095
aF1.5496087415896056
aF0.7050662319884567
aF1.4691265436380299
aF1.4238708222017613
aF0.6147219135336562
aF0.6683445475110724
aF0.5344388544325296
aF5.580832829582049
aF-1.6496763452495076
aF1.6727336113181097
aF-0.6278491263344108
aF2.0662580520969502
aF1.1557162062895052
aF0.7438929136945326
aF0.27220326723845295
aF1.2953699777829388
aF0.49672429161896403
aF0.9663547122753631
aF-0.9220039084920989
aF1.4967278908574797
aF0.7785155023608629
aF0.6793438987424046
aF0.4581525564460508
aF1.748301576526741
aF-0.40361348153303256
aF2.9894278976302955
aF-1.0069473253487367
aF2.520300148566428
aF-2.2053012454576413
aF3.0227188452420024
aF-1.4506667116182739
aF3.5729115765223343
aF-0.4058158274091338
aF0.78548988987669
aF2.284047435175548
aF1.3203626072824437
aF0.4120728335535295
aF0.36172935238641907
aF0.9719502886560313
aF0.2650213385051405
aF1.604888330530746
aF1.3983992907586054
aF2.3643408011874274
aF-0.37617269126117414
aF1.421453957661528
aF-1.0910757223433576
aF3.183423593508925
aF-0.4831663001674658
aF2.0948726338453603
aF-0.18140235046841408
aF0.7923885466913384
aF-0.9110985683544496
aF2.035955768461642
aF0.8545930285441851
aF0.5931023472133717
aF2.0605156466567403
aF0.3933326002433691
aF1.2700631553642723
aF2.2088015515165287
aF0.3293457314713537
aF1.2901293977964914
aF2.4778848604842243
aF-0.10259685485199982
aF2.0086628616029785
aF-2.5199753046836193
aF3.4881159923547886
aF-1.871221329437488
aF6.395333586523812
aF-1.8930108160475274
aF0.7308422246380866
aF0.8273772905985407
aF0.41240578995299665
aF2.5169485674800844
aF-2.288473657036687
aF0.7550310323111674
aF0.37959237886169056
aF1.63302874360786
aF0.37440854712762517
aF1.0816668063044006
aF2.432784427422724
aF0.5888840986722457
aF0.8672865896299395
aF0.811844293734877
aF2.0146616867243834
aF1.083368326138099
aF-0.520986885468993
aF1.262293201680965
aF0.6265058940729089
aF1.2145424822054813
aF1.1598480293118667
aF-1.5414609308658176
aF6.107364222113411
aF-0.08025483310331574
aF1.6837931226785516
aF-0.5926591693488086
aF1.299440492762139
aF0.8620419165179103
aF1.4780481466585154
aF1.0578989523646056
aF0.41175919180927195
aF2.06483622349785
aF0.7563745921190601
aF0.3576923069271244
aF0.31385338780479544
aF0.7512990921767412
aF0.8459497805444631
aF-0.5774344749704347
aF1.548533564142046
aF0.42770167672652415
aF0.7328123558077883
aF0.28734581494225914
aF-1.3441654902615092
aF4.555549735190981
aF-0.6458506114171126
aF1.158827526727851
aF-0.3636638428644244
aF2.1739194692770805
aF0.8925218349209858
aF0.9323062228648267
aF1.151111352558817
aF0.4736616716394787
aF0.05350862622478966
aF0.4717849482325958
aF-0.27167553998206334
aF2.2633460918077457
aF0.06475546701932576
aF2.4391970673850754
aF-1.2058500951681326
aF1.8400042811256825
aF-0.8791051383227659
aF4.211722469945347
aF-0.2479730834691287
aF1.5272834864074016
aF-2.0981576128789134
aF1.7282020125880755
aF-1.4764789963383858
aF2.8649157147525846
aF-0.3104627161007674
aF0.45665130833453005
aF1.6578630020859182
aF0.6161940652401124
aF1.0079712661419937
aF0.1373133396680926
aF0.968525369250869
aF-0.23896549673283646
aF1.5918904852787565
aF0.9872953163866606
aF1.97078478163127
aF-2.104440116383851
aF2.2112406919880843
aF-1.9649941723885205
aF3.6122163780397787
aF-1.0494863363736289
aF1.013447931676579
aF0.2713221110397117
aF1.2624624360989665
aF0.5142955120804729
aF2.0372715428093597
aF0.7570505366917978
aF0.7157639916665558
aF1.8705799046268563
aF1.1255744112105281
aF0.8869287021878911
aF0.9968382783219595
aF1.5132378643442903
aF0.8116653538406333
aF2.1731186549277908
aF-0.13303933983440777
aF1.9264518718664532
aF-1.771154665925832
aF4.3405814179500455
aF0.36573421535999195
aF5.784370291733989
aF-2.1739039766301973
aF0.17601165935876859
aF1.8054132047421434
aF0.900511088348502
aF2.027996362547168
aF-0.3081259397644667
aF1.501315361687619
aF0.7729214572580793
aF1.480289745362585
aF1.080958045061264
aF0.37815101261297096
aF0.264122687911305
aF0.3959495245978434
aF0.9135037254351499
aF0.5389610749886121
aF1.021044599981249
aF2.028751180224563
aF-0.9587643602418299
aF1.869418040872712
aF1.5789192752759007
aF2.2078606778641245
aF1.222629965446824
aF-0.7496610989377525
aF4.498253533588901
aF-1.1621280557067102
aF1.8789449404183658
aF-0.38547092101862884
aF1.4362370737941264
aF1.5298956213735893
aF1.2293412651443052
aF0.7628261530855682
aF1.305450229304354
aF1.215684456416479
aF0.30280990192959834
aF1.2506406788145883
aF1.1292370223503008
aF1.3148849483134148
aF1.939307581824338
aF-0.7748159440158788
aF1.3509629685799087
aF0.4700199735293302
aF1.0918899611458863
aF0.4219933329681697
aF-0.8630402380240106
aF3.726443582479155
aF-0.43576631685407985
aF1.1108940104088947
aF-0.3547037241744615
aF0.8946287547902484
aF1.0316350382014876
aF0.5099307621742402
aF0.9546212470489116
aF0.9379740876681857
aF-0.2159981620896197
aF1.016971219657395
asS'_inputs'
p4
I608
sb.