(ilinear_regression
LinearRegression
p0
(dp1
S'_weights'
p2
(lp3
F-18.652431745603955
aF6.22881978277681
aF7.158249103749334
aF5.9532495369748695
aF5.837472534144613
aF7.029454297999875
aF6.1897409022076335
aF5.874559027300118
aF8.090009072496791
aF4.536486052915745
aF5.730669290629981
aF6.606992846037566
aF6.006967885092521
aF5.220201098317942
aF6.165922610759383
aF4.987057331341938
aF5.052031544291424
aF7.003055330443212
aF5.0764436680820095
aF5.648774398284937
aF7.698504391165374
aF5.935555414076637
aF4.885589904809012
aF8.210304528072205
aF3.869675554823898
aF5.687092307965145
aF8.163579977868162
aF5.42964009887628
aF4.935151650116875
aF7.334479596816404
aF5.351771013393404
aF5.602109876778259
aF7.872236048325301
aF4.822764166768044
aF4.899184793597362
aF7.852031327350929
aF3.7344861378895966
aF6.549028887881261
aF11.07329954840553
aF0.5202967732526809
aF4.901800914858145
aF9.722031598064598
aF4.046202947743537
aF4.875140837849819
aF8.94483173379414
aF2.580403645702344
aF4.837654417877174
aF6.706941757275791
aF4.494025493947039
aF4.808773266722873
aF8.298193951362398
aF4.439102757317261
aF4.011547359075363
aF9.955330433017753
aF3.195100236112123
aF4.032005758671089
aF8.908528645136535
aF3.8225636921435155
aF4.530105716047725
aF8.208856603191741
aF5.078822683540738
aF6.28700066746171
aF7.888712254790067
aF6.080962803246652
aF5.7348136444713065
aF8.48867545808858
aF5.732170906084023
aF5.726144423236801
aF9.616392124470295
aF2.739117726129961
aF4.536596940771567
aF8.76936751353999
aF5.729311317572686
aF4.656385103905384
aF8.13340326767121
aF5.282148674509673
aF2.879311936950201
aF2.3761748230406545
aF2.666745128491714
aF2.457961338381442
aF1.585448738632972
aF2.951545988482932
aF3.524025781055627
aF1.1614562136895752
aF0.750920002603814
aF1.657954402801154
aF0.1898591668067913
aF1.5508939164557354
aF0.6593844621849805
aF0.5381677545612736
aF-0.4424898291953151
aF1.290995605972243
aF1.1696808549244258
aF-0.1473688182129291
aF1.7727451039957032
aF-0.5633094691782784
aF1.5772890013221965
aF0.04084911884139442
aF0.8011991448462965
aF0.8826845927714928
aF1.6917335533902083
aF0.8806192950631414
aF0.7957598588294722
aF1.2085303375161587
aF1.2710125919105015
aF0.6259807967982486
aF1.651288871390508
aF0.4673550959366488
aF2.634454520585805
aF0.7141394297794986
aF1.6245266903653774
aF-0.48967596142793934
aF1.6421315083048307
aF1.3731729374872979
aF0.14611867741925585
aF1.103206348489137
aF0.27164280650025147
aF1.660952567427001
aF-0.20376609605085988
aF0.817072574177418
aF0.7899862955349048
aF0.37655791748808237
aF0.1124175145574323
aF0.9815904909565922
aF0.9391560087921514
aF1.4192189661982801
aF1.2969875768681927
aF0.9899602040358232
aF-0.9165320459596528
aF4.970026648644252
aF-2.4086674432967805
aF0.46060175268997866
aF-1.4528360272913
aF2.038626559259024
aF1.003715327519007
aF0.12138108227153682
aF0.9813854269680274
aF1.1795072625750853
aF-0.22379370297249268
aF0.9760330412670104
aF0.9419386511981527
aF0.9013117438241713
aF0.966289628770762
aF1.1419185122559545
aF1.5774957171081372
aF0.1782460537994391
aF0.8783023312726529
aF1.2167391370110905
aF0.628319865195826
aF-1.3760388623525779
aF4.374366983525574
aF-1.299451798108731
aF0.9827933665068258
aF-0.6497936672798922
aF1.3215302098838138
aF0.4146829641253615
aF1.3639340397199746
aF0.25517681265975367
aF1.7448958238191454
aF0.44660957386670097
aF1.5806904384795097
aF0.840028784039462
aF1.3962371965387295
aF0.4538549867330484
aF1.3673557380339676
aF1.337350982079992
aF0.7999132919581308
aF0.9558559440312253
aF1.2680341555007102
aF1.2205202153431998
aF-1.4917068788403536
aF3.589525156989626
aF-0.7536190382166186
aF1.498892433057999
aF0.6822783107849963
aF1.636577675870504
aF0.7588494653857428
aF0.8154123286197639
aF0.9379192277163505
aF1.6477715936087192
aF-0.7493628699413464
aF1.6482198812981637
aF1.0007150682505885
aF0.9133127584969712
aF1.3788283530880747
aF1.2064493247072678
aF0.4354176199069658
aF1.9304243709215316
aF1.4012295389287375
aF0.37484605605599963
aF1.8733479719409163
aF0.7784737598652882
aF1.5724232750708054
aF0.31889508727777
aF1.2006878861081474
aF-0.2423770245385778
aF1.3287548207083828
aF2.218354622506817
aF0.11932745992992655
aF1.9994417858515938
aF-0.8720453130281848
aF1.7574233834190787
aF-0.5230368759527657
aF1.0727649946589606
aF0.5961128952750521
aF0.7345074749838277
aF1.6820431843994144
aF1.602357517329092
aF1.020968022427235
aF0.7152261410850195
aF-0.03734009430662503
aF1.4631719575738351
aF0.5919043193995693
aF2.458812882461774
aF-0.06720122991618434
aF1.8848988589726472
aF-0.1404153629362642
aF1.4067101511284257
aF1.5686081506281042
aF-0.29419815653837894
aF0.4077464220643625
aF0.4028947380862889
aF3.0203778998897133
aF0.2722195092965973
aF1.0477830732248619
aF1.7317191917767927
aF0.9130912379663035
aF0.20716376654318652
aF2.526048764379661
aF-0.6656372226833663
aF1.8951528836405207
aF1.2318337659625562
aF0.022419581521090394
aF-1.0668324537029097
aF6.263829346106424
aF-2.729297090652466
aF0.6413024333112413
aF-2.5792669151804555
aF2.206111795582302
aF0.7811457598360158
aF-1.6771379674418934
aF1.9691329850630053
aF0.8898609977910259
aF0.018400317621722676
aF1.33734004066166
aF0.6356823122458648
aF1.5534372414851902
aF1.0313054123795036
aF-1.0081726871744403
aF2.7240161234597102
aF0.4112961930795875
aF1.2496363037712124
aF1.3198490268177803
aF2.2020042565838995
aF-2.186042498473542
aF5.4782087495535245
aF-1.1339975038515766
aF2.2648006674882435
aF-0.7727766143526802
aF1.1818141672987097
aF0.7739352644208163
aF0.6613872152045349
aF0.6492824921068799
aF1.7743571516873424
aF-0.0934513188124614
aF1.327391297801979
aF1.2327536304658557
aF1.8955355506897569
aF0.9118848423291834
aF0.7848155187109215
aF2.4786573505121834
aF0.06340384890708226
aF0.9775072216868246
aF1.28489081012955
aF1.6949035205982785
aF-1.4907348049746405
aF4.315351531623289
aF-1.1524200224198984
aF0.8792979405861086
aF-0.9702470762731936
aF0.8617475901094048
aF0.79526685403867
aF1.541607418849812
aF1.173864819533785
aF1.762843567853705
aF-1.3620112580876598
aF1.8425876525823803
aF0.9455627142854226
aF0.9762479118489977
aF1.1150410037842098
aF1.2764557511802048
aF1.1836027739793589
aF0.9301380131295469
aF1.4049019914597018
aF1.4390977966742384
aF0.508306462656434
aF1.3100119486081456
aF0.31086411059124447
aF1.4041062204613282
aF1.5016404384966275
aF0.5572699410562417
aF1.7697991216689042
aF0.7831501667429556
aF-1.5909661920799054
aF1.5239235601269459
aF-0.13950722065995938
aF5.905459968938206
aF-2.2835267071449987
aF1.4116673151839176
aF1.1725879126499172
aF1.2019462628516095
aF1.4505078327143002
aF1.0505628353458691
aF1.1545405516740446
aF1.9160528629848868
aF1.0546018176720071
aF0.34085026623638554
aF1.3917814534614468
aF-0.015630143400963744
aF2.3222946643760363
aF0.7647050167779135
aF-1.6871769043820863
aF1.9942916588560686
aF1.9570241865849316
aF-2.0500443431922912
aF3.3242599875540804
aF-0.6326221997064053
aF6.273935317113395
aF-2.4528984586717733
aF0.29094526724171754
aF1.139170465776776
aF0.9487288812713132
aF0.01784991257647328
aF2.9521598157058726
aF0.2730984288009559
aF-4.254609558160352
aF7.056740422760064
aF-0.18717443968417902
aF2.7869752473715357
aF0.31215917677932836
aF0.305370694537209
aF2.5840876432978446
aF-1.139842373472349
aF-0.5833666175014303
aF3.45155396094504
aF-0.5048541667171589
aF-0.08119690248401046
aF3.434413528206919
aF0.11142519414415225
aF0.22948131903639357
aF-1.8156748307384305
aF4.177741071918518
aF0.9341807618017715
aF-0.25426945781431304
aF3.123870765856107
aF0.2125406265152141
aF1.0573004882355106
aF2.624965298015487
aF-0.6348871520619229
aF1.3378688114962998
aF0.9589223512882806
aF1.9692468675507602
aF1.5873389225053292
aF-1.7182021609556195
aF0.5628742112233526
aF-2.0363756824139543
aF5.94049463578715
aF-2.5653907614389597
aF2.504524437354746
aF-2.853830824628392
aF4.3849432717615
aF0.38811202891409224
aF1.7145579869394127
aF0.7710449453381368
aF0.7305311504118853
aF2.299059560370709
aF0.28735871242874245
aF1.1066040176354783
aF2.2117537709462383
aF-0.8108167918543236
aF0.8448899366481453
aF2.604680795335872
aF0.6384693441792664
aF1.9869714194129044
aF-0.13660032942005162
aF0.7109637309787861
aF0.7742702260853621
aF5.962308993552166
aF-2.8643420388470404
aF2.2804732983066147
aF-2.5623671232525287
aF3.959674711164629
aF0.8385787668729774
aF1.1432039194932058
aF0.154897817243081
aF1.1087926182373282
aF0.7728576112571297
aF0.8566447220762884
aF0.004459662622293652
aF0.741754317824361
aF0.7329584912732824
aF1.446462939803553
aF0.2503299444044419
aF1.5532437064543676
aF0.19541322783967158
aF1.3119251707056514
aF-0.07407377007172512
aF1.295873985058181
aF-0.9155427175409595
aF2.364028322859152
aF-1.81655347076105
aF4.045424533532769
aF0.05419632386123568
aF1.130503200861443
aF1.644755995383947
aF1.5795088524760825
aF0.4113106925170375
aF0.7236958311600138
aF0.5905919208124244
aF0.8393118506199589
aF1.1454362571100365
aF1.4094938390581575
aF2.4382898793881598
aF-0.34894574103403503
aF1.6845164881809125
aF0.5528737947643996
aF0.5034453670286059
aF0.4072599469302423
aF1.5601136722532498
aF-0.38680610351711586
aF0.9391931033575586
aF-1.9566629152850683
aF4.995594843597637
aF-0.4928433505228821
aF0.903227895835073
aF1.5764196906000731
aF0.532171124065116
aF1.2670943196532833
aF2.1680500226948736
aF0.35291206589759405
aF1.4576635466948231
aF2.787512918527628
aF-0.4538260747999739
aF2.4010820828551167
aF-2.90863903972059
aF3.8485990650868764
aF-1.6221657444336341
aF6.151140898815462
aF-2.043476175618016
aF1.5219180952033322
aF-0.9705899985135032
aF0.8259390505252784
aF0.8605403902854023
aF0.6225794965032947
aF0.06702440510403353
aF0.3175965555042823
aF1.6292303032905782
aF0.4050709271890947
aF1.2402638788298643
aF2.230882531801163
aF0.6120348916619648
aF0.1021320048906169
aF2.1368946020643134
aF1.5806989501280369
aF2.01087407258995
aF-0.5119930705656472
aF0.6900321992729431
aF-0.8089918724681362
aF3.185284972850491
aF0.47900084293298967
aF-0.2584690755627172
aF3.3007774920130712
aF0.849981883719409
aF1.740789066176183
aF-0.006383110386743655
aF1.2228068394405405
aF0.33507202467610264
aF2.152752761593748
aF0.8750323456579648
aF0.42327086222990007
aF1.7541768955308896
aF1.0353682195589162
aF-0.6846246113088837
aF1.6192775396784238
aF0.6141248455328312
aF0.8112677318063358
aF0.4879668457920989
aF0.8820528510648136
aF-0.4463797360007246
aF1.721320137621974
aF0.027316983580433926
aF-1.1826013958065626
aF3.7908940380679415
aF-0.6361171667235431
aF2.557731783908734
aF-2.320516659410723
aF3.2985063777805257
aF0.5268563822270738
aF1.4798822690220967
aF0.9340688754822383
aF0.6151054518589572
aF-0.03883591657460441
aF0.40253168070599904
aF0.3377366734722524
aF1.2857007338843223
aF0.5589215984820951
aF1.5352869348157394
aF0.1707629640013714
aF1.7315399134727314
aF0.6588978292495565
aF1.3441053914717664
aF0.9360385651572448
aF0.6863744961324344
aF-0.3327100429432538
aF0.21030527495273713
aF-1.067776674286911
aF3.5854499290199615
aF-0.8730609032815224
aF0.7898208913819961
aF0.8791365789495778
aF1.0266190217157631
aF0.7962382188434451
aF0.12351134047209589
aF1.1739063856388943
aF0.08759407364849386
aF1.037338542487364
aF1.341220675790449
aF1.3205429179330233
aF-1.121970039588536
aF2.2432510378382453
aF-0.29109431792782897
aF0.8897632821014694
aF-0.14653555717091052
aF0.8935672718045637
aF-0.10935421404117364
aF1.1696612630772414
aF-0.37382904840182096
aF4.8804152693888
aF-0.6313302802671027
aF0.9185086859201753
aF1.5830426000719662
aF1.1752351378985793
aF0.9235581136151454
aF1.017384065028809
aF1.4359086361036781
aF0.9552868686492791
aF2.4536308965344045
aF-0.43124010925594414
aF2.1760467115494135
aF-2.2565448640939922
aF4.94061533538249
aF0.5783464919954759
aF6.4773182486080625
aF-3.225066672414772
aF1.1992403236223845
aF-0.2237530981812307
aF1.3130905690337182
aF0.6548520807003394
aF1.9533025670808195
aF1.1796694858272987
aF0.7358186855866287
aF1.4186180426493586
aF1.1446006358327139
aF0.2703507696558861
aF0.0993725680091195
aF0.6483458573505826
aF0.16524768771004036
aF1.8193664118261252
aF0.6148282878624787
aF3.3047580937396144
aF-2.4080298727716554
aF2.4069151988347985
aF-0.28261370312370976
aF4.8321900306058545
aF0.31423112882993426
aF0.29826582226224985
aF2.278796554489941
aF-0.5839561557823242
aF2.3623189381308505
aF0.10157863603378893
aF1.0324518681674033
aF1.1350237215668089
aF1.825925425570114
aF0.5259820088533236
aF1.1887987928592063
aF0.9527245533567273
aF0.6622672113280103
aF0.7620981042132312
aF2.6698377626327496
aF0.38875976962598974
aF2.7242740169352855
aF-1.7800928673789687
aF1.935512015779231
aF-0.9777851875762211
aF3.0314217667828847
aF-0.21533577383820235
aF-1.129054005738591
aF3.117516876603347
aF-0.1541840012381756
aF2.4638376311429804
aF-1.619096420806371
aF1.3727161798261251
aF0.6047770426442274
aF1.0799456507492677
aF0.7763324704179222
aF1.1297190184258592
aF-0.361699087895957
aF0.9507731845995758
asS'_inputs'
p4
I608
sb.