(ilinear_regression
LinearRegression
p0
(dp1
S'_weights'
p2
(lp3
F-17.92894096599614
aF5.685966252334869
aF7.122797662814678
aF5.808063728745436
aF5.629622031451745
aF7.152633618591513
aF5.550921304702833
aF5.616686656114719
aF7.50380215060055
aF4.657074566391736
aF5.314696094328276
aF6.388330924499868
aF5.9181122233258945
aF5.010360404710619
aF5.765904899526446
aF4.8734249565761925
aF4.403242172496735
aF6.507097251465194
aF5.497700339248652
aF5.079984515730613
aF7.931471634198002
aF5.5478872739923695
aF4.74904941105357
aF7.484153305516943
aF4.008876491528474
aF5.533606737487502
aF7.62656170555232
aF5.396653162064313
aF4.8266268714643585
aF6.965853565431031
aF5.105431043825422
aF5.466767188038311
aF8.058554042420088
aF4.048298081807021
aF4.138697480579816
aF7.903313856928003
aF3.720200141723856
aF6.018817074938627
aF10.880020581742345
aF0.5202967732526809
aF4.580894729075923
aF9.63499273896661
aF3.730657213018549
aF4.637738488023528
aF7.735355326893279
aF3.303791622824125
aF4.562354956679171
aF6.265858190224043
aF4.486917742590728
aF4.408113143014457
aF8.193830635993194
aF4.220635416789069
aF3.672720149508792
aF9.245322563701544
aF3.5204445353889295
aF3.919070822335604
aF8.095173898858647
aF4.025362595149878
aF4.3591440929868135
aF8.000086983700943
aF4.735063146486837
aF5.49920106381859
aF7.817279408542005
aF6.216704473531975
aF5.414257216940337
aF8.236954341004491
aF5.580957671093112
aF5.496916414303963
aF9.37788785326815
aF2.4833592266585875
aF4.154107410553312
aF8.651026125619525
aF5.506651456105755
aF4.482002722057591
aF7.921568308865713
aF4.9448752355569
aF2.6465816812237675
aF2.2784704653462304
aF2.5793288592414347
aF2.3675703330823867
aF1.5156596018546058
aF2.895986151140908
aF3.43412586353945
aF0.9513842814126267
aF0.7628797594711403
aF1.6233363224844584
aF-0.6429853925699529
aF2.995694150348285
aF-0.05027557002525848
aF0.593842307373149
aF-0.2702675042646374
aF0.9756824589793878
aF1.269768447100744
aF0.0160637522985067
aF1.418833936009001
aF-0.20051220721941793
aF0.2703126273547654
aF0.9152390940716174
aF0.856041473482215
aF0.7389353179231045
aF1.7250806622606312
aF0.8072805206918081
aF0.4186191805084596
aF1.5691098726923478
aF1.0626846471804516
aF0.7469721503420705
aF1.5058952068504334
aF-0.3811733748627426
aF4.346640065358747
aF-0.24722200188846338
aF1.4159017692793792
aF-0.4371859945540706
aF1.7108501932666946
aF1.4132531298817634
aF-0.2264966387865594
aF1.3453504670015148
aF0.7968811066250379
aF1.1989035458188262
aF-0.3367445113458327
aF0.8778276934735906
aF0.6733549099257854
aF0.37687434645898926
aF0.5439747366641207
aF0.1703986697809496
aF1.2288906903449794
aF1.3385512918034317
aF1.2773291319454818
aF0.8575560676270663
aF-0.8709418594193935
aF4.660945198677692
aF-2.242880537564899
aF0.5422073153348133
aF-1.0954742181426784
aF1.5122429182152468
aF0.9274994098353413
aF-0.18419503326874434
aF1.2727864548930439
aF0.7629820734237067
aF0.12640960098828347
aF0.9725657896792539
aF0.8796619754023107
aF0.7663267926817438
aF1.1079914183669874
aF1.3925358489107549
aF1.053024643674037
aF0.36219987306259344
aF0.6351601882586487
aF1.1839110299124704
aF0.6715598595821088
aF-1.398731415378287
aF4.023338678539742
aF-1.023435297791665
aF0.7678886835585241
aF-0.15740538244315916
aF0.9566303387451351
aF0.4818337038173323
aF1.3139177625568186
aF0.14765134483203837
aF1.8671710458348498
aF0.2924262228587839
aF1.5428094306933806
aF0.9348220330456781
aF1.2591718472119058
aF0.44056724971161293
aF1.1479027100060217
aF1.351422165287774
aF0.9153952192621533
aF0.8813999300118953
aF0.9592702438437936
aF1.3710098852930999
aF-0.9338805530469064
aF2.7777243493573294
aF-0.5973489140722025
aF1.7937951521182025
aF0.21064617446984157
aF1.7258908238751804
aF0.3557134429908544
aF1.3604256506066523
aF0.7056509228254276
aF1.1923002460510588
aF-0.5555143525015106
aF1.8400535746376099
aF0.970437077677137
aF0.9409388812475347
aF1.3259203835689102
aF1.1072209607908658
aF0.8611088021011034
aF1.51406163512765
aF1.1418315557884244
aF0.19367363907544355
aF2.081188116335473
aF-0.09572394268981325
aF3.6913675234666403
aF-1.0235558162573857
aF1.5550513728635815
aF-1.0384832339566912
aF1.6830812741208165
aF2.2148278696361112
aF-0.4069905120504737
aF2.4388955054037007
aF-0.44945117633980314
aF0.4410049332078439
aF0.30099830079174056
aF0.9693897342929295
aF0.764505006226731
aF0.6139307870561327
aF1.4967938880927587
aF1.6390781275939796
aF1.0795967909528579
aF0.5600928524798412
aF0.020013457815793754
aF1.3282214383302346
aF-0.67629603329671
aF4.6217897635426395
aF-1.0596821159951826
aF2.031051247513555
aF-0.43334962963153106
aF1.466075760032513
aF1.2367842462454965
aF-0.5816438083340038
aF0.9366249729436862
aF1.0618716481568853
aF1.9890449367535343
aF0.5747864255838158
aF1.1952833954439408
aF1.6221475993690821
aF0.8196026708128908
aF0.44090180884196156
aF2.2599700482437832
aF-0.7231964663624506
aF1.7441842406549988
aF1.3090705676460888
aF-0.13657883290324285
aF-0.5394479628944792
aF5.227577503221486
aF-2.318134096270403
aF0.6104049075431571
aF-2.3606922340688175
aF1.9310183709884212
aF0.38286042128242626
aF-1.2522545344742368
aF1.852143885349951
aF1.0277083432093663
aF-0.4073072848117532
aF1.5554111608984875
aF0.5670066467708442
aF1.5277097406588296
aF1.0701487413388402
aF-1.1611178443748065
aF2.7648569312862756
aF0.43350062493723285
aF1.2212197824680637
aF1.1803379203621396
aF2.1372016286163493
aF-1.8183769761888173
aF4.691542710638987
aF-0.8127013449161747
aF1.6598446796372468
aF-0.3758499136227856
aF1.3024271851694527
aF1.1375152824653942
aF0.7921102240425982
aF0.06458845992531553
aF1.8296993339710463
aF-0.24641595253652843
aF1.3552246124640657
aF1.1517736597949395
aF1.700683703529224
aF1.1321568228185843
aF0.5590947054449729
aF2.6879829948825247
aF-0.010100899713467478
aF1.1876040503051346
aF1.1571958290281084
aF1.3797714173550406
aF-1.1880706044094815
aF3.2046069541310884
aF-0.4420440031871146
aF0.8988644691889373
aF-1.0673768500155352
aF0.8518945659986127
aF0.7192372403465132
aF2.0055546800922373
aF0.6955561666845899
aF1.5609302425785994
aF-1.129680779698544
aF1.7423813626899989
aF0.8863260459262707
aF0.8409672397590632
aF1.2539985068912491
aF0.9727830220673215
aF1.589549007388117
aF0.7379645913175398
aF1.6761314901175175
aF1.5564279402157761
aF-0.11298343526922754
aF0.831270538991443
aF1.0872623181804104
aF1.0087450647944511
aF1.8636335191414162
aF-0.5803891009146074
aF2.4580488137446945
aF0.7132415334648731
aF-2.0421145823515228
aF1.9545895783777376
aF0.5934533234019099
aF5.915224447139499
aF-3.096040866186339
aF1.0586474326816777
aF1.6306319658577466
aF1.0413622548039727
aF0.8506519460067882
aF1.4641513791434777
aF1.2509079770678004
aF1.5570883529860329
aF1.2999305514317547
aF0.22175578674916618
aF1.1442555713526572
aF0.5444230189089404
aF1.9120630264804883
aF0.9456925788627887
aF-1.933739479409149
aF1.972450402547892
aF1.9581693076375795
aF-2.808005212253019
aF3.990684730263209
aF-1.3066849038054502
aF6.74300148388489
aF-2.317691058122476
aF0.12493813862832728
aF1.3847693625049622
aF0.8135772758144745
aF0.5217901412413223
aF2.487918829801318
aF0.14349926852450065
aF-4.163547229057737
aF6.732947837931498
aF-0.18717443968417902
aF2.7542875304713195
aF0.2471425359850756
aF0.305370694537209
aF2.6058571943548228
aF-1.2490281937795906
aF-0.5833666175014303
aF3.1303175836193544
aF-0.2740087946905336
aF-0.08119690248401046
aF2.7136272657134555
aF0.7624223198594563
aF0.22948131903639357
aF-1.7436008722346499
aF4.050107276072707
aF0.9341807618017715
aF0.10532324729914057
aF2.6743781432265217
aF0.2125406265152141
aF0.8675992345695945
aF2.275007267390758
aF-0.32795812349762615
aF1.3086590129977282
aF1.0783165183645447
aF1.7813581412786288
aF1.5760587194701026
aF-2.2129876784862224
aF0.9815236625388817
aF-1.8343870941093408
aF6.047486090636817
aF-2.9647618098923068
aF2.069093865735636
aF-2.0156499088086703
aF3.9124037907826565
aF0.6608722271658058
aF1.225076943559491
aF0.932205953124299
aF0.600498004891665
aF2.4816787550613766
aF0.14487274574211476
aF0.7274476255927468
aF1.6952320773524168
aF-0.1478689619441935
aF1.6857812778210586
aF1.663222990302652
aF0.6413314503451415
aF2.1161489100636888
aF-0.22625880620020558
aF0.584028447857786
aF0.1008018021402585
aF5.550416018277799
aF-1.8693716449264468
aF2.283543813684118
aF-1.8982440885841951
aF3.2226920243405988
aF1.0140595542884026
aF0.8388177805506999
aF0.2282433314281191
aF0.7753949497818208
aF1.1631752593113824
aF0.7098248249614237
aF-0.28527536635056855
aF0.3687461235819363
aF1.1629714587622184
aF0.8878542275624863
aF0.575159168286639
aF1.6893188371188226
aF0.4247668637454192
aF0.9737954539595226
aF-0.052713958481644375
aF1.820150377926479
aF-1.4051342678984975
aF2.2389524750493837
aF-1.3884016089772406
aF3.7682710753626734
aF-0.1665912165307374
aF0.8755082870724827
aF2.1826331878103367
aF1.2410667364966086
aF0.0575679957638137
aF0.8977887673159757
aF0.6803417638935537
aF0.5529421191173971
aF1.0275840536827614
aF1.5809855182616785
aF2.291522768224938
aF-0.08736088720248525
aF1.471994387818144
aF0.1497643354622564
aF0.9649371416807943
aF0.26146136232987
aF2.371984699406833
aF-1.430087208496199
aF1.080212175884097
aF-1.7306849104628417
aF4.552487790581185
aF-0.3455034391070609
aF0.6014724094738392
aF2.0548334596419493
aF0.299953004042433
aF0.9665869522978952
aF2.4664366712224517
aF0.265132867209243
aF1.3320243551137825
aF2.8838356416821993
aF-0.6572398620999133
aF2.2732811704796387
aF-3.006643013406512
aF3.976699593453821
aF-1.7611534266305673
aF5.978661937770888
aF-1.8194258016267817
aF1.3505241063765248
aF-1.1370959501262132
aF1.0734479856657972
aF1.1343691546849324
aF0.3450504998324539
aF0.0009355005970354195
aF0.37859884654740605
aF1.558588258686957
aF0.3591508434075513
aF1.1304273888008776
aF2.2097118669474125
aF0.6531421290285389
aF0.13247515177119568
aF2.020102883700242
aF1.434417265885139
aF1.6268645634591306
aF-0.18939162846670357
aF0.6537359086103677
aF-0.356834011516704
aF1.9682746777946598
aF1.1564370077870776
aF-0.8776408254097259
aF3.9646951381145508
aF0.714844982165953
aF2.031419594643607
aF-0.13474243483820283
aF0.9907464986462953
aF0.5140831000451042
aF1.776844363810351
aF1.0163698307303166
aF0.36137457320376354
aF1.7923727967078802
aF0.9691686898919301
aF-0.4077027327301706
aF1.3601612136218628
aF0.36358903728430425
aF1.3107546549188225
aF-0.3797040399033682
aF1.1525324559533376
aF-0.49059352795363675
aF1.429721793447295
aF0.2757128504576813
aF-1.4077680009140567
aF3.861142917684884
aF-0.5715904465320534
aF2.3960391420044336
aF-1.5722506611363227
aF2.6421438846322634
aF0.638187116509419
aF1.1939510771891357
aF1.0531094956908096
aF-0.01252266821096222
aF0.6381963338019037
aF0.2632276328832749
aF0.15215860097093148
aF1.4212351133664234
aF0.3762350357749502
aF2.0038287849608833
aF-0.5895398950336
aF1.9255965646681483
aF-0.08711909802900433
aF2.045180096632529
aF0.8935645180247342
aF1.0991061904197008
aF-0.9703640349424784
aF0.3448365673657821
aF-1.5835263560171324
aF3.3579318864315324
aF-0.19958231574114166
aF0.4302480853687483
aF1.5265875570720593
aF0.6831810122644884
aF0.934082558291062
aF0.19349332508114042
aF0.8761801440660945
aF-0.015612144965996937
aF1.260303413034544
aF0.9887317681314158
aF2.1265462956904266
aF-2.1413928432946805
aF2.3589661060925597
aF-0.8581368084592838
aF1.6540861710817978
aF-0.4312322248700955
aF1.1364731504777312
aF-0.39609558842123793
aF1.1231057534852193
aF-0.7069135045526836
aF4.714866604157746
aF-0.2024862956635516
aF0.6538082588250956
aF1.9855341681211465
aF0.9818841596024381
aF0.8221260220453721
aF0.8475964636850564
aF1.617228411501081
aF0.6181832465013135
aF2.829806968102019
aF-0.703042814401939
aF2.5730164277873304
aF-2.8250802329215605
aF5.014476630277786
aF0.03218139856132926
aF6.869051622655641
aF-3.158051222278536
aF0.9626364583337378
aF0.034030900561530415
aF1.2015194302806527
aF0.9595724596653892
aF1.6168823303333724
aF1.141580206831397
aF0.5897891844803964
aF1.5611048921191806
aF1.0925834501270808
aF0.6053347474967132
aF-0.40235639144563096
aF0.7251909214483792
aF0.15064828464148775
aF1.5693355621350968
aF0.6467282848957482
aF3.474263269560906
aF-2.1062427542094686
aF1.837918546756867
aF0.18556908951825898
aF3.871343556553611
aF0.719478540989718
aF-0.4799005163422871
aF3.3400847684440205
aF-0.957469036430834
aF1.8268100803218088
aF0.5826875832179913
aF1.0170626420139286
aF1.251200108256645
aF1.4476155996739557
aF0.7325556107175971
aF1.380719506969831
aF0.5793860353745316
aF0.7537850976834389
aF0.5845291077438807
aF2.322365742082486
aF0.6810705309192668
aF2.1217135803150518
aF-1.0272116128016184
aF1.687486840127651
aF-0.3618852492123319
aF2.237192211611603
aF-0.12442242628108552
aF-1.1607463884164235
aF3.501457200707712
aF-0.5968229479636962
aF2.2859307391835944
aF-1.2788697956275858
aF1.1406073098284801
aF0.8477353221749632
aF0.6650067572422056
aF0.8927532470522077
aF1.0862071264101065
aF-0.4939417813336452
aF1.0366278525368757
asS'_inputs'
p4
I608
sb.