(ilinear_regression
LinearRegression
p0
(dp1
S'_weights'
p2
(lp3
F-18.51549470207076
aF5.855546673575231
aF7.898808790929435
aF5.449025915463576
aF5.4566148082584
aF7.552140195326134
aF5.910975687234473
aF6.09099449305474
aF7.860894341172839
aF4.412228274952757
aF5.52334247521091
aF6.4247084674789425
aF6.259642035537171
aF5.178081139645937
aF5.967171709481674
aF5.09099114775863
aF4.660880742705451
aF7.715516319477013
aF4.618196437100891
aF5.23654183365799
aF8.718178481150678
aF5.191176845185598
aF4.8891342119458
aF7.615142397738704
aF4.324356334487376
aF5.91212427146985
aF7.304074300585857
aF5.927176769121434
aF5.122556347187961
aF6.856960935410283
aF5.504947934195552
aF5.56934584573078
aF9.61472411973226
aF2.9761030828753703
aF3.915229283788649
aF9.391413370419937
aF3.0421225610966385
aF6.336343454218325
aF11.149047938535224
aF0.5202967732526809
aF5.703196661595778
aF8.536618082799485
aF4.29328367273867
aF5.050808549878733
aF7.144067824233354
aF4.068562799701671
aF4.239231499518902
aF7.406410470526985
aF4.256042655520841
aF4.131780862070554
aF8.823679227920547
aF4.45367284187897
aF4.350866192474753
aF9.100585343921617
aF3.57358944827657
aF4.893956524825531
aF7.044809586257481
aF4.687394941334605
aF5.544179319349141
aF6.964812913496686
aF5.171855726401961
aF5.296282432490288
aF8.64668072735209
aF6.1767755221235126
aF5.280503445588259
aF8.796275646927667
aF5.741943872595138
aF5.489458715529189
aF9.35962676869494
aF3.095631746079745
aF5.063574313774512
aF7.654832600833465
aF6.17993181374434
aF5.3518648631504995
aF7.009310888291822
aF5.5738242511110005
aF2.7805266436221094
aF2.2114902707029533
aF2.7980819076681027
aF2.8490327859392774
aF1.1886468962336003
aF2.955705115217146
aF3.520793072119017
aF0.78301265354007
aF1.4231827768204823
aF1.2653498954059546
aF-0.7717121852440144
aF3.5212578524480884
aF-0.5140926740942168
aF1.268123675155533
aF-0.7343277874322626
aF0.9842144227912888
aF1.469133760278949
aF-0.6668458560523386
aF2.383840684038547
aF-0.6406398564640067
aF0.9538799533089012
aF0.34478671174107134
aF0.8847125126839083
aF0.8624080091757055
aF1.6326558958825836
aF0.8117692915611063
aF0.3486934634857301
aF1.7212140274254706
aF0.8888916995644142
aF1.353797163071602
aF1.2068081041352103
aF-0.813411787043718
aF4.380632898906532
aF0.08404338210135319
aF1.8650681403089358
aF-0.9135500333519028
aF1.956800909461635
aF2.005669052643019
aF-0.468454767674305
aF1.4763551259849437
aF0.39296426446024096
aF1.192768040785263
aF-0.25370486976844586
aF0.8221802330200086
aF0.8891204503133755
aF0.2764752306012262
aF0.3949808820956023
aF0.4377795325699529
aF1.197170890704186
aF1.406806406772224
aF1.3680258267305605
aF0.8325492202714405
aF-0.6881279287439432
aF5.071636911868483
aF-2.9033663760744526
aF0.7852174075764908
aF-1.829402778095431
aF2.2219144343530473
aF1.0868923671474437
aF0.3617521350980534
aF1.0489087820710774
aF1.0154532073236893
aF-0.5705353526720198
aF1.0900269038185983
aF0.7380995477380013
aF0.9369922347969065
aF1.13860736799238
aF1.1024628844173414
aF1.6229893294012887
aF0.16897536040843994
aF0.7499421145200589
aF0.7923145757427679
aF1.0823193498887314
aF-0.04611213471918525
aF1.5259198055228402
aF0.05438409992286355
aF1.1978082962913614
aF-0.4966000650386423
aF1.084658457034432
aF-0.04622245063148373
aF2.999985070154868
aF-0.5288973554602994
aF1.2542616936249058
aF0.7609494201260315
aF1.3601828800150944
aF0.8074443446608315
aF1.4730347707716642
aF0.4138009786129518
aF0.7275714662791236
aF2.247556289623861
aF0.5262595472326089
aF0.8839756184822672
aF0.943658298591341
aF1.5179911044734655
aF0.009450068807449925
aF0.8819574454320247
aF0.28810717335546454
aF1.3926884382433327
aF0.4563268209260893
aF2.1000699397204103
aF-0.15596747795464141
aF2.803519865992338
aF0.2557000812421517
aF1.1544854089268897
aF-0.23955920808939923
aF1.2349005617286934
aF0.9956639438155653
aF0.9131098639032152
aF1.3882414988510487
aF1.2544109912077945
aF0.9968534723244696
aF1.3177941430670495
aF0.8126947375473595
aF1.0614574877778622
aF1.6764860482724127
aF-0.5478695274575583
aF4.342987896501769
aF-1.2900107991680116
aF1.4610881594255074
aF-0.27849861751031824
aF1.2358129195391747
aF2.7203871615424675
aF-0.9687926252134511
aF2.9766007795171916
aF-0.3135130811445103
aF0.4942962716866547
aF-0.21524383850337345
aF1.1151156381260656
aF0.8290556751505374
aF0.463373178375439
aF1.8424547838137948
aF1.0120684631826145
aF1.4476127682228814
aF0.4723590861134674
aF0.6873432587010604
aF0.8825703662096087
aF-1.4653134790326336
aF5.321010780678912
aF-1.0368658820388008
aF2.070586264657498
aF-0.09686598991933552
aF1.308810151602996
aF2.082539408513122
aF-0.6533945531868719
aF0.6440830083858576
aF1.0848318632948868
aF1.1481418918895538
aF1.0657165496888426
aF1.117480774667563
aF1.8259577984047968
aF0.7533140566298114
aF0.6437625650987329
aF2.0524860281437753
aF-0.631905993939555
aF1.763646594254213
aF1.2579632220132289
aF0.02901112152866296
aF-1.9084474273372567
aF6.643935353460199
aF-2.432472676709601
aF1.064537461296205
aF-2.968542079074742
aF2.303488710667968
aF0.4588476473840318
aF-0.5952093621449969
aF1.6005739397760366
aF1.48371522011377
aF-1.3896935053667618
aF1.7547777989281257
aF0.6380010006952329
aF1.5880123100769552
aF0.9985707820725734
aF-0.7286169433219096
aF2.40348384271583
aF0.4490400210344317
aF1.3119304592046035
aF0.9058411164948968
aF2.454932718145273
aF0.18936586386756796
aF1.8240142229726701
aF-0.019895891949466622
aF1.5756540605747058
aF-0.3685529346099026
aF1.5980738736457116
aF-0.43380422704382193
aF3.3836432983465383
aF-0.47416265201245184
aF1.7022534634301996
aF-0.25757935097589146
aF1.1668211758232907
aF1.063864472712764
aF1.841761294771977
aF1.1387073827342598
aF0.7100239088294474
aF2.7787766353295047
aF-0.16515653496524996
aF1.376724542305321
aF0.7519866130846525
aF1.7298051036966149
aF0.12155934547406741
aF1.4251754726553696
aF-0.03922266623818107
aF0.37672540787245196
aF-0.3339847796210213
aF0.859394605347283
aF0.4792288702358614
aF2.979607628423787
aF0.4429740413206112
aF0.8793595516338598
aF-0.379269911942375
aF1.346528480257605
aF0.9123836681596059
aF0.7487338793454585
aF1.3798932091477667
aF1.187622556046068
aF1.2996745487181516
aF0.8996667245884764
aF1.1655946174158585
aF3.067972949762471
aF-0.9800466097159279
aF0.3659161059154985
aF1.6225430283974107
aF0.8718385930101259
aF2.0527104277192945
aF0.2539528707075481
aF1.6533829819713033
aF1.5130633262112305
aF-3.3193324771968875
aF2.9134481333336284
aF0.20483073975890984
aF6.582765719349294
aF-3.701972260374334
aF0.9845859420486871
aF1.7145347775403246
aF1.0912398978306366
aF1.4029072824288482
aF0.664927576022847
aF1.5845436523460694
aF0.8591070776266099
aF2.8574589214829187
aF-0.5038463455442876
aF1.2048107619113593
aF0.3725522958227856
aF1.9563983643646745
aF1.0694225764058298
aF-1.1412372142969156
aF1.2749711883192607
aF2.135735444609991
aF-2.7055498887437595
aF4.19212572263846
aF-1.7076065402154672
aF6.464888011320474
aF-1.9656686547690667
aF0.037245009898998684
aF1.4496310779522217
aF0.896127653172795
aF1.1230666598750632
aF1.908654864823623
aF0.2081539234481511
aF-3.8671791312185184
aF6.570524702490338
aF-0.18717443968417902
aF2.5639960476106305
aF0.37045382420242706
aF0.305370694537209
aF2.7248735157223054
aF-1.1492914667204186
aF-0.5833666175014303
aF2.9019817931084977
aF0.4357894486772281
aF-0.08119690248401046
aF3.356061193554333
aF-0.20702431360242757
aF0.22948131903639357
aF-1.8842598877593875
aF4.2504852556736905
aF0.9341807618017715
aF-0.07568243157224314
aF2.9420510306775562
aF0.2125406265152141
aF1.9822141414262469
aF0.9026909199841602
aF0.06368827945056166
aF1.510124750962586
aF-0.12427488551568042
aF2.7155036125507706
aF1.0309612684027218
aF-1.5391275415907404
aF1.071514025137396
aF-0.7887274036442001
aF5.636630377340552
aF-3.118103334204216
aF1.820615746642107
aF-1.5209324285920602
aF3.3391517240386195
aF0.6790624681942962
aF1.2228062041740468
aF0.9760054155575021
aF0.13644493125783505
aF3.202760685750754
aF-0.025488902733831795
aF1.328709487318438
aF0.7666713029652583
aF0.3133749131155606
aF2.070415661926007
aF0.7874063248155616
aF1.0655335370840244
aF1.596045798276334
aF0.09507226861878164
aF1.0015535332528085
aF0.2162566559778446
aF5.547473984895311
aF-1.5004220125246335
aF1.673713995472429
aF-0.3541083703462759
aF1.9613734186933396
aF1.1742555123512761
aF0.6626970999200361
aF0.30388701807216273
aF1.0568508839055655
aF0.6898611174818917
aF0.9883502412468808
aF-0.7643890976650192
aF1.5561011535407707
aF0.5886751225161239
aF0.8774765525619665
aF0.5328345285718898
aF1.6750409571908456
aF-0.6592203024211023
aF3.1160180813800045
aF-0.8921963713089175
aF2.5974199349849107
aF-2.3329066907258205
aF2.8709177936751473
aF-1.1413158297348178
aF3.0845185002996423
aF-0.05693712633109145
aF0.7267431742244856
aF2.280429297618549
aF1.3517547036126352
aF0.4323328876324952
aF0.26481691803657426
aF1.0252159298839763
aF0.16768747081226382
aF1.7457355958048868
aF1.3820335868429634
aF2.51259768257059
aF-0.5333748909425582
aF1.629953282569264
aF-1.2481476058710224
aF3.411825694775316
aF-0.5687622010047642
aF1.9883638739053684
aF-0.46337484628816633
aF0.9785830920345019
aF-0.35746424680937483
aF1.776843232248221
aF0.7299077499514087
aF0.5288043044380234
aF2.0424102918758935
aF0.4447632409205543
aF1.3354146135306113
aF2.198614535564044
aF0.2507945502145782
aF1.3711582989982227
aF2.5995773051492606
aF-0.2781705070531471
aF2.3893863654018603
aF-2.6595557112646344
aF3.4465269017464886
aF-1.5426840128188533
aF6.112053591497089
aF-1.952533820737993
aF0.7483411628802159
aF0.2724821766654364
aF0.7475152552273887
aF2.165898560088515
aF-1.7118618123909533
aF0.6993057017958598
aF0.3660162863243719
aF1.5663638454793056
aF0.4236767809144838
aF1.0181009774643093
aF2.5083126264714646
aF0.5535349894206552
aF0.9304661878848411
aF0.9052555118105389
aF1.885218564059445
aF1.335377527737194
aF-0.5654162058123839
aF1.2542673270347544
aF1.0642178279660355
aF0.7913225897999028
aF1.131090304725772
aF-1.4956806077813476
aF5.482801775891887
aF0.29624057961710615
aF1.6541038573762734
aF-0.23675783667741626
aF1.1430649321318362
aF0.7827506315957586
aF1.4238967952818533
aF1.1603688317844072
aF0.1353924239077038
aF2.3466888539267834
aF0.7275019905487551
aF0.25437384145705144
aF0.4840001460770815
aF0.7116184930401699
aF1.0437394627366239
aF-0.32316880019872274
aF1.296032213787677
aF0.21522153387208737
aF0.6339351162941671
aF0.5844375142117827
aF-0.9724467836587695
aF3.9225182312781643
aF-0.5868245245236537
aF1.3456217211446047
aF-0.13428642523351503
aF1.9275843639682662
aF0.9339451066179497
aF0.7788373505909645
aF1.2321841962567028
aF0.3909743278171899
aF0.13410894569277657
aF0.45048523354396064
aF-0.34210505216628356
aF2.330712507687292
aF0.09496625698957252
aF2.5533195720250896
aF-1.003261059232254
aF1.722846747159314
aF-1.0213970654941595
aF4.024272751736909
aF0.06750287881219029
aF1.5337745532715552
aF-1.854670834140844
aF1.2759374565692252
aF-1.5096356765921122
aF2.7565722098082235
aF0.0008739758361593931
aF0.47875410037980276
aF1.6562843637066798
aF0.564697154695064
aF1.0531497032129333
aF-0.09598457214828993
aF1.1332581049533712
aF-0.30141044080114016
aF1.7387189245685166
aF0.9300595148308513
aF2.4314870328049425
aF-2.319153563019631
aF2.164805894059738
aF-1.8052550042642317
aF3.274327327761627
aF-0.8856021373183213
aF0.9288198850324189
aF0.09023282587150441
aF1.325893057494737
aF0.3773800516183727
aF2.614017093000125
aF0.4870569537020062
aF0.6206507355873713
aF1.9960391485925586
aF1.064255666444998
aF0.7728652377312061
aF1.090037937512764
aF1.5107149305672298
aF0.8493761103943069
aF2.4009238073328625
aF-0.3714075551275071
aF2.2624896272940336
aF-2.255582937338425
aF4.688525940544602
aF0.2630496963156183
aF5.855066028880229
aF-2.1561808778306073
aF0.04361110439686627
aF1.6665394763135057
aF0.9694986613224615
aF2.0658182733744
aF-0.036921052172528016
aF1.3621250700073053
aF0.7457247543321943
aF1.5221773135535808
aF1.0352944229171375
aF0.10318665794443588
aF0.512976368262252
aF0.3986734598724886
aF0.9638358804665026
aF0.7065350228848771
aF0.8302861907192476
aF2.376264707870822
aF-1.215048991044165
aF1.9777431506383445
aF1.789486563699458
aF1.8175908388318545
aF1.3880668329569452
aF-0.5882059174066678
aF4.0206161755835375
aF-1.0482325896489983
aF1.5979341336130908
aF0.33219144506930415
aF1.1694220212503013
aF1.3353405375918015
aF1.386092131738696
aF0.7696576133939509
aF1.2241208203129572
aF1.240040203339158
aF0.33639682495539786
aF1.2305047618050886
aF1.2331199124580063
aF1.2582856688808322
aF1.6348213661373578
aF-0.34753094521426353
aF1.4277181920747772
aF0.49863217030681173
aF0.7055984912811428
aF0.765406922956912
aF-0.5369082611914144
aF3.3300584537664495
aF-0.5677998753905452
aF1.3359829729487807
aF-0.20363405631177264
aF0.6883066311265229
aF1.0017651625354689
aF0.47754177097599887
aF0.9859073570341589
aF1.108548206749988
aF-0.18141232564821094
aF0.7884245250912616
asS'_inputs'
p4
I608
sb.