(ilinear_regression
LinearRegression
p0
(dp1
S'_weights'
p2
(lp3
F-17.9646842923499
aF5.200039416141428
aF8.53802723239039
aF4.914504321718767
aF4.355438351903048
aF8.494192116651238
aF5.519289812547264
aF5.58328842852533
aF9.452077875515595
aF2.777940395420465
aF5.120047950812336
aF6.891310216277613
aF5.645524401418832
aF4.783035761478273
aF6.0863256924493685
aF4.816072133240329
aF3.6163517301461057
aF8.433686810395995
aF4.393744549023024
aF3.982523091212652
aF9.521504293102401
aF5.0910593659601036
aF3.920666110770382
aF9.195691261270174
aF3.161465162412912
aF5.354309281180712
aF8.089893915285128
aF5.148361734992994
aF4.7871116149563075
aF7.0958426283043
aF5.050700563814946
aF5.250236689727521
aF9.715835018008837
aF2.6432909308833032
aF4.144372335610765
aF9.322809440456732
aF2.3307730295178883
aF6.082063094183953
aF10.852517888851041
aF0.5202967732526809
aF5.425275553274241
aF8.2756838465544
aF4.28132860758671
aF4.5731726561579515
aF7.069073080227935
aF4.070383027709433
aF4.4097602182301685
aF6.857862947720324
aF4.083251049897193
aF4.680753510870878
aF7.8934740528353995
aF4.284094958444384
aF4.579655398636813
aF7.937597210030563
aF3.9569779662861913
aF5.051126902812204
aF6.161200891893573
aF4.863022847993637
aF5.480395344961363
aF6.455600235015357
aF5.194041969552808
aF6.022387916264387
aF7.623517424971089
aF5.923022931011144
aF5.944203495189208
aF7.659876116662973
aF5.663832943539153
aF5.558739298524437
aF7.517660933070931
aF4.317506588989826
aF4.974940982101513
aF6.882457562968055
aF6.490129773564421
aF5.102195589056079
aF6.383352216563101
aF5.898641787215888
aF2.734154710977651
aF1.5566425742265402
aF3.1525474914821614
aF2.7757086225971577
aF1.12456204060709
aF2.936620769875857
aF3.473230072016345
aF0.28006915870279503
aF2.427372258889451
aF0.7177319755299028
aF-1.6452284453649495
aF3.294726585029757
aF-0.0688928430313263
aF2.091339365602715
aF-1.570992932510605
aF1.3521294612362942
aF2.459918912954589
aF-1.3573804661517772
aF2.0102659781202297
aF-1.8097584270325604
aF2.2757740039276824
aF0.12792637606428478
aF0.5330960214816592
aF1.545892588609619
aF1.2817034623096193
aF1.2394560077328347
aF-0.2679251845795431
aF1.8625829592163483
aF0.2822716935929653
aF1.980643077973737
aF1.1402102625602086
aF-1.0255177790832837
aF3.9084391196909505
aF0.11349545687999506
aF2.9622704382815175
aF-1.9647910779402893
aF2.2653052398915783
aF1.4394055408831288
aF0.5635575483334266
aF0.9372821583949168
aF0.00949478885636223
aF1.7060525262018718
aF-0.447604735207766
aF0.4588497167668795
aF1.501603863884691
aF0.00823798794174161
aF0.3283916293949002
aF0.11864014780043422
aF1.5353365280717717
aF1.1385766037580274
aF2.711208865734501
aF-0.28877594836256487
aF-0.5854298250930838
aF5.577844970251869
aF-4.167120234585022
aF1.420031147396197
aF-3.172397537537457
aF3.28456103778909
aF-0.31080121505491926
aF1.9689789223379988
aF0.766051413691363
aF1.361255356977214
aF-0.8352579820471249
aF0.944862527913643
aF0.48275577329026426
aF1.1829623425559015
aF1.128896689339824
aF1.432709986427719
aF1.1193022601747982
aF0.2948523275219193
aF0.5323757482957868
aF1.0374909177783165
aF1.0083374414331547
aF0.2420180408368546
aF0.7537174051895512
aF-0.11639137177634082
aF1.522507173566241
aF-0.7754454403920018
aF1.3932705389266813
aF-1.6738382686631745
aF5.239874358652415
aF-1.2144949892682158
aF1.7430233567680358
aF0.29889210857419124
aF1.2693936727973238
aF0.9068332350205326
aF1.5691862039350506
aF0.19917630974856246
aF0.9684795198022225
aF1.6460460619642017
aF0.839298721266542
aF0.8622171770253074
aF1.2605826539533018
aF1.1764532579242208
aF-0.30665092598369625
aF0.44936221960214917
aF0.3819556975000672
aF1.889109462497256
aF0.14771501066126974
aF2.2667263095453483
aF-0.5920722633758954
aF3.519297413124575
aF-0.09729684381097714
aF1.101721363160219
aF0.052505379575377036
aF0.9315151642040963
aF0.9535951110875179
aF0.8722078957181462
aF1.452127954422873
aF1.231741688949608
aF0.5733499694130677
aF1.7164039481339912
aF0.25176354136051887
aF1.9279691419499776
aF1.3245336576428342
aF0.05163396310579084
aF2.168799336313879
aF-0.3701734260198155
aF1.4452418745378917
aF-0.028427782521347505
aF1.3560539532516758
aF3.5636025849912905
aF-1.913545334886419
aF3.004813902399164
aF-1.7897504039001693
aF2.7042144147767653
aF-1.0130095144644438
aF0.7931778986214184
aF1.4759342588371145
aF0.11934798885220131
aF1.7301594005762797
aF0.8758010080240469
aF1.6486126065163131
aF-0.17485836838275948
aF1.458113820753853
aF0.7126453260088154
aF-0.7683183634487778
aF3.477301827897137
aF-0.5449997413172458
aF2.2486637756227927
aF-0.25323081042686907
aF1.6415630449592542
aF2.374268282006079
aF-0.8390576155912547
aF0.46469303395516265
aF-0.25371471309589116
aF3.1187939040138812
aF0.3695262583287219
aF0.7873222647216759
aF2.3231417417322184
aF0.5672042779069818
aF0.5388648634437897
aF1.802942158285202
aF-0.3250274225286941
aF0.721544427534812
aF2.6695119865663037
aF-0.3868074089493495
aF-2.3076448737718516
aF5.914757140908946
aF-1.9589447142001748
aF1.293340980016581
aF-2.1929375967966225
aF1.653546293483289
aF-0.07336176963589912
aF0.033291360777328645
aF1.430958470531515
aF1.9436020908539307
aF-1.3488489141480549
aF1.1899614813427315
aF0.26635752809327656
aF2.0673739555700714
aF0.8717682638401055
aF-0.040622931182684195
aF1.3773507123328161
aF0.7396161391755856
aF1.31742885349082
aF1.3835759222950654
aF1.9253275854146417
aF0.7899382421234948
aF0.3942803509413004
aF0.1544179053495446
aF1.6392152306970182
aF-0.2034118096626806
aF1.7238371623900002
aF-2.0208905054711015
aF5.725554573148646
aF-1.3023118117294297
aF1.7412535966701468
aF-0.4571645189022903
aF1.2633213548832507
aF1.2080855396035728
aF1.8309260787449044
aF0.9862371865292241
aF0.8864420541712725
aF2.219963300464128
aF0.16967565445566812
aF1.2133806080181515
aF1.0846474186199808
aF1.5141162998041995
aF0.3453890638368911
aF0.4026003387046292
aF0.10467505287335734
aF0.7606635943130323
aF-0.34691152026350647
aF0.8428487433629561
aF-0.5390027957667095
aF4.496989660286479
aF-0.1295004878816339
aF0.954132390749887
aF-0.7734336518716978
aF1.60183452544441
aF0.8340775306464996
aF0.7826364048188953
aF1.405212475846145
aF1.4295188176970974
aF1.0842764932629745
aF0.8256055182899407
aF1.208389386568473
aF2.7172185616757143
aF-0.718458923426194
aF1.3851947030588085
aF0.10658173881147494
aF0.7136735889763379
aF0.7937986069589399
aF2.3309835270897543
aF1.1897297301633578
aF1.357748368939226
aF-3.599918051741324
aF3.2760245018078837
aF0.5298078354617562
aF6.430967152445967
aF-3.939235644800383
aF0.874367757825011
aF1.6437894670747784
aF1.2531190471785572
aF1.2211926266817497
aF1.0588529475034492
aF1.3247699365099
aF0.7601071234435803
aF2.577391613336824
aF-0.17115101585941053
aF2.161424848880567
aF-1.0788332197651984
aF1.7963220965070454
aF0.5977498117293324
aF0.3275169861554216
aF0.6323553363573194
aF2.3522037580907145
aF-2.791265268896572
aF3.988048625968357
aF-1.834131853367539
aF6.629950269316804
aF-2.068290455239821
aF0.02647308178666875
aF1.3474047884561093
aF0.9900415254399348
aF0.8870972713713247
aF2.1256289697950677
aF0.17958620687772667
aF-4.018574846513342
aF6.6755484851413
aF-0.18717443968417902
aF2.9538753056304037
aF-0.6742731302936208
aF0.305370694537209
aF2.3246183041421413
aF-0.3945706713262808
aF-0.5833666175014303
aF3.062124637583403
aF0.20232244086023948
aF-0.08119690248401046
aF3.4004479389627056
aF-0.31549591463735255
aF0.22948131903639357
aF-1.9405609538042323
aF4.287701976377193
aF0.9341807618017715
aF-0.3164196465903511
aF3.1352252455930225
aF0.2125406265152141
aF1.8067367771504002
aF0.7486996434602253
aF0.3467849876060184
aF1.7073622649256266
aF-0.8351737477560783
aF2.574317264351728
aF0.9370950819464984
aF-0.8545063472808042
aF0.8352246010974991
aF-1.0587865597739206
aF5.645489010376386
aF-2.930226974452361
aF1.9125404794573235
aF-1.631078682952143
aF3.293288389956958
aF0.7017002544782509
aF1.2874055679058143
aF0.8696839202004839
aF0.0861264967345092
aF3.158783651552855
aF0.02124356588475653
aF1.4040521776134869
aF0.7480872186648007
aF0.21024437447664218
aF2.0053692276297213
aF0.2077418083244876
aF1.055396791395032
aF1.2083960111161443
aF0.5818312846528912
aF1.256909888192724
aF0.43424401931314355
aF5.50011760912859
aF-1.7443771634352385
aF1.4734759404473872
aF-0.4569526563525502
aF2.2003709040980994
aF1.156771166911088
aF0.7998228879776644
aF0.16516123011342304
aF0.9563035584754529
aF0.7394308319488607
aF0.9917648521073279
aF-0.4270623390696468
aF0.7353975970164398
aF1.0256799878008573
aF1.195303301969622
aF-0.1709502260665246
aF1.4061512659452662
aF-1.2567528520299382
aF4.416549411321448
aF-1.2407295678277361
aF1.7510607009762906
aF-1.2095551672585425
aF2.520601340874277
aF-0.21943694853119963
aF1.8108203696859893
aF0.23079726745248677
aF0.949919185738247
aF1.697397840222183
aF1.692525804153946
aF0.24654498924032
aF0.6736044409938895
aF0.7546533052161899
aF0.8453897964718394
aF1.2136419663186688
aF1.1900529580253638
aF2.215692366789978
aF-0.4036047944798003
aF1.1422408054109505
aF-1.813091385663145
aF5.159212496711349
aF-1.396739639334794
aF1.451282544002071
aF-0.9095135472939372
aF1.8884789596012375
aF0.5577277461003746
aF0.23824725242654834
aF1.2892268812368584
aF0.923820203313997
aF1.4684193166351864
aF0.604653971943988
aF1.295407470361412
aF2.482071747635001
aF-0.04021851878982346
aF1.9500200925329823
aF1.1603681313236658
aF0.5358049405932591
aF1.7441198520827708
aF-2.3643320963901995
aF3.1417221037145096
aF-1.0892432139858137
aF6.3338171649214585
aF-2.2732726091813813
aF1.4428136521085086
aF-0.46715965563091016
aF0.7193604349532399
aF1.4294535956232661
aF-1.5186125311178749
aF1.1784165293615534
aF0.8263507484769103
aF1.0664241017195624
aF0.4441977171803917
aF0.4414921176613209
aF3.313878772890598
aF0.2770147027018834
aF0.9611821678778428
aF0.5353018791735478
aF2.1780842840590475
aF0.6672334156952794
aF-0.49891054607648216
aF1.2010580828643385
aF0.5406941774047779
aF2.236561159354262
aF0.5638409695465382
aF0.2627940132167819
aF3.2835188744860813
aF0.6637246966827564
aF1.4163902582218661
aF-0.2821232621954444
aF1.362059101177698
aF0.680710021633152
aF1.447420156068793
aF1.2198017356187671
aF0.03479417262208357
aF2.5424145290463906
aF0.5848115666121269
aF0.2516807771930122
aF0.012470057685585696
aF1.1394697130514262
aF0.7649718422003011
aF-0.6251451510737762
aF1.2219284887226067
aF-0.09460418578918983
aF1.7303750712211114
aF0.15228886275990597
aF-0.30405654750731614
aF2.3439404431497386
aF0.2500388641111857
aF1.6080380500053433
aF0.026169519612102496
aF1.4406272346353424
aF0.8293130289807252
aF0.9711342975477812
aF1.1254349815958156
aF0.09230227051535399
aF0.5277876478764595
aF0.30791558855945883
aF0.2630894122597679
aF1.3045700831924003
aF0.4695422844141844
aF1.4600839061144046
aF0.19219345917812442
aF0.9657801981832819
aF-0.5836112762465594
aF4.1734237908238025
aF-0.164968365708461
aF1.1516346548291505
aF-1.4214837610821398
aF1.1515661186107062
aF-0.3621613112816381
aF1.3045817480307464
aF0.2413052166765791
aF0.7921210056337803
aF1.0254304607384486
aF0.8630998070680224
aF0.7508092271011461
aF0.21204628415598592
aF1.0800047246582254
aF0.4481412741558542
aF1.0623287084024442
aF0.8105260833955977
aF1.0620042725709438
aF-1.2550699150460867
aF1.8153573098437261
aF-1.7015954726158178
aF3.672571868172555
aF-1.033040625563766
aF1.3443060659056596
aF-0.24559039890612944
aF1.172905938056916
aF0.8755470428881268
aF1.5590812665284521
aF0.9797409332773133
aF1.0424465347739582
aF1.2942800841683715
aF1.3251345863413009
aF0.6173878296305356
aF1.2602185507039152
aF1.4484487253741243
aF1.0401908637100183
aF0.9349659030920523
aF0.8573636631533379
aF1.6878175335344718
aF-0.8657715715922855
aF3.2185389720817703
aF-0.2207561937243181
aF5.578723329020839
aF-1.041566704117355
aF1.027186209680858
aF0.487112874847812
aF1.0920259941619284
aF1.7398849731009252
aF-0.02829773319476856
aF1.6153501956765226
aF1.0295794370540012
aF1.0396692432898886
aF1.2148634651177257
aF0.0986339836904835
aF0.6768111237439013
aF0.19182837854214466
aF1.2431132763118018
aF0.20098852137654238
aF1.0101833637380349
aF1.9557641968264143
aF-0.5109075774634607
aF1.039254551625588
aF1.3150402402970178
aF2.8221922375999133
aF1.2123773414053023
aF-0.11890982159960871
aF2.6817026990099873
aF-0.2519393722246774
aF1.8940868974743577
aF-0.4269772344598865
aF1.5683530812916766
aF1.35655121873663
aF1.0155670544541133
aF1.0998876641924047
aF0.9644973864276222
aF1.7330760880199945
aF0.055421374057223
aF1.411895168437555
aF0.707650862574878
aF1.5559923794872266
aF1.2628934840848127
aF-0.23009130285053989
aF1.0273587352871385
aF0.6417903714532073
aF1.3049834028415646
aF0.3773293940638691
aF-0.0066800449536574226
aF2.160488219976207
aF-0.0017820211802393106
aF0.9503378779849984
aF-0.466347485830804
aF1.2725802999828077
aF1.064900403392358
aF0.4240806945298585
aF0.9571488472821146
aF0.6985398447971581
aF0.48701823833714775
aF0.4824393229560785
asS'_inputs'
p4
I608
sb.