(ilinear_regression
LinearRegression
p0
(dp1
S'_weights'
p2
(lp3
F-18.914652055020543
aF5.642788033750303
aF8.42598250200192
aF5.533768197166228
aF5.07367656103746
aF8.254282511554555
aF5.990928971177565
aF5.872282816101846
aF8.629871092110712
aF4.261120553917923
aF5.585060200615576
aF6.855960615942903
aF6.165829514619035
aF5.037162773066072
aF6.561710821317019
aF5.0365277554536405
aF4.208511064815173
aF8.226910417039784
aF4.958329370379156
aF5.024084569804149
aF9.14116977344877
aF5.379800169691893
aF4.892469073877986
aF8.262859215880527
aF4.0724620073640025
aF5.701844959938846
aF7.969832839710358
aF5.870854894478489
aF5.294592728711431
aF7.196978994061856
aF5.392050846971
aF5.4903699705898825
aF9.878588831029756
aF3.19037159966937
aF3.663973301921622
aF9.839908151278992
aF3.244041115055209
aF6.379287263119469
aF11.50526148258513
aF0.5202967732526809
aF5.343341760046754
aF9.384598554675938
aF4.2043154553620194
aF4.816829668557253
aF7.711400093562694
aF4.134366764644429
aF3.7704646078612316
aF8.078224650552402
aF4.452152720103862
aF3.8372914821053814
aF9.605844169077198
aF4.365154633638061
aF3.8918196768385287
aF9.980317067284366
aF3.5520615935002815
aF4.315802504948255
aF8.198464997498025
aF4.511050902921942
aF5.007868377893591
aF7.771647215710991
aF5.300489718593695
aF5.263028307834009
aF9.147504932856135
aF6.108362794225895
aF5.036742380741484
aF9.538775717679435
aF5.642362219640545
aF5.5510899561779485
aF10.095183069832029
aF2.6976015572445746
aF5.013497778915254
aF8.457676453650889
aF5.826321848736301
aF5.474241876354222
aF7.576213003303346
aF5.283702475846244
aF2.816714912756393
aF2.2781595776498507
aF2.765301866687097
aF2.9775570608510353
aF1.2510981737794713
aF3.018690155838686
aF3.595912296890022
aF0.829145475139772
aF1.2608377200124061
aF1.417750399748668
aF-1.383773634126027
aF4.015890709936579
aF-0.3299947757538446
aF0.7804874353684096
aF-0.19355432953644733
aF0.8982971637015886
aF1.7750024203175157
aF-0.5301958490047727
aF2.0698462918642018
aF-0.43725974462326994
aF0.6907105040504173
aF0.46702732670468555
aF0.8448324188807623
aF0.8870530809785594
aF1.7108759585044153
aF1.1832068407293788
aF0.10468028639019683
aF1.668908880123629
aF1.1260608905199374
aF1.2624408222970316
aF1.0971835230886053
aF-0.9286284509242984
aF4.80373614465015
aF-0.1571738928146577
aF1.8290557062465271
aF-0.8420555376406034
aF1.8885388068317326
aF1.224358725423267
aF0.29412711065765135
aF1.6236078497844806
aF0.5833627111632064
aF0.8437455380532013
aF-0.0326295361935071
aF0.8517011425140355
aF0.8020192878594522
aF0.397040524182664
aF0.4874935128846547
aF0.4102222349719613
aF1.2073347822840208
aF1.4577804647907247
aF1.3155729538443968
aF0.870216304273484
aF-0.9550072857782451
aF5.151662385456094
aF-2.649843185680788
aF0.7638504697532736
aF-1.535982512530769
aF1.9170810656305506
aF0.9996988263066205
aF0.7689470569572151
aF0.8574316759645042
aF0.9658357321812534
aF-0.4581715573153067
aF1.089731861150161
aF0.9104783575800991
aF0.8038566009885428
aF1.162349232580187
aF1.0854556504443775
aF1.684550130665924
aF0.19954101788766654
aF0.6556006728011171
aF0.9258972746955847
aF1.0792663617891658
aF-0.17427915064227745
aF1.8724166371800752
aF-0.09727640886436875
aF1.4368689713345373
aF-0.5934046989390436
aF0.9096223749106601
aF-0.10262933020571274
aF3.0630660676836428
aF-0.4070471985030905
aF1.3525274475596638
aF0.7520137060936315
aF1.3333041176585803
aF0.8443689260288134
aF1.4101410091436481
aF0.5027551994945209
aF0.6939535185539781
aF2.3042820195098406
aF0.5782709898427092
aF0.9216745388698401
aF1.0511081440147452
aF1.4090306077968433
aF0.13666627195687558
aF0.8647679975898335
aF0.244749724995134
aF1.4613800188996366
aF0.6598927195649019
aF1.7950324194443186
aF0.016691946240465355
aF2.6536736528840037
aF0.3614111450671151
aF0.9237745388767389
aF-0.0702358645978325
aF1.3587393658331182
aF0.9664467252524954
aF0.9508176035417583
aF1.442736018397111
aF0.9671545848526062
aF1.2403814179179136
aF1.4366418285996845
aF0.8387851501948542
aF0.9941740028938255
aF1.7538673896432633
aF-1.010568711690735
aF4.860365792877509
aF-1.278020204363685
aF1.732092434826033
aF-0.9164841319368248
aF1.5700141175841458
aF2.9340175186396347
aF-1.14730732466304
aF3.070009396781401
aF-0.6272881337005533
aF0.9611060957407092
aF-0.30582733245552185
aF1.075585129793198
aF0.9075144278662529
aF0.4874299746141278
aF1.6953648059003092
aF1.3445997863596155
aF1.3372906477302524
aF0.5309124873194865
aF0.7153809122648468
aF0.8321675805741564
aF-1.630663317024659
aF5.692607584052889
aF-1.1764435404738924
aF2.327307114506074
aF-0.3930843831481512
aF1.315527654002276
aF2.033140032238542
aF-0.717571104048845
aF0.8861832104341746
aF1.0898526271617757
aF1.1404213945722146
aF1.1308675606851306
aF1.1397926075187323
aF1.8429035569601044
aF0.7770415058448634
aF0.3034476677386852
aF2.427012546356717
aF-0.59099839002154
aF1.733265246231774
aF1.4227360308047168
aF-0.06919207010601225
aF-1.8127142570450907
aF6.630761137055799
aF-2.4483623236504526
aF1.127568919262764
aF-2.934906525148047
aF2.174041657793703
aF0.61591994854773
aF-0.5705227919828899
aF1.5473393433619909
aF1.1716336349057614
aF-1.040105076674308
aF1.7797222329895281
aF0.7169288124370337
aF1.5570159633546612
aF1.0136243576746056
aF-0.7775838893237513
aF2.522687862411512
aF0.45392217211149505
aF1.2110499480272865
aF1.0189658089331066
aF2.4788768060187656
aF0.042099720391971976
aF2.192998077887083
aF-0.17494429644139833
aF1.4779922488808828
aF-0.18274211745989127
aF1.4771448272085446
aF-0.1093868945849049
aF3.0395446133129247
aF-0.3259570245260129
aF1.7442075820077674
aF-0.2865720721183204
aF1.2163110559340005
aF1.0844411172124548
aF1.898590645342344
aF1.1242864282857332
aF0.45860496810874407
aF3.092877865557108
aF-0.1527195997012273
aF1.2479580206471859
aF1.0199983990521686
aF1.6267481085215751
aF0.3113607748178982
aF1.1704777215861273
aF0.09234296243413265
aF0.3442192752401808
aF-0.39384260019790795
aF0.9189785175753984
aF0.2322769150749323
aF3.273467231606091
aF0.5245906682109809
aF1.3464249711213774
aF-0.4873269944864347
aF1.0499714208599873
aF0.9741068552575378
aF0.8113928995228206
aF1.3184960424940084
aF1.049293511091468
aF1.4377748522325797
aF0.9750146907995227
aF1.0735513873916338
aF3.0046791388997653
aF-0.7885212996946177
aF0.29156970639090324
aF1.74616922621565
aF0.8892281016633743
aF1.987302302032341
aF0.022421751827829153
aF1.9175421855569652
aF1.5344456952998802
aF-3.1736637119630675
aF2.8749212739229404
aF0.18969583357688313
aF6.749238799779693
aF-3.79085915707668
aF1.037568642896286
aF1.7689456464924205
aF1.0468313686524753
aF1.4964989987694688
aF0.7334383046281596
aF1.4975604321710319
aF0.9243845605114196
aF2.7926344324017425
aF-0.4681110702135678
aF1.1519767616615935
aF0.5770623517587914
aF1.87139161562532
aF1.3510509097827947
aF-1.504269992642068
aF1.323595592306455
aF2.2636711948936505
aF-2.8538765518712492
aF4.341040910394023
aF-1.9814345715450457
aF6.759356741716959
aF-1.9238580762900945
aF0.01882344767483932
aF1.5541328864173396
aF0.87303244755337
aF0.7420527052659522
aF2.3298529814386892
aF0.24308898621308866
aF-4.128437995317977
aF6.867971835724296
aF-0.18717443968417902
aF2.6077773459636284
aF0.3933418327963686
aF0.305370694537209
aF2.6108732576432883
aF-1.068071249622395
aF-0.5833666175014303
aF3.2318319664718724
aF0.23446355022559778
aF-0.08119690248401046
aF3.201651261141725
aF0.009836896356019307
aF0.22948131903639357
aF-1.8725858989197608
aF4.301796307455603
aF0.9341807618017715
aF0.11162497136394264
aF2.8298628525122975
aF0.2125406265152141
aF1.7120185570593118
aF1.261798201526927
aF0.010964851409100054
aF1.4633301447400069
aF0.19225576891624013
aF2.5124368712883007
aF0.7377819182261581
aF-1.329290273480642
aF1.1220760662228928
aF-0.8378402188401308
aF5.693956209419126
aF-2.9977920761752297
aF1.7374961025422562
aF-1.3732870346265869
aF3.3370772517187963
aF0.8618578116470247
aF1.1102818077747911
aF0.9687195091255697
aF0.33619668631761684
aF3.07281912389738
aF-0.020179871169275523
aF1.203600947532431
aF0.9293094557049796
aF0.3120335692961821
aF1.7102118728166653
aF1.1256559816161704
aF1.1541569763396589
aF1.3383370240893628
aF0.364296412872861
aF0.9572581222046838
aF0.2661175957042893
aF5.6606911043587695
aF-1.5349757968028908
aF1.8411581800486678
aF-0.5620656680729079
aF2.0643378093896176
aF1.2334093519165867
aF0.6838485188016048
aF0.2865668002468167
aF1.289434141798086
aF0.5606701923983547
aF0.9600771332087754
aF-0.8897516947865298
aF1.5329487897080767
aF0.7733783526046807
aF1.0904040132424753
aF0.44047691528323235
aF1.6211404167458894
aF-0.6802918911506058
aF2.8466172945076686
aF-0.6345040366881073
aF2.5330127064020203
aF-2.13309770015549
aF2.864040306599484
aF-1.5833123323855758
aF3.6170001419594975
aF-0.08497098779436284
aF0.872876531334625
aF2.2552049075249054
aF1.2938307772176805
aF0.25734309526864474
aF0.6144756199190121
aF0.9256662451362666
aF0.1624495976386668
aF1.7685507337971709
aF1.4006445911586525
aF2.3419129542422934
aF-0.05072792528792318
aF1.384660352189846
aF-0.9944022405412007
aF2.980643718035474
aF-0.42410563057575446
aF2.0219431026609658
aF-0.2905263351449146
aF0.9006796270473878
aF-0.6979383187374466
aF2.162171384091216
aF0.7475049475823402
aF0.5640619559458813
aF2.083513349651818
aF0.4313875722583104
aF1.2347396614021844
aF2.3072196290513363
aF0.31798363362665677
aF1.3566274747621858
aF2.692438393491941
aF-0.3203125020254681
aF1.877563746408479
aF-2.3121624288195703
aF3.6776255452416846
aF-1.6372203994562824
aF6.073501566124508
aF-1.8522254497090531
aF0.9235277791783743
aF0.5656136551524595
aF0.40772143535397315
aF2.0428070928531183
aF-1.5068564940354403
aF0.679843128221607
aF0.3488167490736202
aF1.6390949643815442
aF0.4311302398845347
aF1.1450486798828032
aF2.415474088674403
aF0.5945450495701848
aF0.6857027889129101
aF1.3371881374042511
aF1.7342376065720244
aF1.3977926725216783
aF-0.5552704430109144
aF1.2483757263956787
aF0.8624245358478642
aF0.8212219440501998
aF1.2702042016126274
aF-1.7685528584513475
aF6.164963935087783
aF0.015474946002901993
aF1.6229248159426697
aF-0.244666357828708
aF1.244603772262571
aF0.8169817177642711
aF1.469493913872363
aF1.14352566764692
aF0.2112001562710354
aF2.308515765886633
aF0.7649865709964958
aF0.1620819129648478
aF0.6659805422994833
aF0.6581182944443323
aF1.0044617264558102
aF-0.22624013586499908
aF1.3050505926816345
aF0.30098924940137706
aF0.4564306930938009
aF0.643394180901814
aF-1.4326454108098219
aF4.7856197527313284
aF-0.8612031439141217
aF1.3551315669666921
aF-0.44349478866502606
aF2.2897341591235696
aF0.9666256778364825
aF0.8299669221256349
aF1.2113590941250332
aF0.31847354571552233
aF0.23451588099500406
aF0.49769830511427604
aF-0.2757353186138852
aF2.3421445311348363
aF0.05335276912400326
aF2.6991378789768112
aF-1.1678596525347837
aF1.808296340457053
aF-1.344741459155011
aF4.134259047879281
aF0.24808093534966263
aF1.797879985572937
aF-1.7565750176826185
aF1.0422604827213677
aF-1.4936947279427908
aF2.916663384413215
aF-0.11270686987236256
aF0.40888144646517627
aF1.7218906469714728
aF0.631948565966435
aF0.920878204677493
aF0.12422663274039077
aF1.12043762337101
aF-0.3144402000440682
aF1.7838788021578473
aF0.9341176656188075
aF2.5193396697471613
aF-2.1546009069435628
aF1.9790699079883356
aF-2.061583082535019
aF3.5549895156940527
aF-0.9427162879609204
aF0.765735300565422
aF0.3810547384419962
aF1.3266800043029838
aF0.3161959776250276
aF2.6897818612969204
aF0.5349275369443911
aF0.7385556241730689
aF2.0005344613767226
aF1.0048405056966763
aF0.8169731433305453
aF0.9710812930152679
aF1.6606828942362837
aF0.8462041809663697
aF2.440716721229916
aF-0.37184027046231666
aF2.311440817680115
aF-2.3931225171873938
aF4.843783636954504
aF0.2536497502391794
aF6.466534866575459
aF-2.7910298104305364
aF0.11015802919752
aF1.8068548547486172
aF0.8911606329984496
aF1.6837993184593727
aF0.35635585198919
aF1.413318398306466
aF0.8361333068636402
aF1.5058687543884008
aF1.0241794701724038
aF0.3535020612941986
aF0.21752677422393613
aF0.5189268753319143
aF0.6529845320459103
aF0.9170561507445352
aF0.9668046804145146
aF2.437032112071353
aF-1.0610132002173076
aF1.829609262557861
aF1.6911299999636862
aF2.0852601782454854
aF1.1859740162981138
aF-0.7353061875450911
aF4.5176768215897996
aF-1.269668690605163
aF1.8679812765044517
aF0.13215014734600936
aF1.1618674536281135
aF1.5312150193222804
aF1.2874178821388729
aF0.7354424218848318
aF1.2036634389262295
aF1.2123126993734243
aF0.45970093507873544
aF1.1961119449666637
aF1.3838106801437642
aF1.1781759871678554
aF1.7409849353062534
aF-0.47946134149347974
aF1.5201543261319777
aF0.7354660389381736
aF0.6376917675345031
aF0.5636997370911537
aF-0.7877741863400507
aF3.744818503659302
aF-0.6031697252229749
aF1.5926136561591457
aF-0.27886871972386085
aF0.5693618888740997
aF0.9478995781065652
aF0.641914432074671
aF0.9383853209859295
aF0.9704214253590351
aF-0.0692619058761425
aF0.8895201114810307
asS'_inputs'
p4
I608
sb.