(ilinear_regression
LinearRegression
p0
(dp1
S'_weights'
p2
(lp3
F-18.203774995559538
aF5.262473128505077
aF8.38438709082582
aF5.244801454127344
aF4.705445063975945
aF8.245462520819473
aF5.657103399514156
aF5.742430189326892
aF9.821596783330367
aF2.4883704300127096
aF5.142948898889738
aF7.25568131826171
aF5.49734305456554
aF4.8788698010758615
aF6.490055447646072
aF4.555599041654263
aF3.8775095643933195
aF7.869904377415746
aF4.935459850964104
aF4.48308198321058
aF9.202481237177414
aF5.14861423309521
aF3.764097065641944
aF9.785594824872064
aF2.967221347147677
aF5.12983799890036
aF8.509621005461824
aF5.19219663030459
aF4.84375605813546
aF7.194897164697826
aF5.134092287450485
aF5.375488818760823
aF9.148552117462792
aF3.3244124056041935
aF4.0331679517998
aF9.163189906485997
aF2.8406876505079772
aF6.188017308691021
aF10.985654377552173
aF0.5202967732526809
aF5.27212775811784
aF8.682354998669744
aF4.266895953835938
aF5.019637469705718
aF7.089988561511071
aF3.842093436086729
aF4.578666692319048
aF6.391375008277639
aF4.619923218459122
aF4.908932897331779
aF7.514187138030924
aF4.674293189996021
aF5.080794703332848
aF7.7137164885714045
aF3.9188100862574298
aF4.7756106457099134
aF6.511904039691947
aF5.026926660505771
aF5.122497096086855
aF6.643849972643264
aF5.602781184007626
aF5.982735813511669
aF7.402243331463226
aF6.423039830480055
aF5.948726906144788
aF7.56042261519184
aF5.997853737263339
aF5.96421421030438
aF7.371773029937401
aF4.297010283551679
aF5.397867247374494
aF6.611462018457565
aF6.577289756010147
aF4.844871905259084
aF6.647132501998763
aF6.131275888785438
aF2.728361226174079
aF1.5936095400252657
aF3.342105165913625
aF2.780931902909669
aF1.1196932430691644
aF2.907966883595815
aF3.519889023303146
aF0.21827378159416885
aF2.5596429727747054
aF0.6414631539497271
aF-1.11588355207791
aF2.6971046493114534
aF0.03635116519861237
aF2.082449662779808
aF-1.797823217018837
aF1.777407122998974
aF2.5358416766115486
aF-1.3978883307118894
aF1.9800743593359538
aF-1.9795914762381823
aF2.639788934195684
aF-0.07112430253607897
aF0.4786811189816602
aF1.4378515952329152
aF1.4155054719062807
aF0.9915550947896136
aF0.05515010786632497
aF1.8340675310004528
aF0.34330363541908254
aF1.9441657578924596
aF1.109862156011806
aF-0.6239142382985648
aF3.387694938843542
aF0.26960306274146184
aF3.0264465564677576
aF-2.3062643288279157
aF2.732160047024447
aF1.3197771340451774
aF0.7921131692765193
aF0.8335782246024127
aF-0.1720120888014944
aF2.3231570870782177
aF-0.8880712159641612
aF0.47264344168643446
aF1.3896272998363628
aF0.07776694079047616
aF0.43892830024668544
aF0.03492168601421251
aF1.555177270292978
aF1.0734627368122744
aF2.8502521876915505
aF-0.36849888817747617
aF-0.2787470859665611
aF5.476774110025683
aF-4.335765147686721
aF1.1557054428171558
aF-3.063613988322629
aF3.6296608675849
aF0.13281893999554786
aF1.593802769843827
aF0.7028306914476578
aF1.0820193465030195
aF-0.09551584454970122
aF0.4794876033524716
aF0.4684164563839334
aF1.1554848713759613
aF1.1420595911460547
aF1.4645637519573607
aF1.0049766432201874
aF0.42398313023363626
aF0.20576415512425322
aF1.3810448243961335
aF0.9856016431832896
aF-0.2749818887288772
aF1.319941877444206
aF-0.12864894866658091
aF1.6313252433332341
aF-0.8736617313021916
aF1.5722264345015327
aF-1.1910143768814907
aF4.908820950406492
aF-1.3610421924913643
aF1.7188304257145803
aF0.4662304441459862
aF1.1213794707410352
aF0.8834031412160267
aF1.5218322447672494
aF0.2413064764408345
aF1.2909730539261959
aF1.4099241078277784
aF0.7995860925657579
aF0.7183823943034122
aF1.3639743038032222
aF1.2111029059926353
aF-0.22052372128159028
aF0.5262838530382243
aF0.2558738251605612
aF2.1887848274815673
aF0.2885149794941226
aF2.015808650159682
aF-0.901121749028798
aF3.7196055282762615
aF0.01666780700281554
aF1.4025720787706575
aF-0.07871718175210511
aF0.7570182123832153
aF0.9084209915937522
aF0.9687860312941234
aF1.3720700520606175
aF1.1389808311188117
aF0.4903027830906375
aF1.938870943573986
aF0.36835274947503793
aF1.7207728023399698
aF1.409347304334765
aF0.3068365968792012
aF1.571589289501796
aF0.008800952817515192
aF1.3601924922010065
aF0.09002400724208338
aF1.51220922025675
aF3.6380016005213296
aF-1.9004829380688317
aF2.9225757703640673
aF-1.7935758096415724
aF2.5443674087829495
aF-0.8542059002671842
aF0.7657404763252267
aF1.4306690418876307
aF0.16339674181784292
aF1.661438587780076
aF1.1900229978282015
aF1.4497703807951132
aF-0.07007247814131101
aF1.3961827356003405
aF0.6639970361172864
aF-0.26314538208523625
aF2.6165127923081104
aF-0.15241672129309855
aF2.3459194773172842
aF-0.26455874077904296
aF1.7451929480484538
aF2.1358893317884426
aF-0.4820000398793383
aF0.35123768877344264
aF-0.5823943468150936
aF3.6381224574289477
aF0.17400854109493225
aF0.830868083428474
aF2.2564987979857363
aF0.5616475166666229
aF0.855721947372253
aF1.608223968074253
aF-0.40050736495944733
aF0.7661722551601896
aF2.7588841405113174
aF-0.5266008753232839
aF-2.811486156983211
aF6.292972967896579
aF-1.796352292177709
aF1.580643146878133
aF-2.6207438063174293
aF1.983608010574183
aF0.13241823355548685
aF0.012184016417155056
aF1.2515090920129088
aF1.6832051403789545
aF-0.7564722831230271
aF0.8531130032547509
aF0.30702108399746364
aF1.9919259415500032
aF0.8778988356759497
aF-0.011327296207439379
aF1.4316512318781778
aF0.7026789359417401
aF1.1297371726325227
aF1.7121324140404983
aF1.7786692897239544
aF0.49791138656258244
aF0.4028714067435575
aF0.47482067090686775
aF2.0356465479495425
aF-0.42411720962949795
aF1.7376689195359356
aF-2.0521241296133423
aF5.8844389787185785
aF-1.4247393128444543
aF1.8352483182179404
aF-0.6608789566675075
aF1.3681722735627184
aF1.1528077145176119
aF1.8929895028198582
aF0.9507977012601901
aF0.7377747187379147
aF2.506014851180597
aF0.07895039045932262
aF1.0884893949622119
aF1.3926163985896542
aF1.325245048086906
aF0.3331726935861959
aF0.20903936773105572
aF0.3474193598962833
aF1.0370027972758942
aF-0.35798621326721647
aF0.7671419078354359
aF-0.862169431349803
aF4.769720813409687
aF-0.0738417251091102
aF1.125765780330815
aF-1.2164852195690445
aF1.8683839060229173
aF0.9709178047266824
aF0.7403145773686807
aF1.2820401429361339
aF1.3616246131419254
aF1.2926399556886
aF0.7317952117062465
aF1.1652137082313203
aF2.565185358945411
aF-0.5290435271622397
aF1.7470468695687469
aF-0.5934058404144784
aF1.0887759674910404
aF0.37263401304929045
aF2.6417592353040713
aF1.4896762902902945
aF1.2894041771469484
aF-3.144747933665088
aF2.8944218558365464
aF0.6753928797852173
aF5.904682935012701
aF-3.563405269228446
aF0.9742403129523656
aF1.60748533072044
aF1.1608967421255003
aF1.2718194537933705
aF1.140233356410829
aF1.2394216517776544
aF0.8199316972555121
aF2.433188549911608
aF-0.09256601104972917
aF2.1446797578027996
aF-1.2936532089493071
aF2.064854142567504
aF0.5771769548876776
aF0.442668032435567
aF0.7273348213504399
aF2.25718824900948
aF-2.7331801463459553
aF4.030202292811605
aF-1.849984695589904
aF6.482292292560225
aF-1.909648433798719
aF0.03218157518800839
aF1.4196512456977326
aF0.8834326885169319
aF0.8585461195696723
aF2.2272078391178676
aF0.15321744064334167
aF-4.136290865033035
aF6.7874710188571035
aF-0.18717443968417902
aF2.823537838706175
aF-0.5069686975707951
aF0.305370694537209
aF2.395336221258113
aF-0.275730914010743
aF-0.5833666175014303
aF3.203018511862
aF0.06665184689418002
aF-0.08119690248401046
aF3.237478904901346
aF-0.15739567811397287
aF0.22948131903639357
aF-1.8696944568804748
aF4.188181593173399
aF0.9341807618017715
aF-0.0819212008969449
aF2.9473857511863795
aF0.2125406265152141
aF1.6693176350694128
aF1.0693606146907577
aF0.15774967365293097
aF1.4673526441314797
aF-0.7358036157637278
aF2.751923718952242
aF0.9112995384891984
aF-0.6331777577563399
aF0.8292492294619581
aF-1.4380487747970856
aF5.931229826864504
aF-2.831482295604657
aF2.259600799015925
aF-1.9831902110302362
aF3.2934708009384575
aF0.8581514669103593
aF1.1155698825923384
aF0.8564145068018136
aF0.2119536909430609
aF3.162301507824298
aF-0.06144253330845677
aF1.2693871243824684
aF0.9706814220848218
aF0.1165217394841119
aF2.043572364300582
aF0.05234432625524232
aF1.2095581025920827
aF1.5642409919152482
aF0.645536788628497
aF1.0269170778496448
aF0.2709259612634754
aF5.424145545385892
aF-1.4998637613302184
aF1.7917388690855067
aF-0.7230500401127132
aF2.143336561682179
aF1.1367134245335666
aF0.8100244893502666
aF0.14636348483830255
aF1.008498179573271
aF0.9613119340360087
aF0.7643480802091209
aF-0.36539157125363353
aF0.43047084056774537
aF1.2631424916299605
aF1.0540698522700842
aF-0.18198125941532456
aF1.5953827147922894
aF-1.563839494965426
aF4.891832280778038
aF-1.2193681199172048
aF1.5018973507548214
aF-0.8705810095858216
aF2.4360138137356193
aF0.21220599963565295
aF0.9790717426530909
aF0.6260341487805959
aF1.068017118565247
aF1.6150470854695493
aF1.6281247397995373
aF0.5015232573761186
aF0.6229166460049133
aF0.5970217833561308
aF1.036682949605982
aF0.7560731244026215
aF1.450535162003683
aF2.567981632302477
aF-1.0204567635762236
aF1.4437704747934812
aF-1.7461518623975163
aF5.397757004972886
aF-1.512665996430329
aF1.1543049393337066
aF-0.5895466250068359
aF1.8707129222951704
aF0.5186864142923188
aF0.25533099632540374
aF1.306315671608122
aF0.9537633921709613
aF1.4849842769417911
aF0.529491936500376
aF1.2191406625294359
aF2.5850455090891096
aF-0.020266521125181354
aF2.1987431400744044
aF1.0404376612329782
aF0.40121887833903275
aF1.8764355004067539
aF-2.249496970940284
aF2.931538295739352
aF-0.7091341288488107
aF6.285036804042944
aF-2.41504365900824
aF1.2102183729198024
aF-0.6492164778219339
aF1.1392358166456227
aF1.3634837891191758
aF-1.3937874445223708
aF1.114692451732201
aF0.8020143259601745
aF0.9875486620421765
aF0.5187556930944764
aF0.5043851495647533
aF3.2799809322237383
aF0.29467846275209264
aF0.7826363975551119
aF0.645657648553885
aF2.2404808001979464
aF1.2108534010604814
aF-0.7873064249782574
aF0.9828009421996059
aF0.0643553835640678
aF2.9894303233220136
aF0.4768682738510836
aF0.8800840780629309
aF2.1743246483564174
aF1.1608521382788541
aF1.0467668499367597
aF0.12030499559209025
aF1.3243854541373306
aF0.600348554280133
aF1.4681464146241505
aF1.2507830581363948
aF-0.2967626948898047
aF3.004328332185132
aF0.5011135822720469
aF0.23900078350178017
aF-0.007884467434847461
aF1.1667107470595104
aF0.6113895164185538
aF-0.5917981720121007
aF1.3791308012413777
aF-0.29868798839873295
aF2.276681710221056
aF-0.00037629919889154134
aF0.19738796650672097
aF1.5660492996328526
aF0.5317087739266466
aF1.4586496268396252
aF-0.16017741844405722
aF1.7714937983192884
aF0.7701023706832224
aF0.9680916963231223
aF1.1590343548379387
aF-0.18809528882734164
aF1.124018975361007
aF0.038740771704376266
aF0.42539725542245793
aF0.8796937730308663
aF0.7263172666094547
aF1.2705545880823765
aF0.7106944625753532
aF0.6737754786167792
aF-0.6569999001420391
aF4.237695099140249
aF0.0337066243021941
aF0.4848228027750389
aF-0.6624526056158975
aF1.064570095511259
aF0.27308765672380614
aF0.3358413562845087
aF0.5699278428794399
aF0.8238667157533461
aF0.9424228323942035
aF0.8857078390126639
aF0.8115843970425899
aF0.12559305372028004
aF1.152341736439245
aF0.4963790786463078
aF0.6958970124420568
aF1.1229264900619906
aF0.5362054973801504
aF-0.6527180215549263
aF1.7757711573420876
aF-1.6065301870685984
aF3.953241364766221
aF-1.2192177332731162
aF1.0390842600936887
aF-0.18805153628397925
aF1.4258121615594157
aF1.0598967302652265
aF1.3400671340237076
aF1.0095365808670163
aF1.0955293233118129
aF1.2401741562873185
aF1.2975038394044565
aF1.072196255636425
aF0.8597565528716855
aF1.4407612484872365
aF1.0727002152551415
aF0.9548502064386591
aF0.7991765234580177
aF1.5044884389218447
aF-0.34047348375653314
aF2.913536944657361
aF0.10113270989405723
aF5.5558378929032575
aF-1.151012497186594
aF0.8006325692083128
aF0.15203705301768053
aF1.6588787367772555
aF1.7815706116091865
aF0.10391925688842964
aF1.4365787695471117
aF1.0686196552015854
aF0.9721354598349987
aF1.2147031441449911
aF0.4788675187364128
aF0.2790188807473742
aF0.25604603777951224
aF1.119865776359621
aF0.3480922180081471
aF0.9805336822550531
aF1.4743817638542773
aF-0.03569488981905091
aF1.0823912627520549
aF1.3104037323198814
aF3.2412193693374456
aF0.9875443920764749
aF1.0086891988530915
aF0.889110580744842
aF0.4182770059003695
aF1.6799230870855155
aF0.1371611469444016
aF1.2135097127382721
aF1.3166627984943926
aF1.1213951887762517
aF1.0052940638324646
aF1.1231433027805195
aF1.54336263003485
aF0.13314786697623898
aF1.2943434739981017
aF0.90727878118652
aF1.468122670511471
aF0.9613770416763235
aF-0.01787260585290788
aF1.1536234464967337
aF0.1965668126722606
aF2.019421446405737
aF0.29767258371225247
aF0.3546742890762254
aF1.0105606806374754
aF0.7920144644412163
aF1.1894859030137221
aF-0.27836410695339775
aF0.8405800985387398
aF0.9256452724775631
aF0.5557728946325634
aF0.9360578918141639
aF0.8442606284855324
aF0.45476582495810813
aF0.4156299039335107
asS'_inputs'
p4
I608
sb.