(ilinear_regression
LinearRegression
p0
(dp1
S'_weights'
p2
(lp3
F-17.64393707884416
aF5.7798461763826205
aF7.771322344257922
aF4.780655236097254
aF4.865106687068225
aF7.75853684461752
aF5.424529535903243
aF5.468799917162247
aF7.736813633825916
aF4.2869459349612224
aF5.486276563758486
aF6.266739102238093
aF5.583119689000315
aF4.894083193342872
aF5.56542408893724
aF4.905179091375992
aF4.309679601785958
aF7.591365762853114
aF4.221990511414328
aF4.338095241262152
aF8.646615673960142
aF5.289628621541415
aF4.592583784930041
aF7.988561978657622
aF3.3759295573544637
aF5.701540501047711
aF7.2113799613916
aF5.3588972555078325
aF5.034241642249832
aF6.415767323371252
aF5.162898627942766
aF4.881940223331677
aF9.673052261931169
aF2.733622939845795
aF3.435445219228889
aF9.710216131994471
aF2.3315462408518837
aF5.90349494678514
aF10.71033882273792
aF0.5202967732526809
aF4.834174017814098
aF8.046497540070996
aF4.780869236017929
aF4.40557515887836
aF7.013898553286917
aF3.9724078384175203
aF3.490260744725937
aF7.701157233709704
aF3.8387090239009964
aF3.681079242429561
aF8.855426832002324
aF4.0010692342080025
aF3.7581375144896585
aF8.866561152005785
aF3.528784694946248
aF4.654518245928697
aF7.337379754778834
aF3.7627054284819192
aF4.843666354359357
aF7.08774241545932
aF4.877881566198662
aF5.296969924265882
aF8.47613630499949
aF5.475074829470171
aF4.840307579146776
aF8.579516174929909
aF5.527341587804745
aF5.288161744094345
aF9.111096344283382
aF2.673901518696454
aF4.896739538590502
aF7.598860596377009
aF5.531180970153512
aF5.1766805613998415
aF6.875669538573163
aF5.011092279350301
aF2.6278532628881144
aF1.9583662714648584
aF2.699304416954465
aF2.8312337249845827
aF0.9515995647562125
aF2.8522345802589375
aF3.512127246966081
aF0.6447207215352447
aF1.3873522546896382
aF1.2867989688073642
aF-1.085701141710984
aF3.6625066848325316
aF-0.5944765492499128
aF0.8990580374361714
aF-0.6883614359487333
aF1.2085362183133959
aF1.8720621911833082
aF-0.623662394972241
aF1.9199297310991328
aF-0.33181951812555466
aF0.7008030112190002
aF0.05199598401510376
aF0.9233649332196293
aF0.7245015912464754
aF1.6284393583178858
aF0.8070141307815629
aF0.41762225401663877
aF1.64837457252115
aF0.9604015689784301
aF1.4315674812297936
aF0.9048545358287843
aF-0.816127108989701
aF4.277905583004579
aF-0.06363797928876949
aF1.750878784003278
aF-0.5305365040142404
aF1.5891992457158783
aF1.4846347048890516
aF0.0862648478787247
aF1.4248707972309458
aF0.1767571712422089
aF0.6384223589828769
aF0.27980057377448797
aF0.7475310617033132
aF0.6785150264237234
aF0.45825929084935624
aF0.6607581820321802
aF0.4963511404061357
aF0.8641561577784433
aF1.3255168852771078
aF1.3674552878420145
aF0.7617358999209439
aF-0.9339501277264554
aF4.517468652657797
aF-2.3564999171192924
aF0.8311695752407344
aF-1.8215830668971034
aF2.069365064776696
aF0.4931198385672711
aF1.1611775503402588
aF0.8254568344540237
aF1.0588092268733782
aF-0.7715790893843373
aF1.0106672895037692
aF0.8436806616468336
aF0.8978135848267094
aF0.9687343690955356
aF1.2062632564604812
aF1.4866246803964316
aF0.19287381221716918
aF0.739382203552109
aF0.6732357917421741
aF1.0592846641230513
aF-0.015192245069755203
aF1.876490782019086
aF-0.58023076546087
aF1.031507804864484
aF-0.36648770098080724
aF1.0220690936897299
aF-0.3299399425994354
aF2.978803652449329
aF-0.2417975067417595
aF1.6138912103389873
aF0.5816956779701276
aF0.9427597739794334
aF0.7518586844560821
aF1.3233822115286813
aF0.5155686631024691
aF0.8161197030313685
aF2.0780700869343245
aF0.5985316880169694
aF0.9540388208671132
aF0.8960484502237829
aF1.342864369721989
aF0.04075319515845903
aF0.8063761781636961
aF0.07926131503460122
aF1.5227935691119263
aF0.4197657013622615
aF1.9077484377020222
aF0.05249848546809429
aF2.1517838767510713
aF0.6811710461057261
aF0.8079631265522825
aF0.032189483935116475
aF1.0726268206013643
aF0.8608675848616218
aF0.9288641240512285
aF1.403813062698775
aF1.0117942632070693
aF1.1190911240483061
aF1.4295073941909502
aF0.7840344015371346
aF1.3537016844065028
aF1.260228806919795
aF-0.9144238166561829
aF3.9051466447408374
aF-0.7387392574466366
aF1.7409029694081544
aF-0.49061271792676053
aF1.0693347192592344
aF3.216379109696766
aF-1.2856745435297905
aF2.779691688724573
aF-0.7030819327890404
aF0.9209976184477073
aF-0.4894236650973118
aF0.8776511151351734
aF0.6660047096148377
aF0.7604181319438168
aF1.7376948846023783
aF1.298860599198432
aF1.2569147062654928
aF0.2514138011979736
aF0.7750627550767274
aF0.8631227740152332
aF-1.7029560899421996
aF4.873388907781058
aF-0.6047253974695578
aF2.1362395952876247
aF0.13097145452000303
aF0.9165418858199269
aF1.7336548791466764
aF-0.3232471308118545
aF0.6450210544222609
aF1.2311695808556116
aF0.8742067908881171
aF0.9562666016520915
aF1.0519154818761889
aF1.5788153800537816
aF0.9625512328139814
aF0.4063626424954034
aF2.303918250013771
aF-0.6546041183591301
aF1.667165755982752
aF1.4024874966524539
aF-0.17170569557325857
aF-1.5989552531476907
aF6.425852374214334
aF-2.777005870891327
aF0.7517718934808215
aF-2.6797068184590054
aF2.228641527153895
aF0.5316600213833245
aF-0.3659813769642069
aF1.2807345196410447
aF1.3345883631838027
aF-1.3950411022242675
aF1.6722049212381018
aF0.5914709577877055
aF1.4375860272199583
aF1.0920565728788831
aF-0.802568612601854
aF2.4881727621593743
aF0.4296369457179005
aF1.2080100687362807
aF0.8377415044233265
aF2.474279339951119
aF0.4608890502123592
aF1.5637314410085799
aF-0.28426029556844923
aF1.4772632299985868
aF-0.1494053091625074
aF1.3785395880608453
aF-0.40801321213129876
aF3.3311148570499713
aF-0.46522428658342296
aF1.7323478530788137
aF-0.4821126295197882
aF1.1242127332410274
aF0.9986655349876191
aF1.9411541277902318
aF1.0010429524829432
aF0.43954170627131495
aF2.9729859515458794
aF-0.09754947377642706
aF1.0539215930536636
aF0.7160608032018528
aF1.9358604820969207
aF0.5260766310922056
aF1.0825504839372728
aF-0.35423896237646385
aF0.6846339607181566
aF-0.5321659387100538
aF0.6508897208768545
aF0.16340278372125108
aF2.8214052446661855
aF0.8992034506378133
aF1.1599312673406315
aF-0.6701071777936987
aF1.1197466989247393
aF0.7517369076204912
aF1.0920822639733296
aF1.093721050100803
aF0.9055860932433458
aF1.5409041593497996
aF0.9318077516065312
aF0.8626103448223397
aF2.7489773764548793
aF-0.5107401445490684
aF0.059421655636853844
aF2.2258128582012335
aF0.3219392142467132
aF2.1761683370080505
aF0.7582202814103186
aF0.9268801712661521
aF1.5698268155059123
aF-3.6389356410642955
aF3.158488746951406
aF-0.13006975533790835
aF6.029488398375963
aF-3.050841775781682
aF1.2302186994460815
aF1.3849156866821057
aF1.0717556963332537
aF1.234026722018593
aF1.1372136267212234
aF1.2724723369049293
aF1.0343664387111255
aF2.6495562744934515
aF-0.6238764403735594
aF0.9400375748519119
aF0.5699015470168024
aF1.7706983009919022
aF0.8186411455761452
aF-0.7492790197072512
aF1.0350169338456279
aF1.9523130419484591
aF-2.466648923104671
aF4.118848098705978
aF-1.2433055864997447
aF6.0344894729734415
aF-2.2366184016152086
aF0.1400371614497258
aF1.1748893697000131
aF0.9646066749160586
aF0.5999071495152627
aF2.312292108564076
aF0.3190103649145179
aF-4.028096111363835
aF6.5787683019011025
aF-0.18717443968417902
aF2.861899673938964
aF-0.18057380136388593
aF0.305370694537209
aF2.7765212884713666
aF-1.2997167301831158
aF-0.5833666175014303
aF2.4938572081319
aF0.8261149726991103
aF-0.08119690248401046
aF3.084340928673524
aF-0.17235138019937346
aF0.22948131903639357
aF-1.7266828393679952
aF3.989437672324093
aF0.9341807618017715
aF-0.17489755647105598
aF3.0326003304234437
aF0.2125406265152141
aF1.939660853120396
aF0.9002204525419257
aF-0.043961345535394505
aF1.6143834061613889
aF-0.6543673315313233
aF2.8882134041293837
aF0.7327702742815337
aF-1.265512314051671
aF0.9973123010058467
aF-1.1356556690693163
aF5.780437344221953
aF-2.9327810966155057
aF1.824627344635736
aF-2.0403178802392277
aF3.617478246214353
aF0.28320854328712947
aF1.6362011240142316
aF0.8549938856662744
aF0.24267850704330599
aF2.9337713938677075
aF0.1286009882108587
aF1.38333111405908
aF0.7582175829167721
aF0.11453362568932171
aF1.8954142622752796
aF0.09843870516108275
aF1.6763785571511207
aF1.411900409379402
aF-0.009584964245577147
aF1.1915786643005044
aF0.5464632856232223
aF6.221360113399698
aF-2.5223138316294778
aF1.375017411909592
aF-0.775062965367704
aF2.4439772657999876
aF0.7562870473199982
aF1.0833464036498965
aF0.19773564441535893
aF1.1026010736611394
aF0.6881895818911359
aF0.9356057619290501
aF-1.014178282458836
aF1.6977288990201915
aF0.5441631810963016
aF1.1026208479585247
aF0.4681906435453133
aF1.2614165475826105
aF-0.8694723200632292
aF2.737611263295434
aF-0.40231502629592975
aF2.4049211036755525
aF-2.2194307505188235
aF2.9321416238227256
aF-1.505890856914083
aF3.6230280785816746
aF-0.4679190089115239
aF0.8337534041041254
aF1.9296306108864947
aF1.4920726255068482
aF0.36832266848831574
aF0.5597998070941201
aF0.7855774348176239
aF0.14542987177888744
aF1.6872907603454803
aF1.3100626406014686
aF2.4318555417084857
aF-0.21917082799326545
aF1.1433673612439743
aF-0.8286901067248371
aF2.6896414588694095
aF-0.36481295495865024
aF1.8955590264051365
aF-0.12057530032108568
aF0.7107893326126787
aF-0.7703208282738054
aF2.0571415751184796
aF0.6254186570679418
aF0.579184008652614
aF1.8214509227696973
aF0.5118723708539417
aF1.0235369593894332
aF2.2946486283306915
aF0.4579722864361055
aF1.1036572773036446
aF2.7286212043027422
aF-0.29238676524603935
aF2.2132681193189874
aF-2.995367425071077
aF3.7053328623975785
aF-1.6621450953624217
aF6.219223473450215
aF-2.0390201108610633
aF1.1307341305565906
aF0.514508316969543
aF0.10529708629201097
aF1.9318965566855941
aF-2.068348644955096
aF1.0527472062854746
aF0.2747086487971756
aF1.607350214887758
aF0.37052751407500967
aF0.9313693230543274
aF2.4473606901088245
aF0.6925527550402989
aF0.830606002585062
aF0.9280197848357508
aF1.8096410955998676
aF1.4340648173587802
aF-0.8694507126813821
aF1.2064905450439152
aF0.7961533927900482
aF1.184818591650724
aF0.9068812473372757
aF-1.4113211881490322
aF5.981732665847077
aF-0.3048487909253941
aF1.7079990835425234
aF-0.6365637039122931
aF1.2519282417228133
aF0.43497871146179373
aF1.956922354970606
aF0.871644657271404
aF0.37470875019959365
aF1.8948826720315248
aF0.9313260209991334
aF0.16623034438944606
aF0.12044421837245926
aF1.0106445370781445
aF0.7342868862931797
aF-0.2483062935271559
aF1.2774982843213702
aF0.4735742630300832
aF0.6147292869940877
aF0.24651312364017122
aF-1.2134600084967724
aF4.103782859215885
aF-0.5448749885783669
aF1.3168168361117767
aF-0.4957501825120086
aF2.080805674801786
aF0.6529090809929174
aF1.3414539844993376
aF0.8471330530151446
aF0.3805588426759952
aF0.18252019342208908
aF0.4038236458028544
aF-0.2764210446221313
aF2.316971038027514
aF-0.1096496616289779
aF2.3137722736408857
aF-0.9905341205505448
aF1.6965431076235569
aF-1.015998280248055
aF3.787111202994354
aF0.20048815159495503
aF1.7385870990948704
aF-1.9747847782311112
aF1.1734397938811612
aF-1.4694876175531566
aF3.15583112123302
aF-0.6755803261051763
aF0.5027681272386599
aF1.2492845238349062
aF0.8442124327497615
aF0.9533270688620189
aF0.09950195775716808
aF1.0289283842458303
aF-0.37340800017539316
aF1.566447816981553
aF1.0216548010578321
aF2.200305544238741
aF-2.1173815273457803
aF1.9410913477138587
aF-1.8200410202863786
aF2.91156258172819
aF-0.6068288659764198
aF0.8854851601173126
aF0.2741587800860964
aF1.1675027672402383
aF0.00862511891352337
aF2.7572407870334503
aF0.47554086089589676
aF0.729957251406427
aF1.7959606369363241
aF1.0515571273239526
aF0.9534175770528505
aF1.0794711468697324
aF1.3320635567356216
aF0.7562562519846664
aF2.4453623820006305
aF-0.4753996521197542
aF2.196837988646544
aF-1.8927924198245207
aF4.1382630624398224
aF0.35199692835958213
aF6.429068570468596
aF-2.917908142176555
aF0.3390793171287798
aF1.633798741656237
aF0.6889721222928934
aF1.8982085129049504
aF-1.1508503801805838
aF2.4066168270072756
aF0.5250850956421124
aF1.6594230689132745
aF1.0152177912892986
aF0.06449515795046311
aF0.2926386173863972
aF0.6490368855893242
aF0.9691295652261647
aF0.3860021838934588
aF0.992851964216772
aF1.9234351408015944
aF-0.9718476193460167
aF1.9342473467713968
aF1.540777106384583
aF1.9944227739147387
aF1.3611668644754598
aF-0.38472007974635686
aF4.617350816747614
aF-1.8662521294283394
aF1.7612940152428684
aF-0.46700145365004725
aF1.5682077068624427
aF1.2681299454931945
aF1.724918588568801
aF0.3945712137042468
aF1.4538962575625218
aF0.94819953181963
aF0.3897962340723809
aF1.3458385110416726
aF1.0598063251000225
aF1.1635921262680935
aF1.7996718844189894
aF-0.6561205156189855
aF1.3183332449596652
aF0.5135616535310796
aF0.4182939208450636
aF0.9390045194549556
aF-0.8383907670065589
aF3.3660819989133413
aF-0.320139975677137
aF1.425287039003463
aF-0.1989483775846373
aF0.35726955486710366
aF0.8260574348782737
aF0.9344446508002606
aF0.6012416699088741
aF1.0261363216747272
aF-0.04345805086634904
aF0.7242163102316862
asS'_inputs'
p4
I608
sb.